	.file	"histogram_py.cpp"
	.text
	.section	.text$pybind11_static_get,"x"
	.linkonce discard
	.p2align 4
	.globl	pybind11_static_get
	.def	pybind11_static_get;	.scl	2;	.type	32;	.endef
	.seh_proc	pybind11_static_get
pybind11_static_get:
.LFB10833:
	.seh_endprologue
	movq	__imp_PyProperty_Type(%rip), %rax
	movq	272(%rax), %rax
	movq	%r8, %rdx
	rex.W jmp	*%rax
	.seh_endproc
	.section	.text$pybind11_static_set,"x"
	.linkonce discard
	.p2align 4
	.globl	pybind11_static_set
	.def	pybind11_static_set;	.scl	2;	.type	32;	.endef
	.seh_proc	pybind11_static_set
pybind11_static_set:
.LFB10834:
	.seh_endprologue
	movq	8(%rdx), %rax
	movl	168(%rax), %r9d
	testl	%r9d, %r9d
	cmovns	%rax, %rdx
	movq	__imp_PyProperty_Type(%rip), %rax
	rex.W jmp	*280(%rax)
	.seh_endproc
	.section	.text$_ZZN11Multi_arrayIyLh1EjE8share_pyEvENUlPvE_4_FUNES1_,"x"
	.linkonce discard
	.p2align 4
	.globl	_ZZN11Multi_arrayIyLh1EjE8share_pyEvENUlPvE_4_FUNES1_
	.def	_ZZN11Multi_arrayIyLh1EjE8share_pyEvENUlPvE_4_FUNES1_;	.scl	2;	.type	32;	.endef
	.seh_proc	_ZZN11Multi_arrayIyLh1EjE8share_pyEvENUlPvE_4_FUNES1_
_ZZN11Multi_arrayIyLh1EjE8share_pyEvENUlPvE_4_FUNES1_:
.LFB14812:
	.seh_endprologue
	ret
	.seh_endproc
	.text
	.p2align 4
	.def	_ZN9HistogramIyhE10accumulateIhEEvPT_y._omp_fn.0;	.scl	3;	.type	32;	.endef
	.seh_proc	_ZN9HistogramIyhE10accumulateIhEEvPT_y._omp_fn.0
_ZN9HistogramIyhE10accumulateIhEEvPT_y._omp_fn.0:
.LFB18309:
	pushq	%rbp
	.seh_pushreg	%rbp
	pushq	%r13
	.seh_pushreg	%r13
	pushq	%r12
	.seh_pushreg	%r12
	pushq	%rdi
	.seh_pushreg	%rdi
	pushq	%rsi
	.seh_pushreg	%rsi
	pushq	%rbx
	.seh_pushreg	%rbx
	subq	$40, %rsp
	.seh_stackalloc	40
	leaq	128(%rsp), %rbp
	.seh_setframe	%rbp, 128
	.seh_endprologue
	movq	8(%rcx), %r12
	movq	16(%rcx), %rbx
	movq	(%rcx), %rdi
	call	_Z22manage_thread_affinityv
	subq	$2048, %rsp
	xorl	%edx, %edx
	movl	$2048, %r8d
	leaq	32(%rsp), %rsi
	movq	%rsi, %rcx
	call	memset
	testq	%r12, %r12
	jne	.L7
	.p2align 4,,10
	.p2align 3
.L10:
	call	GOMP_atomic_start
	xorl	%eax, %eax
	.p2align 4,,10
	.p2align 3
.L8:
	vmovdqu	(%rbx,%rax), %ymm1
	vpaddq	(%rsi,%rax), %ymm1, %ymm0
	vmovdqu	%ymm0, (%rbx,%rax)
	addq	$32, %rax
	cmpq	$2048, %rax
	jne	.L8
	vzeroupper
	call	GOMP_atomic_end
	jmp	.L15
.L7:
	call	omp_get_num_threads
	movl	%eax, %r13d
	call	omp_get_thread_num
	movslq	%r13d, %r8
	xorl	%edx, %edx
	movslq	%eax, %rcx
	movq	%r12, %rax
	divq	%r8
	movq	%rax, %r12
	cmpq	%rdx, %rcx
	jb	.L9
.L12:
	imulq	%r12, %rcx
	addq	%rcx, %rdx
	addq	%rdx, %r12
	cmpq	%r12, %rdx
	jnb	.L10
	leaq	(%rdi,%rdx), %rax
	addq	%r12, %rdi
	.p2align 4,,10
	.p2align 3
.L11:
	movzbl	(%rax), %edx
	incq	%rax
	incq	(%rsi,%rdx,8)
	cmpq	%rdi, %rax
	jne	.L11
	jmp	.L10
.L9:
	incq	%r12
	xorl	%edx, %edx
	jmp	.L12
.L15:
	leaq	-88(%rbp), %rsp
	popq	%rbx
	popq	%rsi
	popq	%rdi
	popq	%r12
	popq	%r13
	popq	%rbp
	ret
	.def	__gxx_personality_seh0;	.scl	2;	.type	32;	.endef
	.seh_handler	__gxx_personality_seh0, @unwind, @except
	.seh_handlerdata
.LLSDA18309:
	.byte	0xff
	.byte	0xff
	.byte	0x1
	.uleb128 .LLSDACSE18309-.LLSDACSB18309
.LLSDACSB18309:
.LLSDACSE18309:
	.text
	.seh_endproc
	.p2align 4
	.def	_ZN9HistogramIytE10accumulateItEEvPT_y._omp_fn.0;	.scl	3;	.type	32;	.endef
	.seh_proc	_ZN9HistogramIytE10accumulateItEEvPT_y._omp_fn.0
_ZN9HistogramIytE10accumulateItEEvPT_y._omp_fn.0:
.LFB18310:
	pushq	%rbp
	.seh_pushreg	%rbp
	pushq	%r15
	.seh_pushreg	%r15
	pushq	%r14
	.seh_pushreg	%r14
	pushq	%r13
	.seh_pushreg	%r13
	pushq	%r12
	.seh_pushreg	%r12
	pushq	%rdi
	.seh_pushreg	%rdi
	pushq	%rsi
	.seh_pushreg	%rsi
	pushq	%rbx
	.seh_pushreg	%rbx
	subq	$56, %rsp
	.seh_stackalloc	56
	leaq	128(%rsp), %rbp
	.seh_setframe	%rbp, 128
	.seh_endprologue
	movq	8(%rcx), %rax
	movl	24(%rcx), %ebx
	movq	16(%rcx), %rsi
	movl	28(%rcx), %r15d
	movq	%rax, -88(%rbp)
	movq	(%rcx), %rax
	movq	%rax, -96(%rbp)
	call	_Z22manage_thread_affinityv
	movl	$1, %edx
	shlx	%ebx, %edx, %edx
	movslq	%edx, %r13
	leaq	15(,%r13,8), %rax
	leaq	-1(%r13), %r14
	andq	$-16, %rax
	call	___chkstk_ms
	subq	%rax, %rsp
	leaq	32(%rsp), %rbx
	movq	%rbx, %rdi
	cmpl	$6, %edx
	jbe	.L29
	leaq	-4(%r13), %rdx
	xorl	%eax, %eax
	vpxor	%xmm0, %xmm0, %xmm0
	shrq	$2, %rdx
	incq	%rdx
	.p2align 4,,10
	.p2align 3
.L18:
	movq	%rax, %r9
	incq	%rax
	salq	$5, %r9
	vmovdqu	%ymm0, (%rbx,%r9)
	cmpq	%rax, %rdx
	ja	.L18
	leaq	0(,%rdx,4), %rax
	salq	$5, %rdx
	addq	%rbx, %rdx
	cmpq	%rax, %r13
	je	.L36
	leaq	1(%rax), %r9
	movq	$0, (%rdx)
	cmpq	%r9, %r14
	jb	.L37
	addq	$2, %rax
	movq	$0, 8(%rdx)
	cmpq	%rax, %r14
	jb	.L38
	movq	$0, 16(%rdx)
	vzeroupper
	jmp	.L20
	.p2align 4,,10
	.p2align 3
.L29:
	xorl	%eax, %eax
	.p2align 4,,10
	.p2align 3
.L17:
	movq	$0, (%rbx,%rax,8)
	incq	%rax
	cmpq	%rax, %r14
	jnb	.L17
	jmp	.L20
	.p2align 4,,10
	.p2align 3
.L36:
	vzeroupper
	jmp	.L20
.L37:
	vzeroupper
	jmp	.L20
.L38:
	vzeroupper
	.p2align 4,,10
	.p2align 3
.L20:
	cmpq	$0, -88(%rbp)
	jne	.L21
	.p2align 4,,10
	.p2align 3
.L26:
	call	GOMP_atomic_start
	cmpq	$2, %r14
	jbe	.L30
	leaq	-4(%r13), %rcx
	xorl	%eax, %eax
	xorl	%edx, %edx
	shrq	$2, %rcx
	incq	%rcx
	.p2align 4,,10
	.p2align 3
.L23:
	vmovdqu	(%rbx,%rax), %ymm1
	vpaddq	(%rsi,%rax), %ymm1, %ymm0
	incq	%rdx
	vmovdqu	%ymm0, (%rsi,%rax)
	addq	$32, %rax
	cmpq	%rcx, %rdx
	jb	.L23
	movq	%rcx, %rax
	leaq	0(,%rcx,4), %rdx
	salq	$5, %rax
	leaq	(%rbx,%rax), %rdi
	addq	%rax, %rsi
	cmpq	%rdx, %r13
	jne	.L39
	vzeroupper
	jmp	.L24
	.p2align 4,,10
	.p2align 3
.L30:
	xorl	%edx, %edx
	jmp	.L22
	.p2align 4,,10
	.p2align 3
.L39:
	vzeroupper
.L22:
	movq	(%rdi), %rax
	addq	%rax, (%rsi)
	leaq	1(%rdx), %rax
	cmpq	%rax, %r14
	jb	.L24
	addq	$2, %rdx
	movq	8(%rdi), %rax
	addq	%rax, 8(%rsi)
	cmpq	%rdx, %r14
	jb	.L24
	movq	16(%rdi), %rax
	addq	%rax, 16(%rsi)
.L24:
	call	GOMP_atomic_end
	jmp	.L35
	.p2align 4,,10
	.p2align 3
.L21:
	call	omp_get_num_threads
	movslq	%eax, %r12
	call	omp_get_thread_num
	xorl	%edx, %edx
	movslq	%eax, %r9
	movq	-88(%rbp), %rax
	divq	%r12
	cmpq	%rdx, %r9
	jb	.L25
.L28:
	imulq	%rax, %r9
	addq	%r9, %rdx
	addq	%rdx, %rax
	cmpq	%rax, %rdx
	jnb	.L26
	movq	-96(%rbp), %rcx
	leaq	(%rcx,%rdx,2), %rdx
	leaq	(%rcx,%rax,2), %r9
	.p2align 4,,10
	.p2align 3
.L27:
	movzwl	(%rdx), %eax
	addq	$2, %rdx
	sarx	%r15d, %eax, %eax
	cltq
	incq	(%rbx,%rax,8)
	cmpq	%r9, %rdx
	jne	.L27
	jmp	.L26
	.p2align 4,,10
	.p2align 3
.L25:
	incq	%rax
	xorl	%edx, %edx
	jmp	.L28
	.p2align 4,,10
	.p2align 3
.L35:
	leaq	-72(%rbp), %rsp
	popq	%rbx
	popq	%rsi
	popq	%rdi
	popq	%r12
	popq	%r13
	popq	%r14
	popq	%r15
	popq	%rbp
	ret
	.seh_handler	__gxx_personality_seh0, @unwind, @except
	.seh_handlerdata
.LLSDA18310:
	.byte	0xff
	.byte	0xff
	.byte	0x1
	.uleb128 .LLSDACSE18310-.LLSDACSB18310
.LLSDACSB18310:
.LLSDACSE18310:
	.text
	.seh_endproc
	.p2align 4
	.def	_ZN9HistogramIyaE10accumulateIaEEvPT_y._omp_fn.0;	.scl	3;	.type	32;	.endef
	.seh_proc	_ZN9HistogramIyaE10accumulateIaEEvPT_y._omp_fn.0
_ZN9HistogramIyaE10accumulateIaEEvPT_y._omp_fn.0:
.LFB18311:
	pushq	%rbp
	.seh_pushreg	%rbp
	pushq	%r13
	.seh_pushreg	%r13
	pushq	%r12
	.seh_pushreg	%r12
	pushq	%rdi
	.seh_pushreg	%rdi
	pushq	%rsi
	.seh_pushreg	%rsi
	pushq	%rbx
	.seh_pushreg	%rbx
	subq	$40, %rsp
	.seh_stackalloc	40
	leaq	128(%rsp), %rbp
	.seh_setframe	%rbp, 128
	.seh_endprologue
	movq	(%rcx), %r12
	movq	16(%rcx), %rdi
	movq	8(%rcx), %rbx
	call	_Z22manage_thread_affinityv
	subq	$2048, %rsp
	xorl	%edx, %edx
	movl	$2048, %r8d
	leaq	32(%rsp), %rsi
	movq	%rsi, %rcx
	call	memset
	testq	%r12, %r12
	jne	.L41
	.p2align 4,,10
	.p2align 3
.L44:
	call	GOMP_atomic_start
	xorl	%eax, %eax
	.p2align 4,,10
	.p2align 3
.L42:
	vmovdqu	(%rbx,%rax), %ymm1
	vpaddq	(%rsi,%rax), %ymm1, %ymm0
	vmovdqu	%ymm0, (%rbx,%rax)
	addq	$32, %rax
	cmpq	$2048, %rax
	jne	.L42
	vzeroupper
	call	GOMP_atomic_end
	jmp	.L49
.L41:
	call	omp_get_num_threads
	movl	%eax, %r13d
	call	omp_get_thread_num
	movslq	%r13d, %r8
	xorl	%edx, %edx
	movslq	%eax, %rcx
	movq	%r12, %rax
	divq	%r8
	movq	%rax, %r12
	cmpq	%rdx, %rcx
	jb	.L43
.L46:
	imulq	%r12, %rcx
	addq	%rcx, %rdx
	addq	%rdx, %r12
	cmpq	%r12, %rdx
	jnb	.L44
	leaq	(%rdi,%rdx), %rax
	addq	%r12, %rdi
	.p2align 4,,10
	.p2align 3
.L45:
	movzbl	(%rax), %edx
	incq	%rax
	incq	(%rsi,%rdx,8)
	cmpq	%rdi, %rax
	jne	.L45
	jmp	.L44
.L43:
	incq	%r12
	xorl	%edx, %edx
	jmp	.L46
.L49:
	leaq	-88(%rbp), %rsp
	popq	%rbx
	popq	%rsi
	popq	%rdi
	popq	%r12
	popq	%r13
	popq	%rbp
	ret
	.seh_handler	__gxx_personality_seh0, @unwind, @except
	.seh_handlerdata
.LLSDA18311:
	.byte	0xff
	.byte	0xff
	.byte	0x1
	.uleb128 .LLSDACSE18311-.LLSDACSB18311
.LLSDACSB18311:
.LLSDACSE18311:
	.text
	.seh_endproc
	.p2align 4
	.def	_ZN9HistogramIysE10accumulateIsEEvPT_y._omp_fn.0;	.scl	3;	.type	32;	.endef
	.seh_proc	_ZN9HistogramIysE10accumulateIsEEvPT_y._omp_fn.0
_ZN9HistogramIysE10accumulateIsEEvPT_y._omp_fn.0:
.LFB18312:
	pushq	%rbp
	.seh_pushreg	%rbp
	pushq	%r15
	.seh_pushreg	%r15
	pushq	%r14
	.seh_pushreg	%r14
	pushq	%r13
	.seh_pushreg	%r13
	pushq	%r12
	.seh_pushreg	%r12
	pushq	%rdi
	.seh_pushreg	%rdi
	pushq	%rsi
	.seh_pushreg	%rsi
	pushq	%rbx
	.seh_pushreg	%rbx
	subq	$56, %rsp
	.seh_stackalloc	56
	leaq	128(%rsp), %rbp
	.seh_setframe	%rbp, 128
	.seh_endprologue
	movq	16(%rcx), %rax
	movl	24(%rcx), %ebx
	movq	8(%rcx), %rsi
	movl	28(%rcx), %r15d
	movq	%rax, -96(%rbp)
	movq	(%rcx), %rax
	movq	%rax, -88(%rbp)
	call	_Z22manage_thread_affinityv
	movl	$1, %edx
	shlx	%ebx, %edx, %edx
	movslq	%edx, %r13
	leaq	15(,%r13,8), %rax
	leaq	-1(%r13), %r14
	andq	$-16, %rax
	call	___chkstk_ms
	subq	%rax, %rsp
	leaq	32(%rsp), %rbx
	movq	%rbx, %rdi
	cmpl	$6, %edx
	jbe	.L63
	leaq	-4(%r13), %rdx
	xorl	%eax, %eax
	vpxor	%xmm0, %xmm0, %xmm0
	shrq	$2, %rdx
	incq	%rdx
	.p2align 4,,10
	.p2align 3
.L52:
	movq	%rax, %r9
	incq	%rax
	salq	$5, %r9
	vmovdqu	%ymm0, (%rbx,%r9)
	cmpq	%rax, %rdx
	ja	.L52
	leaq	0(,%rdx,4), %rax
	salq	$5, %rdx
	addq	%rbx, %rdx
	cmpq	%rax, %r13
	je	.L70
	leaq	1(%rax), %r9
	movq	$0, (%rdx)
	cmpq	%r9, %r14
	jb	.L71
	addq	$2, %rax
	movq	$0, 8(%rdx)
	cmpq	%rax, %r14
	jb	.L72
	movq	$0, 16(%rdx)
	vzeroupper
	jmp	.L54
	.p2align 4,,10
	.p2align 3
.L63:
	xorl	%eax, %eax
	.p2align 4,,10
	.p2align 3
.L51:
	movq	$0, (%rbx,%rax,8)
	incq	%rax
	cmpq	%rax, %r14
	jnb	.L51
	jmp	.L54
	.p2align 4,,10
	.p2align 3
.L70:
	vzeroupper
	jmp	.L54
.L71:
	vzeroupper
	jmp	.L54
.L72:
	vzeroupper
	.p2align 4,,10
	.p2align 3
.L54:
	cmpq	$0, -88(%rbp)
	jne	.L55
	.p2align 4,,10
	.p2align 3
.L60:
	call	GOMP_atomic_start
	cmpq	$2, %r14
	jbe	.L64
	leaq	-4(%r13), %rcx
	xorl	%eax, %eax
	xorl	%edx, %edx
	shrq	$2, %rcx
	incq	%rcx
	.p2align 4,,10
	.p2align 3
.L57:
	vmovdqu	(%rbx,%rax), %ymm1
	vpaddq	(%rsi,%rax), %ymm1, %ymm0
	incq	%rdx
	vmovdqu	%ymm0, (%rsi,%rax)
	addq	$32, %rax
	cmpq	%rcx, %rdx
	jb	.L57
	movq	%rcx, %rax
	leaq	0(,%rcx,4), %rdx
	salq	$5, %rax
	leaq	(%rbx,%rax), %rdi
	addq	%rax, %rsi
	cmpq	%rdx, %r13
	jne	.L73
	vzeroupper
	jmp	.L58
	.p2align 4,,10
	.p2align 3
.L64:
	xorl	%edx, %edx
	jmp	.L56
	.p2align 4,,10
	.p2align 3
.L73:
	vzeroupper
.L56:
	movq	(%rdi), %rax
	addq	%rax, (%rsi)
	leaq	1(%rdx), %rax
	cmpq	%rax, %r14
	jb	.L58
	addq	$2, %rdx
	movq	8(%rdi), %rax
	addq	%rax, 8(%rsi)
	cmpq	%rdx, %r14
	jb	.L58
	movq	16(%rdi), %rax
	addq	%rax, 16(%rsi)
.L58:
	call	GOMP_atomic_end
	jmp	.L69
	.p2align 4,,10
	.p2align 3
.L55:
	call	omp_get_num_threads
	movslq	%eax, %r12
	call	omp_get_thread_num
	xorl	%edx, %edx
	movslq	%eax, %r9
	movq	-88(%rbp), %rax
	divq	%r12
	cmpq	%rdx, %r9
	jb	.L59
.L62:
	imulq	%rax, %r9
	addq	%r9, %rdx
	addq	%rdx, %rax
	cmpq	%rax, %rdx
	jnb	.L60
	movq	-96(%rbp), %rcx
	leaq	(%rcx,%rdx,2), %rdx
	leaq	(%rcx,%rax,2), %r9
	.p2align 4,,10
	.p2align 3
.L61:
	movzwl	(%rdx), %eax
	addq	$2, %rdx
	sarx	%r15d, %eax, %eax
	cltq
	incq	(%rbx,%rax,8)
	cmpq	%r9, %rdx
	jne	.L61
	jmp	.L60
	.p2align 4,,10
	.p2align 3
.L59:
	incq	%rax
	xorl	%edx, %edx
	jmp	.L62
	.p2align 4,,10
	.p2align 3
.L69:
	leaq	-72(%rbp), %rsp
	popq	%rbx
	popq	%rsi
	popq	%rdi
	popq	%r12
	popq	%r13
	popq	%r14
	popq	%r15
	popq	%rbp
	ret
	.seh_handler	__gxx_personality_seh0, @unwind, @except
	.seh_handlerdata
.LLSDA18312:
	.byte	0xff
	.byte	0xff
	.byte	0x1
	.uleb128 .LLSDACSE18312-.LLSDACSB18312
.LLSDACSB18312:
.LLSDACSE18312:
	.text
	.seh_endproc
	.p2align 4
	.def	_ZN9HistogramIjhE10accumulateIhEEvPT_y._omp_fn.0;	.scl	3;	.type	32;	.endef
	.seh_proc	_ZN9HistogramIjhE10accumulateIhEEvPT_y._omp_fn.0
_ZN9HistogramIjhE10accumulateIhEEvPT_y._omp_fn.0:
.LFB18315:
	pushq	%rbp
	.seh_pushreg	%rbp
	pushq	%r13
	.seh_pushreg	%r13
	pushq	%r12
	.seh_pushreg	%r12
	pushq	%rdi
	.seh_pushreg	%rdi
	pushq	%rsi
	.seh_pushreg	%rsi
	pushq	%rbx
	.seh_pushreg	%rbx
	subq	$40, %rsp
	.seh_stackalloc	40
	leaq	128(%rsp), %rbp
	.seh_setframe	%rbp, 128
	.seh_endprologue
	movq	8(%rcx), %r12
	movq	16(%rcx), %rbx
	movq	(%rcx), %rsi
	call	_Z22manage_thread_affinityv
	subq	$1024, %rsp
	xorl	%edx, %edx
	movl	$1024, %r8d
	leaq	32(%rsp), %rdi
	movq	%rdi, %rcx
	call	memset
	testq	%r12, %r12
	jne	.L75
	.p2align 4,,10
	.p2align 3
.L78:
	call	GOMP_atomic_start
	xorl	%eax, %eax
	.p2align 4,,10
	.p2align 3
.L76:
	vmovdqu	(%rbx,%rax), %ymm1
	vpaddd	(%rdi,%rax), %ymm1, %ymm0
	vmovdqu	%ymm0, (%rbx,%rax)
	addq	$32, %rax
	cmpq	$1024, %rax
	jne	.L76
	vzeroupper
	call	GOMP_atomic_end
	jmp	.L83
.L75:
	call	omp_get_num_threads
	movl	%eax, %r13d
	call	omp_get_thread_num
	movslq	%r13d, %r8
	xorl	%edx, %edx
	movslq	%eax, %rcx
	movq	%r12, %rax
	divq	%r8
	movq	%rax, %r12
	cmpq	%rdx, %rcx
	jb	.L77
.L80:
	imulq	%r12, %rcx
	addq	%rcx, %rdx
	addq	%rdx, %r12
	cmpq	%r12, %rdx
	jnb	.L78
	leaq	(%rsi,%rdx), %rax
	addq	%r12, %rsi
	.p2align 4,,10
	.p2align 3
.L79:
	movzbl	(%rax), %edx
	incq	%rax
	incl	(%rdi,%rdx,4)
	cmpq	%rsi, %rax
	jne	.L79
	jmp	.L78
.L77:
	incq	%r12
	xorl	%edx, %edx
	jmp	.L80
.L83:
	leaq	-88(%rbp), %rsp
	popq	%rbx
	popq	%rsi
	popq	%rdi
	popq	%r12
	popq	%r13
	popq	%rbp
	ret
	.seh_handler	__gxx_personality_seh0, @unwind, @except
	.seh_handlerdata
.LLSDA18315:
	.byte	0xff
	.byte	0xff
	.byte	0x1
	.uleb128 .LLSDACSE18315-.LLSDACSB18315
.LLSDACSB18315:
.LLSDACSE18315:
	.text
	.seh_endproc
	.p2align 4
	.def	_ZN9HistogramIjtE10accumulateItEEvPT_y._omp_fn.0;	.scl	3;	.type	32;	.endef
	.seh_proc	_ZN9HistogramIjtE10accumulateItEEvPT_y._omp_fn.0
_ZN9HistogramIjtE10accumulateItEEvPT_y._omp_fn.0:
.LFB18316:
	pushq	%rbp
	.seh_pushreg	%rbp
	pushq	%r15
	.seh_pushreg	%r15
	pushq	%r14
	.seh_pushreg	%r14
	pushq	%r13
	.seh_pushreg	%r13
	pushq	%r12
	.seh_pushreg	%r12
	pushq	%rdi
	.seh_pushreg	%rdi
	pushq	%rsi
	.seh_pushreg	%rsi
	pushq	%rbx
	.seh_pushreg	%rbx
	subq	$56, %rsp
	.seh_stackalloc	56
	leaq	128(%rsp), %rbp
	.seh_setframe	%rbp, 128
	.seh_endprologue
	movq	8(%rcx), %rax
	movl	24(%rcx), %ebx
	movq	16(%rcx), %rsi
	movl	28(%rcx), %r15d
	movq	%rax, -88(%rbp)
	movq	(%rcx), %rax
	movq	%rax, -96(%rbp)
	call	_Z22manage_thread_affinityv
	movl	$1, %edx
	shlx	%ebx, %edx, %edx
	movslq	%edx, %r14
	leaq	15(,%r14,4), %rax
	leaq	-1(%r14), %rdi
	andq	$-16, %rax
	call	___chkstk_ms
	subq	%rax, %rsp
	leaq	32(%rsp), %rbx
	movq	%rbx, %r12
	cmpl	$7, %edx
	jbe	.L97
	leaq	-8(%r14), %rdx
	xorl	%eax, %eax
	vpxor	%xmm0, %xmm0, %xmm0
	shrq	$3, %rdx
	incq	%rdx
	.p2align 4,,10
	.p2align 3
.L86:
	movq	%rax, %r9
	incq	%rax
	salq	$5, %r9
	vmovdqu	%ymm0, (%rbx,%r9)
	cmpq	%rax, %rdx
	ja	.L86
	leaq	0(,%rdx,8), %rax
	salq	$5, %rdx
	addq	%rbx, %rdx
	cmpq	%rax, %r14
	je	.L104
	leaq	1(%rax), %r9
	movl	$0, (%rdx)
	cmpq	%r9, %rdi
	jb	.L105
	leaq	2(%rax), %r9
	movl	$0, 4(%rdx)
	cmpq	%r9, %rdi
	jb	.L106
	leaq	3(%rax), %r9
	movl	$0, 8(%rdx)
	cmpq	%r9, %rdi
	jb	.L107
	leaq	4(%rax), %r9
	movl	$0, 12(%rdx)
	cmpq	%r9, %rdi
	jb	.L108
	leaq	5(%rax), %r9
	movl	$0, 16(%rdx)
	cmpq	%r9, %rdi
	jb	.L109
	addq	$6, %rax
	movl	$0, 20(%rdx)
	cmpq	%rax, %rdi
	jb	.L110
	movl	$0, 24(%rdx)
	vzeroupper
	jmp	.L88
	.p2align 4,,10
	.p2align 3
.L97:
	xorl	%eax, %eax
	.p2align 4,,10
	.p2align 3
.L85:
	movl	$0, (%rbx,%rax,4)
	incq	%rax
	cmpq	%rax, %rdi
	jnb	.L85
	jmp	.L88
	.p2align 4,,10
	.p2align 3
.L104:
	vzeroupper
	jmp	.L88
.L105:
	vzeroupper
	jmp	.L88
.L106:
	vzeroupper
	jmp	.L88
.L107:
	vzeroupper
	jmp	.L88
.L108:
	vzeroupper
	jmp	.L88
.L109:
	vzeroupper
	jmp	.L88
.L110:
	vzeroupper
	.p2align 4,,10
	.p2align 3
.L88:
	cmpq	$0, -88(%rbp)
	jne	.L89
	.p2align 4,,10
	.p2align 3
.L94:
	call	GOMP_atomic_start
	cmpq	$6, %rdi
	jbe	.L98
	leaq	-8(%r14), %rcx
	xorl	%eax, %eax
	xorl	%edx, %edx
	shrq	$3, %rcx
	incq	%rcx
	.p2align 4,,10
	.p2align 3
.L91:
	vmovdqu	(%rbx,%rax), %ymm1
	vpaddd	(%rsi,%rax), %ymm1, %ymm0
	incq	%rdx
	vmovdqu	%ymm0, (%rsi,%rax)
	addq	$32, %rax
	cmpq	%rcx, %rdx
	jb	.L91
	movq	%rcx, %rax
	leaq	0(,%rcx,8), %rdx
	salq	$5, %rax
	leaq	(%rbx,%rax), %r12
	addq	%rax, %rsi
	cmpq	%rdx, %r14
	jne	.L111
	vzeroupper
	jmp	.L92
	.p2align 4,,10
	.p2align 3
.L98:
	xorl	%edx, %edx
	jmp	.L90
	.p2align 4,,10
	.p2align 3
.L111:
	vzeroupper
.L90:
	movl	(%r12), %eax
	addl	%eax, (%rsi)
	leaq	1(%rdx), %rax
	cmpq	%rax, %rdi
	jb	.L92
	movl	4(%r12), %eax
	addl	%eax, 4(%rsi)
	leaq	2(%rdx), %rax
	cmpq	%rax, %rdi
	jb	.L92
	movl	8(%r12), %eax
	addl	%eax, 8(%rsi)
	leaq	3(%rdx), %rax
	cmpq	%rax, %rdi
	jb	.L92
	movl	12(%r12), %eax
	addl	%eax, 12(%rsi)
	leaq	4(%rdx), %rax
	cmpq	%rax, %rdi
	jb	.L92
	movl	16(%r12), %eax
	addl	%eax, 16(%rsi)
	leaq	5(%rdx), %rax
	cmpq	%rax, %rdi
	jb	.L92
	addq	$6, %rdx
	movl	20(%r12), %eax
	addl	%eax, 20(%rsi)
	cmpq	%rdx, %rdi
	jb	.L92
	movl	24(%r12), %eax
	addl	%eax, 24(%rsi)
.L92:
	call	GOMP_atomic_end
	jmp	.L103
	.p2align 4,,10
	.p2align 3
.L89:
	call	omp_get_num_threads
	movslq	%eax, %r13
	call	omp_get_thread_num
	xorl	%edx, %edx
	movslq	%eax, %r9
	movq	-88(%rbp), %rax
	divq	%r13
	cmpq	%rdx, %r9
	jb	.L93
.L96:
	imulq	%rax, %r9
	addq	%r9, %rdx
	addq	%rdx, %rax
	cmpq	%rax, %rdx
	jnb	.L94
	movq	-96(%rbp), %rcx
	leaq	(%rcx,%rdx,2), %rdx
	leaq	(%rcx,%rax,2), %r9
	.p2align 4,,10
	.p2align 3
.L95:
	movzwl	(%rdx), %eax
	addq	$2, %rdx
	sarx	%r15d, %eax, %eax
	cltq
	incl	(%rbx,%rax,4)
	cmpq	%r9, %rdx
	jne	.L95
	jmp	.L94
	.p2align 4,,10
	.p2align 3
.L93:
	incq	%rax
	xorl	%edx, %edx
	jmp	.L96
	.p2align 4,,10
	.p2align 3
.L103:
	leaq	-72(%rbp), %rsp
	popq	%rbx
	popq	%rsi
	popq	%rdi
	popq	%r12
	popq	%r13
	popq	%r14
	popq	%r15
	popq	%rbp
	ret
	.seh_handler	__gxx_personality_seh0, @unwind, @except
	.seh_handlerdata
.LLSDA18316:
	.byte	0xff
	.byte	0xff
	.byte	0x1
	.uleb128 .LLSDACSE18316-.LLSDACSB18316
.LLSDACSB18316:
.LLSDACSE18316:
	.text
	.seh_endproc
	.p2align 4
	.def	_ZN9HistogramIjaE10accumulateIaEEvPT_y._omp_fn.0;	.scl	3;	.type	32;	.endef
	.seh_proc	_ZN9HistogramIjaE10accumulateIaEEvPT_y._omp_fn.0
_ZN9HistogramIjaE10accumulateIaEEvPT_y._omp_fn.0:
.LFB18317:
	pushq	%rbp
	.seh_pushreg	%rbp
	pushq	%r13
	.seh_pushreg	%r13
	pushq	%r12
	.seh_pushreg	%r12
	pushq	%rdi
	.seh_pushreg	%rdi
	pushq	%rsi
	.seh_pushreg	%rsi
	pushq	%rbx
	.seh_pushreg	%rbx
	subq	$40, %rsp
	.seh_stackalloc	40
	leaq	128(%rsp), %rbp
	.seh_setframe	%rbp, 128
	.seh_endprologue
	movq	(%rcx), %r12
	movq	16(%rcx), %rsi
	movq	8(%rcx), %rbx
	call	_Z22manage_thread_affinityv
	subq	$1024, %rsp
	xorl	%edx, %edx
	movl	$1024, %r8d
	leaq	32(%rsp), %rdi
	movq	%rdi, %rcx
	call	memset
	testq	%r12, %r12
	jne	.L113
	.p2align 4,,10
	.p2align 3
.L116:
	call	GOMP_atomic_start
	xorl	%eax, %eax
	.p2align 4,,10
	.p2align 3
.L114:
	vmovdqu	(%rbx,%rax), %ymm1
	vpaddd	(%rdi,%rax), %ymm1, %ymm0
	vmovdqu	%ymm0, (%rbx,%rax)
	addq	$32, %rax
	cmpq	$1024, %rax
	jne	.L114
	vzeroupper
	call	GOMP_atomic_end
	jmp	.L121
.L113:
	call	omp_get_num_threads
	movl	%eax, %r13d
	call	omp_get_thread_num
	movslq	%r13d, %r8
	xorl	%edx, %edx
	movslq	%eax, %rcx
	movq	%r12, %rax
	divq	%r8
	movq	%rax, %r12
	cmpq	%rdx, %rcx
	jb	.L115
.L118:
	imulq	%r12, %rcx
	addq	%rcx, %rdx
	addq	%rdx, %r12
	cmpq	%r12, %rdx
	jnb	.L116
	leaq	(%rsi,%rdx), %rax
	addq	%r12, %rsi
	.p2align 4,,10
	.p2align 3
.L117:
	movzbl	(%rax), %edx
	incq	%rax
	incl	(%rdi,%rdx,4)
	cmpq	%rsi, %rax
	jne	.L117
	jmp	.L116
.L115:
	incq	%r12
	xorl	%edx, %edx
	jmp	.L118
.L121:
	leaq	-88(%rbp), %rsp
	popq	%rbx
	popq	%rsi
	popq	%rdi
	popq	%r12
	popq	%r13
	popq	%rbp
	ret
	.seh_handler	__gxx_personality_seh0, @unwind, @except
	.seh_handlerdata
.LLSDA18317:
	.byte	0xff
	.byte	0xff
	.byte	0x1
	.uleb128 .LLSDACSE18317-.LLSDACSB18317
.LLSDACSB18317:
.LLSDACSE18317:
	.text
	.seh_endproc
	.p2align 4
	.def	_ZN9HistogramIjsE10accumulateIsEEvPT_y._omp_fn.0;	.scl	3;	.type	32;	.endef
	.seh_proc	_ZN9HistogramIjsE10accumulateIsEEvPT_y._omp_fn.0
_ZN9HistogramIjsE10accumulateIsEEvPT_y._omp_fn.0:
.LFB18318:
	pushq	%rbp
	.seh_pushreg	%rbp
	pushq	%r15
	.seh_pushreg	%r15
	pushq	%r14
	.seh_pushreg	%r14
	pushq	%r13
	.seh_pushreg	%r13
	pushq	%r12
	.seh_pushreg	%r12
	pushq	%rdi
	.seh_pushreg	%rdi
	pushq	%rsi
	.seh_pushreg	%rsi
	pushq	%rbx
	.seh_pushreg	%rbx
	subq	$56, %rsp
	.seh_stackalloc	56
	leaq	128(%rsp), %rbp
	.seh_setframe	%rbp, 128
	.seh_endprologue
	movq	16(%rcx), %rax
	movl	24(%rcx), %ebx
	movq	8(%rcx), %rsi
	movl	28(%rcx), %r15d
	movq	%rax, -96(%rbp)
	movq	(%rcx), %rax
	movq	%rax, -88(%rbp)
	call	_Z22manage_thread_affinityv
	movl	$1, %edx
	shlx	%ebx, %edx, %edx
	movslq	%edx, %r14
	leaq	15(,%r14,4), %rax
	leaq	-1(%r14), %rdi
	andq	$-16, %rax
	call	___chkstk_ms
	subq	%rax, %rsp
	leaq	32(%rsp), %rbx
	movq	%rbx, %r12
	cmpl	$7, %edx
	jbe	.L135
	leaq	-8(%r14), %rdx
	xorl	%eax, %eax
	vpxor	%xmm0, %xmm0, %xmm0
	shrq	$3, %rdx
	incq	%rdx
	.p2align 4,,10
	.p2align 3
.L124:
	movq	%rax, %r9
	incq	%rax
	salq	$5, %r9
	vmovdqu	%ymm0, (%rbx,%r9)
	cmpq	%rax, %rdx
	ja	.L124
	leaq	0(,%rdx,8), %rax
	salq	$5, %rdx
	addq	%rbx, %rdx
	cmpq	%rax, %r14
	je	.L142
	leaq	1(%rax), %r9
	movl	$0, (%rdx)
	cmpq	%r9, %rdi
	jb	.L143
	leaq	2(%rax), %r9
	movl	$0, 4(%rdx)
	cmpq	%r9, %rdi
	jb	.L144
	leaq	3(%rax), %r9
	movl	$0, 8(%rdx)
	cmpq	%r9, %rdi
	jb	.L145
	leaq	4(%rax), %r9
	movl	$0, 12(%rdx)
	cmpq	%r9, %rdi
	jb	.L146
	leaq	5(%rax), %r9
	movl	$0, 16(%rdx)
	cmpq	%r9, %rdi
	jb	.L147
	addq	$6, %rax
	movl	$0, 20(%rdx)
	cmpq	%rax, %rdi
	jb	.L148
	movl	$0, 24(%rdx)
	vzeroupper
	jmp	.L126
	.p2align 4,,10
	.p2align 3
.L135:
	xorl	%eax, %eax
	.p2align 4,,10
	.p2align 3
.L123:
	movl	$0, (%rbx,%rax,4)
	incq	%rax
	cmpq	%rax, %rdi
	jnb	.L123
	jmp	.L126
	.p2align 4,,10
	.p2align 3
.L142:
	vzeroupper
	jmp	.L126
.L143:
	vzeroupper
	jmp	.L126
.L144:
	vzeroupper
	jmp	.L126
.L145:
	vzeroupper
	jmp	.L126
.L146:
	vzeroupper
	jmp	.L126
.L147:
	vzeroupper
	jmp	.L126
.L148:
	vzeroupper
	.p2align 4,,10
	.p2align 3
.L126:
	cmpq	$0, -88(%rbp)
	jne	.L127
	.p2align 4,,10
	.p2align 3
.L132:
	call	GOMP_atomic_start
	cmpq	$6, %rdi
	jbe	.L136
	leaq	-8(%r14), %rcx
	xorl	%eax, %eax
	xorl	%edx, %edx
	shrq	$3, %rcx
	incq	%rcx
	.p2align 4,,10
	.p2align 3
.L129:
	vmovdqu	(%rbx,%rax), %ymm1
	vpaddd	(%rsi,%rax), %ymm1, %ymm0
	incq	%rdx
	vmovdqu	%ymm0, (%rsi,%rax)
	addq	$32, %rax
	cmpq	%rcx, %rdx
	jb	.L129
	movq	%rcx, %rax
	leaq	0(,%rcx,8), %rdx
	salq	$5, %rax
	leaq	(%rbx,%rax), %r12
	addq	%rax, %rsi
	cmpq	%rdx, %r14
	jne	.L149
	vzeroupper
	jmp	.L130
	.p2align 4,,10
	.p2align 3
.L136:
	xorl	%edx, %edx
	jmp	.L128
	.p2align 4,,10
	.p2align 3
.L149:
	vzeroupper
.L128:
	movl	(%r12), %eax
	addl	%eax, (%rsi)
	leaq	1(%rdx), %rax
	cmpq	%rax, %rdi
	jb	.L130
	movl	4(%r12), %eax
	addl	%eax, 4(%rsi)
	leaq	2(%rdx), %rax
	cmpq	%rax, %rdi
	jb	.L130
	movl	8(%r12), %eax
	addl	%eax, 8(%rsi)
	leaq	3(%rdx), %rax
	cmpq	%rax, %rdi
	jb	.L130
	movl	12(%r12), %eax
	addl	%eax, 12(%rsi)
	leaq	4(%rdx), %rax
	cmpq	%rax, %rdi
	jb	.L130
	movl	16(%r12), %eax
	addl	%eax, 16(%rsi)
	leaq	5(%rdx), %rax
	cmpq	%rax, %rdi
	jb	.L130
	addq	$6, %rdx
	movl	20(%r12), %eax
	addl	%eax, 20(%rsi)
	cmpq	%rdx, %rdi
	jb	.L130
	movl	24(%r12), %eax
	addl	%eax, 24(%rsi)
.L130:
	call	GOMP_atomic_end
	jmp	.L141
	.p2align 4,,10
	.p2align 3
.L127:
	call	omp_get_num_threads
	movslq	%eax, %r13
	call	omp_get_thread_num
	xorl	%edx, %edx
	movslq	%eax, %r9
	movq	-88(%rbp), %rax
	divq	%r13
	cmpq	%rdx, %r9
	jb	.L131
.L134:
	imulq	%rax, %r9
	addq	%r9, %rdx
	addq	%rdx, %rax
	cmpq	%rax, %rdx
	jnb	.L132
	movq	-96(%rbp), %rcx
	leaq	(%rcx,%rdx,2), %rdx
	leaq	(%rcx,%rax,2), %r9
	.p2align 4,,10
	.p2align 3
.L133:
	movzwl	(%rdx), %eax
	addq	$2, %rdx
	sarx	%r15d, %eax, %eax
	cltq
	incl	(%rbx,%rax,4)
	cmpq	%r9, %rdx
	jne	.L133
	jmp	.L132
	.p2align 4,,10
	.p2align 3
.L131:
	incq	%rax
	xorl	%edx, %edx
	jmp	.L134
	.p2align 4,,10
	.p2align 3
.L141:
	leaq	-72(%rbp), %rsp
	popq	%rbx
	popq	%rsi
	popq	%rdi
	popq	%r12
	popq	%r13
	popq	%r14
	popq	%r15
	popq	%rbp
	ret
	.seh_handler	__gxx_personality_seh0, @unwind, @except
	.seh_handlerdata
.LLSDA18318:
	.byte	0xff
	.byte	0xff
	.byte	0x1
	.uleb128 .LLSDACSE18318-.LLSDACSB18318
.LLSDACSB18318:
.LLSDACSE18318:
	.text
	.seh_endproc
	.p2align 4
	.def	_ZN9HistogramIthE10accumulateIhEEvPT_y._omp_fn.0;	.scl	3;	.type	32;	.endef
	.seh_proc	_ZN9HistogramIthE10accumulateIhEEvPT_y._omp_fn.0
_ZN9HistogramIthE10accumulateIhEEvPT_y._omp_fn.0:
.LFB18321:
	pushq	%rbp
	.seh_pushreg	%rbp
	pushq	%r13
	.seh_pushreg	%r13
	pushq	%r12
	.seh_pushreg	%r12
	pushq	%rdi
	.seh_pushreg	%rdi
	pushq	%rsi
	.seh_pushreg	%rsi
	pushq	%rbx
	.seh_pushreg	%rbx
	subq	$40, %rsp
	.seh_stackalloc	40
	leaq	128(%rsp), %rbp
	.seh_setframe	%rbp, 128
	.seh_endprologue
	movq	16(%rcx), %rbx
	movq	8(%rcx), %r13
	movq	(%rcx), %rsi
	call	_Z22manage_thread_affinityv
	subq	$512, %rsp
	movl	$64, %ecx
	xorl	%eax, %eax
	leaq	32(%rsp), %r12
	movq	%r12, %rdi
	rep stosq
	testq	%r13, %r13
	jne	.L151
	.p2align 4,,10
	.p2align 3
.L153:
	call	GOMP_atomic_start
	vmovdqu	(%rbx), %ymm1
	vpaddw	(%r12), %ymm1, %ymm0
	vmovdqu	32(%r12), %ymm2
	vmovdqu	64(%r12), %ymm3
	vmovdqu	%ymm0, (%rbx)
	vpaddw	32(%rbx), %ymm2, %ymm0
	vmovdqu	96(%rbx), %ymm4
	vmovdqu	128(%rbx), %ymm5
	vmovdqu	160(%rbx), %ymm1
	vmovdqu	%ymm0, 32(%rbx)
	vpaddw	64(%rbx), %ymm3, %ymm0
	vmovdqu	192(%rbx), %ymm2
	vmovdqu	224(%rbx), %ymm3
	vmovdqu	%ymm0, 64(%rbx)
	vpaddw	96(%r12), %ymm4, %ymm0
	vmovdqu	256(%rbx), %ymm4
	vmovdqu	%ymm0, 96(%rbx)
	vpaddw	128(%r12), %ymm5, %ymm0
	vmovdqu	288(%rbx), %ymm5
	vmovdqu	%ymm0, 128(%rbx)
	vpaddw	160(%r12), %ymm1, %ymm0
	vmovdqu	320(%rbx), %ymm1
	vmovdqu	%ymm0, 160(%rbx)
	vpaddw	192(%r12), %ymm2, %ymm0
	vmovdqu	%ymm0, 192(%rbx)
	vpaddw	224(%r12), %ymm3, %ymm0
	vmovdqu	%ymm0, 224(%rbx)
	vpaddw	256(%r12), %ymm4, %ymm0
	vmovdqu	%ymm0, 256(%rbx)
	vpaddw	288(%r12), %ymm5, %ymm0
	vmovdqu	%ymm0, 288(%rbx)
	vpaddw	320(%r12), %ymm1, %ymm0
	vmovdqu	%ymm0, 320(%rbx)
	vmovdqu	352(%rbx), %ymm2
	vpaddw	352(%r12), %ymm2, %ymm0
	vmovdqu	384(%rbx), %ymm3
	vmovdqu	416(%rbx), %ymm4
	vmovdqu	%ymm0, 352(%rbx)
	vmovdqu	448(%rbx), %ymm5
	vpaddw	384(%r12), %ymm3, %ymm0
	vmovdqu	%ymm0, 384(%rbx)
	vpaddw	416(%r12), %ymm4, %ymm0
	vmovdqu	%ymm0, 416(%rbx)
	vpaddw	448(%r12), %ymm5, %ymm0
	vmovdqu	%ymm0, 448(%rbx)
	vmovdqu	480(%r12), %ymm0
	vpaddw	480(%rbx), %ymm0, %ymm0
	vmovdqu	%ymm0, 480(%rbx)
	vzeroupper
	call	GOMP_atomic_end
	jmp	.L157
.L151:
	call	omp_get_num_threads
	movl	%eax, %edi
	call	omp_get_thread_num
	movslq	%edi, %r8
	xorl	%edx, %edx
	movslq	%eax, %rcx
	movq	%r13, %rax
	divq	%r8
	movq	%rax, %r13
	cmpq	%rdx, %rcx
	jb	.L152
.L155:
	imulq	%r13, %rcx
	addq	%rcx, %rdx
	addq	%rdx, %r13
	cmpq	%r13, %rdx
	jnb	.L153
	leaq	(%rsi,%rdx), %rax
	addq	%r13, %rsi
	.p2align 4,,10
	.p2align 3
.L154:
	movzbl	(%rax), %edx
	incq	%rax
	incw	(%r12,%rdx,2)
	cmpq	%rsi, %rax
	jne	.L154
	jmp	.L153
.L152:
	incq	%r13
	xorl	%edx, %edx
	jmp	.L155
	.p2align 4,,10
	.p2align 3
.L157:
	leaq	-88(%rbp), %rsp
	popq	%rbx
	popq	%rsi
	popq	%rdi
	popq	%r12
	popq	%r13
	popq	%rbp
	ret
	.seh_handler	__gxx_personality_seh0, @unwind, @except
	.seh_handlerdata
.LLSDA18321:
	.byte	0xff
	.byte	0xff
	.byte	0x1
	.uleb128 .LLSDACSE18321-.LLSDACSB18321
.LLSDACSB18321:
.LLSDACSE18321:
	.text
	.seh_endproc
	.p2align 4
	.def	_ZN9HistogramIttE10accumulateItEEvPT_y._omp_fn.0;	.scl	3;	.type	32;	.endef
	.seh_proc	_ZN9HistogramIttE10accumulateItEEvPT_y._omp_fn.0
_ZN9HistogramIttE10accumulateItEEvPT_y._omp_fn.0:
.LFB18322:
	pushq	%rbp
	.seh_pushreg	%rbp
	pushq	%r15
	.seh_pushreg	%r15
	pushq	%r14
	.seh_pushreg	%r14
	pushq	%r13
	.seh_pushreg	%r13
	pushq	%r12
	.seh_pushreg	%r12
	pushq	%rdi
	.seh_pushreg	%rdi
	pushq	%rsi
	.seh_pushreg	%rsi
	pushq	%rbx
	.seh_pushreg	%rbx
	subq	$56, %rsp
	.seh_stackalloc	56
	leaq	128(%rsp), %rbp
	.seh_setframe	%rbp, 128
	.seh_endprologue
	movq	8(%rcx), %rax
	movl	24(%rcx), %esi
	movq	16(%rcx), %rbx
	movl	28(%rcx), %r15d
	movq	%rax, -88(%rbp)
	movq	(%rcx), %rax
	movq	%rax, -96(%rbp)
	call	_Z22manage_thread_affinityv
	movl	$1, %edx
	shlx	%esi, %edx, %edx
	movslq	%edx, %r12
	leaq	15(%r12,%r12), %rax
	leaq	-1(%r12), %rdi
	andq	$-16, %rax
	call	___chkstk_ms
	subq	%rax, %rsp
	leaq	32(%rsp), %rsi
	movq	%rsi, %r13
	cmpl	$15, %edx
	jbe	.L171
	leaq	-16(%r12), %rdx
	xorl	%eax, %eax
	vpxor	%xmm0, %xmm0, %xmm0
	shrq	$4, %rdx
	incq	%rdx
	.p2align 4,,10
	.p2align 3
.L160:
	movq	%rax, %r9
	incq	%rax
	salq	$5, %r9
	vmovdqu	%ymm0, (%rsi,%r9)
	cmpq	%rax, %rdx
	ja	.L160
	movq	%rdx, %rax
	salq	$5, %rdx
	salq	$4, %rax
	addq	%rsi, %rdx
	cmpq	%rax, %r12
	je	.L178
	xorl	%r9d, %r9d
	movw	%r9w, (%rdx)
	leaq	1(%rax), %r9
	cmpq	%r9, %rdi
	jb	.L179
	xorl	%r8d, %r8d
	leaq	2(%rax), %r9
	movw	%r8w, 2(%rdx)
	cmpq	%r9, %rdi
	jb	.L180
	xorl	%ecx, %ecx
	leaq	3(%rax), %r9
	movw	%cx, 4(%rdx)
	cmpq	%r9, %rdi
	jb	.L181
	xorl	%r14d, %r14d
	leaq	4(%rax), %r9
	movw	%r14w, 6(%rdx)
	cmpq	%r9, %rdi
	jb	.L182
	xorl	%r11d, %r11d
	leaq	5(%rax), %r9
	movw	%r11w, 8(%rdx)
	cmpq	%r9, %rdi
	jb	.L183
	xorl	%r10d, %r10d
	leaq	6(%rax), %r9
	movw	%r10w, 10(%rdx)
	cmpq	%r9, %rdi
	jb	.L184
	xorl	%r9d, %r9d
	movw	%r9w, 12(%rdx)
	leaq	7(%rax), %r9
	cmpq	%r9, %rdi
	jb	.L185
	xorl	%r8d, %r8d
	leaq	8(%rax), %r9
	movw	%r8w, 14(%rdx)
	cmpq	%r9, %rdi
	jb	.L186
	xorl	%ecx, %ecx
	leaq	9(%rax), %r9
	movw	%cx, 16(%rdx)
	cmpq	%r9, %rdi
	jb	.L187
	xorl	%r14d, %r14d
	leaq	10(%rax), %r9
	movw	%r14w, 18(%rdx)
	cmpq	%r9, %rdi
	jb	.L188
	xorl	%r11d, %r11d
	leaq	11(%rax), %r9
	movw	%r11w, 20(%rdx)
	cmpq	%r9, %rdi
	jb	.L189
	xorl	%r10d, %r10d
	leaq	12(%rax), %r9
	movw	%r10w, 22(%rdx)
	cmpq	%r9, %rdi
	jb	.L190
	xorl	%r9d, %r9d
	movw	%r9w, 24(%rdx)
	leaq	13(%rax), %r9
	cmpq	%r9, %rdi
	jb	.L191
	xorl	%r8d, %r8d
	addq	$14, %rax
	movw	%r8w, 26(%rdx)
	cmpq	%rax, %rdi
	jb	.L192
	xorl	%ecx, %ecx
	movw	%cx, 28(%rdx)
	vzeroupper
	jmp	.L162
	.p2align 4,,10
	.p2align 3
.L171:
	xorl	%eax, %eax
	.p2align 4,,10
	.p2align 3
.L159:
	xorl	%edx, %edx
	movw	%dx, (%rsi,%rax,2)
	incq	%rax
	cmpq	%rax, %rdi
	jnb	.L159
	jmp	.L162
.L178:
	vzeroupper
	jmp	.L162
.L179:
	vzeroupper
	jmp	.L162
.L180:
	vzeroupper
	jmp	.L162
.L181:
	vzeroupper
	jmp	.L162
.L182:
	vzeroupper
	jmp	.L162
.L183:
	vzeroupper
	jmp	.L162
.L184:
	vzeroupper
	jmp	.L162
.L185:
	vzeroupper
	jmp	.L162
.L186:
	vzeroupper
	jmp	.L162
.L187:
	vzeroupper
	jmp	.L162
.L188:
	vzeroupper
	jmp	.L162
.L189:
	vzeroupper
	jmp	.L162
.L190:
	vzeroupper
	jmp	.L162
.L191:
	vzeroupper
	jmp	.L162
.L192:
	vzeroupper
	.p2align 4,,10
	.p2align 3
.L162:
	cmpq	$0, -88(%rbp)
	jne	.L163
	.p2align 4,,10
	.p2align 3
.L168:
	call	GOMP_atomic_start
	cmpq	$14, %rdi
	jbe	.L172
	leaq	-16(%r12), %r8
	xorl	%eax, %eax
	xorl	%edx, %edx
	shrq	$4, %r8
	incq	%r8
	.p2align 4,,10
	.p2align 3
.L165:
	vmovdqu	(%rsi,%rax), %ymm1
	vpaddw	(%rbx,%rax), %ymm1, %ymm0
	incq	%rdx
	vmovdqu	%ymm0, (%rbx,%rax)
	addq	$32, %rax
	cmpq	%r8, %rdx
	jb	.L165
	movq	%r8, %rax
	salq	$5, %r8
	salq	$4, %rax
	leaq	(%rsi,%r8), %r13
	addq	%r8, %rbx
	cmpq	%rax, %r12
	jne	.L193
	vzeroupper
	jmp	.L166
	.p2align 4,,10
	.p2align 3
.L172:
	xorl	%eax, %eax
	jmp	.L164
	.p2align 4,,10
	.p2align 3
.L193:
	vzeroupper
.L164:
	movzwl	0(%r13), %edx
	addw	%dx, (%rbx)
	leaq	1(%rax), %rdx
	cmpq	%rdx, %rdi
	jb	.L166
	movzwl	2(%r13), %edx
	addw	%dx, 2(%rbx)
	leaq	2(%rax), %rdx
	cmpq	%rdx, %rdi
	jb	.L166
	movzwl	4(%r13), %edx
	addw	%dx, 4(%rbx)
	leaq	3(%rax), %rdx
	cmpq	%rdx, %rdi
	jb	.L166
	movzwl	6(%r13), %edx
	addw	%dx, 6(%rbx)
	leaq	4(%rax), %rdx
	cmpq	%rdx, %rdi
	jb	.L166
	movzwl	8(%r13), %edx
	addw	%dx, 8(%rbx)
	leaq	5(%rax), %rdx
	cmpq	%rdx, %rdi
	jb	.L166
	movzwl	10(%r13), %edx
	addw	%dx, 10(%rbx)
	leaq	6(%rax), %rdx
	cmpq	%rdx, %rdi
	jb	.L166
	movzwl	12(%r13), %edx
	addw	%dx, 12(%rbx)
	leaq	7(%rax), %rdx
	cmpq	%rdx, %rdi
	jb	.L166
	movzwl	14(%r13), %edx
	addw	%dx, 14(%rbx)
	leaq	8(%rax), %rdx
	cmpq	%rdx, %rdi
	jb	.L166
	movzwl	16(%r13), %edx
	addw	%dx, 16(%rbx)
	leaq	9(%rax), %rdx
	cmpq	%rdx, %rdi
	jb	.L166
	movzwl	18(%r13), %edx
	addw	%dx, 18(%rbx)
	leaq	10(%rax), %rdx
	cmpq	%rdx, %rdi
	jb	.L166
	movzwl	20(%r13), %edx
	addw	%dx, 20(%rbx)
	leaq	11(%rax), %rdx
	cmpq	%rdx, %rdi
	jb	.L166
	movzwl	22(%r13), %edx
	addw	%dx, 22(%rbx)
	leaq	12(%rax), %rdx
	cmpq	%rdx, %rdi
	jb	.L166
	movzwl	24(%r13), %edx
	addw	%dx, 24(%rbx)
	leaq	13(%rax), %rdx
	cmpq	%rdx, %rdi
	jb	.L166
	addq	$14, %rax
	movzwl	26(%r13), %edx
	addw	%dx, 26(%rbx)
	cmpq	%rax, %rdi
	jb	.L166
	movzwl	28(%r13), %eax
	addw	%ax, 28(%rbx)
	.p2align 4,,10
	.p2align 3
.L166:
	call	GOMP_atomic_end
	jmp	.L177
	.p2align 4,,10
	.p2align 3
.L163:
	call	omp_get_num_threads
	movslq	%eax, %r14
	call	omp_get_thread_num
	xorl	%edx, %edx
	movslq	%eax, %r9
	movq	-88(%rbp), %rax
	divq	%r14
	cmpq	%rdx, %r9
	jb	.L167
.L170:
	imulq	%rax, %r9
	addq	%r9, %rdx
	addq	%rdx, %rax
	cmpq	%rax, %rdx
	jnb	.L168
	movq	-96(%rbp), %rcx
	leaq	(%rcx,%rdx,2), %rdx
	leaq	(%rcx,%rax,2), %r9
	.p2align 4,,10
	.p2align 3
.L169:
	movzwl	(%rdx), %eax
	addq	$2, %rdx
	sarx	%r15d, %eax, %eax
	cltq
	incw	(%rsi,%rax,2)
	cmpq	%r9, %rdx
	jne	.L169
	jmp	.L168
	.p2align 4,,10
	.p2align 3
.L167:
	incq	%rax
	xorl	%edx, %edx
	jmp	.L170
	.p2align 4,,10
	.p2align 3
.L177:
	leaq	-72(%rbp), %rsp
	popq	%rbx
	popq	%rsi
	popq	%rdi
	popq	%r12
	popq	%r13
	popq	%r14
	popq	%r15
	popq	%rbp
	ret
	.seh_handler	__gxx_personality_seh0, @unwind, @except
	.seh_handlerdata
.LLSDA18322:
	.byte	0xff
	.byte	0xff
	.byte	0x1
	.uleb128 .LLSDACSE18322-.LLSDACSB18322
.LLSDACSB18322:
.LLSDACSE18322:
	.text
	.seh_endproc
	.p2align 4
	.def	_ZN9HistogramItaE10accumulateIaEEvPT_y._omp_fn.0;	.scl	3;	.type	32;	.endef
	.seh_proc	_ZN9HistogramItaE10accumulateIaEEvPT_y._omp_fn.0
_ZN9HistogramItaE10accumulateIaEEvPT_y._omp_fn.0:
.LFB18323:
	pushq	%rbp
	.seh_pushreg	%rbp
	pushq	%r13
	.seh_pushreg	%r13
	pushq	%r12
	.seh_pushreg	%r12
	pushq	%rdi
	.seh_pushreg	%rdi
	pushq	%rsi
	.seh_pushreg	%rsi
	pushq	%rbx
	.seh_pushreg	%rbx
	subq	$40, %rsp
	.seh_stackalloc	40
	leaq	128(%rsp), %rbp
	.seh_setframe	%rbp, 128
	.seh_endprologue
	movq	16(%rcx), %rsi
	movq	8(%rcx), %rbx
	movq	(%rcx), %r13
	call	_Z22manage_thread_affinityv
	subq	$512, %rsp
	movl	$64, %ecx
	xorl	%eax, %eax
	leaq	32(%rsp), %r12
	movq	%r12, %rdi
	rep stosq
	testq	%r13, %r13
	jne	.L195
	.p2align 4,,10
	.p2align 3
.L197:
	call	GOMP_atomic_start
	vmovdqu	(%rbx), %ymm1
	vpaddw	(%r12), %ymm1, %ymm0
	vmovdqu	32(%r12), %ymm2
	vmovdqu	64(%r12), %ymm3
	vmovdqu	%ymm0, (%rbx)
	vpaddw	32(%rbx), %ymm2, %ymm0
	vmovdqu	96(%rbx), %ymm4
	vmovdqu	128(%rbx), %ymm5
	vmovdqu	160(%rbx), %ymm1
	vmovdqu	%ymm0, 32(%rbx)
	vpaddw	64(%rbx), %ymm3, %ymm0
	vmovdqu	192(%rbx), %ymm2
	vmovdqu	224(%rbx), %ymm3
	vmovdqu	%ymm0, 64(%rbx)
	vpaddw	96(%r12), %ymm4, %ymm0
	vmovdqu	256(%rbx), %ymm4
	vmovdqu	%ymm0, 96(%rbx)
	vpaddw	128(%r12), %ymm5, %ymm0
	vmovdqu	288(%rbx), %ymm5
	vmovdqu	%ymm0, 128(%rbx)
	vpaddw	160(%r12), %ymm1, %ymm0
	vmovdqu	320(%rbx), %ymm1
	vmovdqu	%ymm0, 160(%rbx)
	vpaddw	192(%r12), %ymm2, %ymm0
	vmovdqu	%ymm0, 192(%rbx)
	vpaddw	224(%r12), %ymm3, %ymm0
	vmovdqu	%ymm0, 224(%rbx)
	vpaddw	256(%r12), %ymm4, %ymm0
	vmovdqu	%ymm0, 256(%rbx)
	vpaddw	288(%r12), %ymm5, %ymm0
	vmovdqu	%ymm0, 288(%rbx)
	vpaddw	320(%r12), %ymm1, %ymm0
	vmovdqu	%ymm0, 320(%rbx)
	vmovdqu	352(%rbx), %ymm2
	vpaddw	352(%r12), %ymm2, %ymm0
	vmovdqu	384(%rbx), %ymm3
	vmovdqu	416(%rbx), %ymm4
	vmovdqu	%ymm0, 352(%rbx)
	vmovdqu	448(%rbx), %ymm5
	vpaddw	384(%r12), %ymm3, %ymm0
	vmovdqu	%ymm0, 384(%rbx)
	vpaddw	416(%r12), %ymm4, %ymm0
	vmovdqu	%ymm0, 416(%rbx)
	vpaddw	448(%r12), %ymm5, %ymm0
	vmovdqu	%ymm0, 448(%rbx)
	vmovdqu	480(%r12), %ymm0
	vpaddw	480(%rbx), %ymm0, %ymm0
	vmovdqu	%ymm0, 480(%rbx)
	vzeroupper
	call	GOMP_atomic_end
	jmp	.L201
.L195:
	call	omp_get_num_threads
	movl	%eax, %edi
	call	omp_get_thread_num
	movslq	%edi, %r8
	xorl	%edx, %edx
	movslq	%eax, %rcx
	movq	%r13, %rax
	divq	%r8
	movq	%rax, %r13
	cmpq	%rdx, %rcx
	jb	.L196
.L199:
	imulq	%r13, %rcx
	addq	%rcx, %rdx
	addq	%rdx, %r13
	cmpq	%r13, %rdx
	jnb	.L197
	leaq	(%rsi,%rdx), %rax
	addq	%r13, %rsi
	.p2align 4,,10
	.p2align 3
.L198:
	movzbl	(%rax), %edx
	incq	%rax
	incw	(%r12,%rdx,2)
	cmpq	%rsi, %rax
	jne	.L198
	jmp	.L197
.L196:
	incq	%r13
	xorl	%edx, %edx
	jmp	.L199
	.p2align 4,,10
	.p2align 3
.L201:
	leaq	-88(%rbp), %rsp
	popq	%rbx
	popq	%rsi
	popq	%rdi
	popq	%r12
	popq	%r13
	popq	%rbp
	ret
	.seh_handler	__gxx_personality_seh0, @unwind, @except
	.seh_handlerdata
.LLSDA18323:
	.byte	0xff
	.byte	0xff
	.byte	0x1
	.uleb128 .LLSDACSE18323-.LLSDACSB18323
.LLSDACSB18323:
.LLSDACSE18323:
	.text
	.seh_endproc
	.p2align 4
	.def	_ZN9HistogramItsE10accumulateIsEEvPT_y._omp_fn.0;	.scl	3;	.type	32;	.endef
	.seh_proc	_ZN9HistogramItsE10accumulateIsEEvPT_y._omp_fn.0
_ZN9HistogramItsE10accumulateIsEEvPT_y._omp_fn.0:
.LFB18324:
	pushq	%rbp
	.seh_pushreg	%rbp
	pushq	%r15
	.seh_pushreg	%r15
	pushq	%r14
	.seh_pushreg	%r14
	pushq	%r13
	.seh_pushreg	%r13
	pushq	%r12
	.seh_pushreg	%r12
	pushq	%rdi
	.seh_pushreg	%rdi
	pushq	%rsi
	.seh_pushreg	%rsi
	pushq	%rbx
	.seh_pushreg	%rbx
	subq	$56, %rsp
	.seh_stackalloc	56
	leaq	128(%rsp), %rbp
	.seh_setframe	%rbp, 128
	.seh_endprologue
	movq	16(%rcx), %rax
	movl	24(%rcx), %esi
	movq	8(%rcx), %rbx
	movl	28(%rcx), %r15d
	movq	%rax, -96(%rbp)
	movq	(%rcx), %rax
	movq	%rax, -88(%rbp)
	call	_Z22manage_thread_affinityv
	movl	$1, %edx
	shlx	%esi, %edx, %edx
	movslq	%edx, %r12
	leaq	15(%r12,%r12), %rax
	leaq	-1(%r12), %rdi
	andq	$-16, %rax
	call	___chkstk_ms
	subq	%rax, %rsp
	leaq	32(%rsp), %rsi
	movq	%rsi, %r13
	cmpl	$15, %edx
	jbe	.L215
	leaq	-16(%r12), %rdx
	xorl	%eax, %eax
	vpxor	%xmm0, %xmm0, %xmm0
	shrq	$4, %rdx
	incq	%rdx
	.p2align 4,,10
	.p2align 3
.L204:
	movq	%rax, %r9
	incq	%rax
	salq	$5, %r9
	vmovdqu	%ymm0, (%rsi,%r9)
	cmpq	%rax, %rdx
	ja	.L204
	movq	%rdx, %rax
	salq	$5, %rdx
	salq	$4, %rax
	addq	%rsi, %rdx
	cmpq	%rax, %r12
	je	.L222
	xorl	%r9d, %r9d
	movw	%r9w, (%rdx)
	leaq	1(%rax), %r9
	cmpq	%r9, %rdi
	jb	.L223
	xorl	%r8d, %r8d
	leaq	2(%rax), %r9
	movw	%r8w, 2(%rdx)
	cmpq	%r9, %rdi
	jb	.L224
	xorl	%ecx, %ecx
	leaq	3(%rax), %r9
	movw	%cx, 4(%rdx)
	cmpq	%r9, %rdi
	jb	.L225
	xorl	%r14d, %r14d
	leaq	4(%rax), %r9
	movw	%r14w, 6(%rdx)
	cmpq	%r9, %rdi
	jb	.L226
	xorl	%r11d, %r11d
	leaq	5(%rax), %r9
	movw	%r11w, 8(%rdx)
	cmpq	%r9, %rdi
	jb	.L227
	xorl	%r10d, %r10d
	leaq	6(%rax), %r9
	movw	%r10w, 10(%rdx)
	cmpq	%r9, %rdi
	jb	.L228
	xorl	%r9d, %r9d
	movw	%r9w, 12(%rdx)
	leaq	7(%rax), %r9
	cmpq	%r9, %rdi
	jb	.L229
	xorl	%r8d, %r8d
	leaq	8(%rax), %r9
	movw	%r8w, 14(%rdx)
	cmpq	%r9, %rdi
	jb	.L230
	xorl	%ecx, %ecx
	leaq	9(%rax), %r9
	movw	%cx, 16(%rdx)
	cmpq	%r9, %rdi
	jb	.L231
	xorl	%r14d, %r14d
	leaq	10(%rax), %r9
	movw	%r14w, 18(%rdx)
	cmpq	%r9, %rdi
	jb	.L232
	xorl	%r11d, %r11d
	leaq	11(%rax), %r9
	movw	%r11w, 20(%rdx)
	cmpq	%r9, %rdi
	jb	.L233
	xorl	%r10d, %r10d
	leaq	12(%rax), %r9
	movw	%r10w, 22(%rdx)
	cmpq	%r9, %rdi
	jb	.L234
	xorl	%r9d, %r9d
	movw	%r9w, 24(%rdx)
	leaq	13(%rax), %r9
	cmpq	%r9, %rdi
	jb	.L235
	xorl	%r8d, %r8d
	addq	$14, %rax
	movw	%r8w, 26(%rdx)
	cmpq	%rax, %rdi
	jb	.L236
	xorl	%ecx, %ecx
	movw	%cx, 28(%rdx)
	vzeroupper
	jmp	.L206
	.p2align 4,,10
	.p2align 3
.L215:
	xorl	%eax, %eax
	.p2align 4,,10
	.p2align 3
.L203:
	xorl	%edx, %edx
	movw	%dx, (%rsi,%rax,2)
	incq	%rax
	cmpq	%rax, %rdi
	jnb	.L203
	jmp	.L206
.L222:
	vzeroupper
	jmp	.L206
.L223:
	vzeroupper
	jmp	.L206
.L224:
	vzeroupper
	jmp	.L206
.L225:
	vzeroupper
	jmp	.L206
.L226:
	vzeroupper
	jmp	.L206
.L227:
	vzeroupper
	jmp	.L206
.L228:
	vzeroupper
	jmp	.L206
.L229:
	vzeroupper
	jmp	.L206
.L230:
	vzeroupper
	jmp	.L206
.L231:
	vzeroupper
	jmp	.L206
.L232:
	vzeroupper
	jmp	.L206
.L233:
	vzeroupper
	jmp	.L206
.L234:
	vzeroupper
	jmp	.L206
.L235:
	vzeroupper
	jmp	.L206
.L236:
	vzeroupper
	.p2align 4,,10
	.p2align 3
.L206:
	cmpq	$0, -88(%rbp)
	jne	.L207
	.p2align 4,,10
	.p2align 3
.L212:
	call	GOMP_atomic_start
	cmpq	$14, %rdi
	jbe	.L216
	leaq	-16(%r12), %r8
	xorl	%eax, %eax
	xorl	%edx, %edx
	shrq	$4, %r8
	incq	%r8
	.p2align 4,,10
	.p2align 3
.L209:
	vmovdqu	(%rsi,%rax), %ymm1
	vpaddw	(%rbx,%rax), %ymm1, %ymm0
	incq	%rdx
	vmovdqu	%ymm0, (%rbx,%rax)
	addq	$32, %rax
	cmpq	%r8, %rdx
	jb	.L209
	movq	%r8, %rax
	salq	$5, %r8
	salq	$4, %rax
	leaq	(%rsi,%r8), %r13
	addq	%r8, %rbx
	cmpq	%rax, %r12
	jne	.L237
	vzeroupper
	jmp	.L210
	.p2align 4,,10
	.p2align 3
.L216:
	xorl	%eax, %eax
	jmp	.L208
	.p2align 4,,10
	.p2align 3
.L237:
	vzeroupper
.L208:
	movzwl	0(%r13), %edx
	addw	%dx, (%rbx)
	leaq	1(%rax), %rdx
	cmpq	%rdx, %rdi
	jb	.L210
	movzwl	2(%r13), %edx
	addw	%dx, 2(%rbx)
	leaq	2(%rax), %rdx
	cmpq	%rdx, %rdi
	jb	.L210
	movzwl	4(%r13), %edx
	addw	%dx, 4(%rbx)
	leaq	3(%rax), %rdx
	cmpq	%rdx, %rdi
	jb	.L210
	movzwl	6(%r13), %edx
	addw	%dx, 6(%rbx)
	leaq	4(%rax), %rdx
	cmpq	%rdx, %rdi
	jb	.L210
	movzwl	8(%r13), %edx
	addw	%dx, 8(%rbx)
	leaq	5(%rax), %rdx
	cmpq	%rdx, %rdi
	jb	.L210
	movzwl	10(%r13), %edx
	addw	%dx, 10(%rbx)
	leaq	6(%rax), %rdx
	cmpq	%rdx, %rdi
	jb	.L210
	movzwl	12(%r13), %edx
	addw	%dx, 12(%rbx)
	leaq	7(%rax), %rdx
	cmpq	%rdx, %rdi
	jb	.L210
	movzwl	14(%r13), %edx
	addw	%dx, 14(%rbx)
	leaq	8(%rax), %rdx
	cmpq	%rdx, %rdi
	jb	.L210
	movzwl	16(%r13), %edx
	addw	%dx, 16(%rbx)
	leaq	9(%rax), %rdx
	cmpq	%rdx, %rdi
	jb	.L210
	movzwl	18(%r13), %edx
	addw	%dx, 18(%rbx)
	leaq	10(%rax), %rdx
	cmpq	%rdx, %rdi
	jb	.L210
	movzwl	20(%r13), %edx
	addw	%dx, 20(%rbx)
	leaq	11(%rax), %rdx
	cmpq	%rdx, %rdi
	jb	.L210
	movzwl	22(%r13), %edx
	addw	%dx, 22(%rbx)
	leaq	12(%rax), %rdx
	cmpq	%rdx, %rdi
	jb	.L210
	movzwl	24(%r13), %edx
	addw	%dx, 24(%rbx)
	leaq	13(%rax), %rdx
	cmpq	%rdx, %rdi
	jb	.L210
	addq	$14, %rax
	movzwl	26(%r13), %edx
	addw	%dx, 26(%rbx)
	cmpq	%rax, %rdi
	jb	.L210
	movzwl	28(%r13), %eax
	addw	%ax, 28(%rbx)
	.p2align 4,,10
	.p2align 3
.L210:
	call	GOMP_atomic_end
	jmp	.L221
	.p2align 4,,10
	.p2align 3
.L207:
	call	omp_get_num_threads
	movslq	%eax, %r14
	call	omp_get_thread_num
	xorl	%edx, %edx
	movslq	%eax, %r9
	movq	-88(%rbp), %rax
	divq	%r14
	cmpq	%rdx, %r9
	jb	.L211
.L214:
	imulq	%rax, %r9
	addq	%r9, %rdx
	addq	%rdx, %rax
	cmpq	%rax, %rdx
	jnb	.L212
	movq	-96(%rbp), %rcx
	leaq	(%rcx,%rdx,2), %rdx
	leaq	(%rcx,%rax,2), %r9
	.p2align 4,,10
	.p2align 3
.L213:
	movzwl	(%rdx), %eax
	addq	$2, %rdx
	sarx	%r15d, %eax, %eax
	cltq
	incw	(%rsi,%rax,2)
	cmpq	%r9, %rdx
	jne	.L213
	jmp	.L212
	.p2align 4,,10
	.p2align 3
.L211:
	incq	%rax
	xorl	%edx, %edx
	jmp	.L214
	.p2align 4,,10
	.p2align 3
.L221:
	leaq	-72(%rbp), %rsp
	popq	%rbx
	popq	%rsi
	popq	%rdi
	popq	%r12
	popq	%r13
	popq	%r14
	popq	%r15
	popq	%rbp
	ret
	.seh_handler	__gxx_personality_seh0, @unwind, @except
	.seh_handlerdata
.LLSDA18324:
	.byte	0xff
	.byte	0xff
	.byte	0x1
	.uleb128 .LLSDACSE18324-.LLSDACSB18324
.LLSDACSB18324:
.LLSDACSE18324:
	.text
	.seh_endproc
	.p2align 4
	.def	_ZN9HistogramIhdE10accumulateIdEEvPT_y._omp_fn.0;	.scl	3;	.type	32;	.endef
	.seh_proc	_ZN9HistogramIhdE10accumulateIdEEvPT_y._omp_fn.0
_ZN9HistogramIhdE10accumulateIdEEvPT_y._omp_fn.0:
.LFB18325:
	pushq	%rbp
	.seh_pushreg	%rbp
	pushq	%r15
	.seh_pushreg	%r15
	pushq	%r14
	.seh_pushreg	%r14
	pushq	%r13
	.seh_pushreg	%r13
	pushq	%r12
	.seh_pushreg	%r12
	pushq	%rdi
	.seh_pushreg	%rdi
	pushq	%rsi
	.seh_pushreg	%rsi
	pushq	%rbx
	.seh_pushreg	%rbx
	subq	$88, %rsp
	.seh_stackalloc	88
	leaq	128(%rsp), %rbp
	.seh_setframe	%rbp, 128
	vmovaps	%xmm6, -64(%rbp)
	.seh_savexmm	%xmm6, 64
	.seh_endprologue
	movq	8(%rcx), %rax
	movq	16(%rcx), %r14
	movq	32(%rcx), %rbx
	vmovsd	24(%rcx), %xmm6
	movq	%rax, -72(%rbp)
	movq	(%rcx), %rax
	movq	%rax, -88(%rbp)
	call	_Z22manage_thread_affinityv
	movl	(%r14), %r15d
	leaq	15(%r15), %rax
	movq	%r15, %r9
	leaq	-1(%r15), %r12
	shrq	$4, %rax
	salq	$4, %rax
	call	___chkstk_ms
	subq	%rax, %rsp
	leaq	32(%rsp), %rsi
	movq	%rsi, %rdi
	cmpl	$31, %r15d
	jbe	.L260
	leaq	-32(%r15), %rax
	xorl	%edx, %edx
	vpxor	%xmm0, %xmm0, %xmm0
	shrq	$5, %rax
	incq	%rax
	.p2align 4,,10
	.p2align 3
.L240:
	movq	%rdx, %r10
	incq	%rdx
	salq	$5, %r10
	vmovdqu	%ymm0, (%rsi,%r10)
	cmpq	%rdx, %rax
	ja	.L240
	salq	$5, %rax
	cmpq	%rax, %r15
	je	.L273
	.p2align 4,,10
	.p2align 3
.L242:
	movb	$0, (%rsi,%rax)
	incq	%rax
	cmpq	%rax, %r12
	jnb	.L242
	vzeroupper
	jmp	.L243
	.p2align 4,,10
	.p2align 3
.L260:
	xorl	%eax, %eax
	.p2align 4,,10
	.p2align 3
.L239:
	movb	$0, (%rsi,%rax)
	incq	%rax
	cmpq	%rax, %r12
	jnb	.L239
	jmp	.L243
.L273:
	vzeroupper
	.p2align 4,,10
	.p2align 3
.L243:
	cmpq	$0, -72(%rbp)
	jne	.L244
	.p2align 4,,10
	.p2align 3
.L250:
	call	GOMP_atomic_start
	cmpq	$30, %r12
	jbe	.L261
	leaq	-32(%r15), %rax
	xorl	%edx, %edx
	xorl	%r9d, %r9d
	shrq	$5, %rax
	incq	%rax
	.p2align 4,,10
	.p2align 3
.L246:
	vmovdqu	(%rbx,%rdx), %ymm4
	vpaddb	(%rsi,%rdx), %ymm4, %ymm0
	incq	%r9
	vmovdqu	%ymm0, (%rbx,%rdx)
	addq	$32, %rdx
	cmpq	%rax, %r9
	jb	.L246
	salq	$5, %rax
	leaq	(%rsi,%rax), %rdi
	addq	%rax, %rbx
	cmpq	%rax, %r15
	jne	.L274
	vzeroupper
	jmp	.L247
	.p2align 4,,10
	.p2align 3
.L261:
	xorl	%eax, %eax
	jmp	.L245
	.p2align 4,,10
	.p2align 3
.L274:
	vzeroupper
.L245:
	subq	%rax, %rbx
	subq	%rax, %rdi
	.p2align 4,,10
	.p2align 3
.L248:
	movzbl	(%rdi,%rax), %edx
	addb	%dl, (%rbx,%rax)
	incq	%rax
	cmpq	%rax, %r12
	jnb	.L248
.L247:
	call	GOMP_atomic_end
	jmp	.L270
	.p2align 4,,10
	.p2align 3
.L244:
	movl	%r9d, -76(%rbp)
	call	omp_get_num_threads
	movslq	%eax, %r13
	call	omp_get_thread_num
	xorl	%edx, %edx
	movl	-76(%rbp), %r9d
	movslq	%eax, %r10
	movq	-72(%rbp), %rax
	divq	%r13
	cmpq	%rdx, %r10
	jb	.L249
.L259:
	imulq	%rax, %r10
	addq	%r10, %rdx
	addq	%rdx, %rax
	cmpq	%rax, %rdx
	jnb	.L250
	vmovsd	48(%r14), %xmm1
	movq	-88(%rbp), %rcx
	decl	%r9d
	movabsq	$-9223372036854775808, %r11
	vmovsd	.LC1(%rip), %xmm3
	addq	%rsi, %r9
	vmovapd	%xmm1, %xmm2
	vxorpd	.LC0(%rip), %xmm2, %xmm2
	leaq	(%rcx,%rdx,8), %rdx
	leaq	(%rcx,%rax,8), %r10
	.p2align 4,,10
	.p2align 3
.L258:
	vmovsd	(%rdx), %xmm0
	vcomisd	%xmm1, %xmm0
	jb	.L271
	incb	(%r9)
	jmp	.L253
	.p2align 4,,10
	.p2align 3
.L271:
	vcomisd	%xmm0, %xmm2
	jbe	.L272
	incb	(%rsi)
	jmp	.L253
	.p2align 4,,10
	.p2align 3
.L272:
	vaddsd	%xmm0, %xmm1, %xmm0
	vdivsd	%xmm6, %xmm0, %xmm0
	vcomisd	%xmm3, %xmm0
	jnb	.L256
	vcvttsd2siq	%xmm0, %rax
	jmp	.L257
	.p2align 4,,10
	.p2align 3
.L256:
	vsubsd	%xmm3, %xmm0, %xmm0
	vcvttsd2siq	%xmm0, %rax
	xorq	%r11, %rax
.L257:
	incb	(%rsi,%rax)
.L253:
	addq	$8, %rdx
	cmpq	%rdx, %r10
	jne	.L258
	jmp	.L250
	.p2align 4,,10
	.p2align 3
.L249:
	incq	%rax
	xorl	%edx, %edx
	jmp	.L259
	.p2align 4,,10
	.p2align 3
.L270:
	vmovaps	-64(%rbp), %xmm6
	leaq	-40(%rbp), %rsp
	popq	%rbx
	popq	%rsi
	popq	%rdi
	popq	%r12
	popq	%r13
	popq	%r14
	popq	%r15
	popq	%rbp
	ret
	.seh_handler	__gxx_personality_seh0, @unwind, @except
	.seh_handlerdata
.LLSDA18325:
	.byte	0xff
	.byte	0xff
	.byte	0x1
	.uleb128 .LLSDACSE18325-.LLSDACSB18325
.LLSDACSB18325:
.LLSDACSE18325:
	.text
	.seh_endproc
	.p2align 4
	.def	_ZN9HistogramIhfE10accumulateIfEEvPT_y._omp_fn.0;	.scl	3;	.type	32;	.endef
	.seh_proc	_ZN9HistogramIhfE10accumulateIfEEvPT_y._omp_fn.0
_ZN9HistogramIhfE10accumulateIfEEvPT_y._omp_fn.0:
.LFB18326:
	pushq	%rbp
	.seh_pushreg	%rbp
	pushq	%r15
	.seh_pushreg	%r15
	pushq	%r14
	.seh_pushreg	%r14
	pushq	%r13
	.seh_pushreg	%r13
	pushq	%r12
	.seh_pushreg	%r12
	pushq	%rdi
	.seh_pushreg	%rdi
	pushq	%rsi
	.seh_pushreg	%rsi
	pushq	%rbx
	.seh_pushreg	%rbx
	subq	$88, %rsp
	.seh_stackalloc	88
	leaq	128(%rsp), %rbp
	.seh_setframe	%rbp, 128
	vmovaps	%xmm6, -64(%rbp)
	.seh_savexmm	%xmm6, 64
	.seh_endprologue
	movq	8(%rcx), %rax
	movq	16(%rcx), %r14
	movq	24(%rcx), %rbx
	vmovss	32(%rcx), %xmm6
	movq	%rax, -72(%rbp)
	movq	(%rcx), %rax
	movq	%rax, -88(%rbp)
	call	_Z22manage_thread_affinityv
	movl	(%r14), %r15d
	leaq	15(%r15), %rax
	movq	%r15, %r9
	leaq	-1(%r15), %r12
	shrq	$4, %rax
	salq	$4, %rax
	call	___chkstk_ms
	subq	%rax, %rsp
	leaq	32(%rsp), %rsi
	movq	%rsi, %rdi
	cmpl	$31, %r15d
	jbe	.L297
	leaq	-32(%r15), %rax
	xorl	%edx, %edx
	vpxor	%xmm0, %xmm0, %xmm0
	shrq	$5, %rax
	incq	%rax
	.p2align 4,,10
	.p2align 3
.L277:
	movq	%rdx, %r10
	incq	%rdx
	salq	$5, %r10
	vmovdqu	%ymm0, (%rsi,%r10)
	cmpq	%rdx, %rax
	ja	.L277
	salq	$5, %rax
	cmpq	%rax, %r15
	je	.L310
	.p2align 4,,10
	.p2align 3
.L279:
	movb	$0, (%rsi,%rax)
	incq	%rax
	cmpq	%rax, %r12
	jnb	.L279
	vzeroupper
	jmp	.L280
	.p2align 4,,10
	.p2align 3
.L297:
	xorl	%eax, %eax
	.p2align 4,,10
	.p2align 3
.L276:
	movb	$0, (%rsi,%rax)
	incq	%rax
	cmpq	%rax, %r12
	jnb	.L276
	jmp	.L280
.L310:
	vzeroupper
	.p2align 4,,10
	.p2align 3
.L280:
	cmpq	$0, -72(%rbp)
	jne	.L281
	.p2align 4,,10
	.p2align 3
.L287:
	call	GOMP_atomic_start
	cmpq	$30, %r12
	jbe	.L298
	leaq	-32(%r15), %rax
	xorl	%edx, %edx
	xorl	%r9d, %r9d
	shrq	$5, %rax
	incq	%rax
	.p2align 4,,10
	.p2align 3
.L283:
	vmovdqu	(%rbx,%rdx), %ymm4
	vpaddb	(%rsi,%rdx), %ymm4, %ymm0
	incq	%r9
	vmovdqu	%ymm0, (%rbx,%rdx)
	addq	$32, %rdx
	cmpq	%rax, %r9
	jb	.L283
	salq	$5, %rax
	leaq	(%rsi,%rax), %rdi
	addq	%rax, %rbx
	cmpq	%rax, %r15
	jne	.L311
	vzeroupper
	jmp	.L284
	.p2align 4,,10
	.p2align 3
.L298:
	xorl	%eax, %eax
	jmp	.L282
	.p2align 4,,10
	.p2align 3
.L311:
	vzeroupper
.L282:
	subq	%rax, %rbx
	subq	%rax, %rdi
	.p2align 4,,10
	.p2align 3
.L285:
	movzbl	(%rdi,%rax), %edx
	addb	%dl, (%rbx,%rax)
	incq	%rax
	cmpq	%rax, %r12
	jnb	.L285
.L284:
	call	GOMP_atomic_end
	jmp	.L307
	.p2align 4,,10
	.p2align 3
.L281:
	movl	%r9d, -76(%rbp)
	call	omp_get_num_threads
	movslq	%eax, %r13
	call	omp_get_thread_num
	xorl	%edx, %edx
	movl	-76(%rbp), %r9d
	movslq	%eax, %r10
	movq	-72(%rbp), %rax
	divq	%r13
	cmpq	%rdx, %r10
	jb	.L286
.L296:
	imulq	%rax, %r10
	addq	%r10, %rdx
	addq	%rdx, %rax
	cmpq	%rax, %rdx
	jnb	.L287
	vmovss	48(%r14), %xmm1
	movq	-88(%rbp), %rcx
	decl	%r9d
	movabsq	$-9223372036854775808, %r11
	vmovss	.LC3(%rip), %xmm3
	addq	%rsi, %r9
	vmovaps	%xmm1, %xmm2
	vxorps	.LC2(%rip), %xmm2, %xmm2
	leaq	(%rcx,%rdx,4), %rdx
	leaq	(%rcx,%rax,4), %r10
	.p2align 4,,10
	.p2align 3
.L295:
	vmovss	(%rdx), %xmm0
	vcomiss	%xmm1, %xmm0
	jb	.L308
	incb	(%r9)
	jmp	.L290
	.p2align 4,,10
	.p2align 3
.L308:
	vcomiss	%xmm0, %xmm2
	jbe	.L309
	incb	(%rsi)
	jmp	.L290
	.p2align 4,,10
	.p2align 3
.L309:
	vaddss	%xmm0, %xmm1, %xmm0
	vdivss	%xmm6, %xmm0, %xmm0
	vcomiss	.LC3(%rip), %xmm0
	jnb	.L293
	vcvttss2siq	%xmm0, %rax
	jmp	.L294
	.p2align 4,,10
	.p2align 3
.L293:
	vsubss	%xmm3, %xmm0, %xmm0
	vcvttss2siq	%xmm0, %rax
	xorq	%r11, %rax
.L294:
	incb	(%rsi,%rax)
.L290:
	addq	$4, %rdx
	cmpq	%rdx, %r10
	jne	.L295
	jmp	.L287
	.p2align 4,,10
	.p2align 3
.L286:
	incq	%rax
	xorl	%edx, %edx
	jmp	.L296
	.p2align 4,,10
	.p2align 3
.L307:
	vmovaps	-64(%rbp), %xmm6
	leaq	-40(%rbp), %rsp
	popq	%rbx
	popq	%rsi
	popq	%rdi
	popq	%r12
	popq	%r13
	popq	%r14
	popq	%r15
	popq	%rbp
	ret
	.seh_handler	__gxx_personality_seh0, @unwind, @except
	.seh_handlerdata
.LLSDA18326:
	.byte	0xff
	.byte	0xff
	.byte	0x1
	.uleb128 .LLSDACSE18326-.LLSDACSB18326
.LLSDACSB18326:
.LLSDACSE18326:
	.text
	.seh_endproc
	.p2align 4
	.def	_ZN9HistogramIhhE10accumulateIhEEvPT_y._omp_fn.0;	.scl	3;	.type	32;	.endef
	.seh_proc	_ZN9HistogramIhhE10accumulateIhEEvPT_y._omp_fn.0
_ZN9HistogramIhhE10accumulateIhEEvPT_y._omp_fn.0:
.LFB18327:
	pushq	%rbp
	.seh_pushreg	%rbp
	pushq	%r13
	.seh_pushreg	%r13
	pushq	%r12
	.seh_pushreg	%r12
	pushq	%rdi
	.seh_pushreg	%rdi
	pushq	%rsi
	.seh_pushreg	%rsi
	pushq	%rbx
	.seh_pushreg	%rbx
	subq	$40, %rsp
	.seh_stackalloc	40
	leaq	128(%rsp), %rbp
	.seh_setframe	%rbp, 128
	.seh_endprologue
	movq	16(%rcx), %r12
	movq	8(%rcx), %r13
	movq	(%rcx), %rbx
	call	_Z22manage_thread_affinityv
	subq	$256, %rsp
	movl	$32, %ecx
	xorl	%eax, %eax
	leaq	32(%rsp), %rsi
	movq	%rsi, %rdi
	rep stosq
	testq	%r13, %r13
	jne	.L313
	.p2align 4,,10
	.p2align 3
.L315:
	call	GOMP_atomic_start
	vmovdqu	(%r12), %ymm1
	vpaddb	(%rsi), %ymm1, %ymm0
	vmovdqu	32(%rsi), %ymm2
	vmovdqu	64(%r12), %ymm3
	vmovdqu	%ymm0, (%r12)
	vpaddb	32(%r12), %ymm2, %ymm0
	vmovdqu	96(%r12), %ymm4
	vmovdqu	128(%r12), %ymm5
	vmovdqu	160(%r12), %ymm1
	vmovdqu	%ymm0, 32(%r12)
	vpaddb	64(%rsi), %ymm3, %ymm0
	vmovdqu	192(%r12), %ymm2
	vmovdqu	%ymm0, 64(%r12)
	vpaddb	96(%rsi), %ymm4, %ymm0
	vmovdqu	%ymm0, 96(%r12)
	vpaddb	128(%rsi), %ymm5, %ymm0
	vmovdqu	%ymm0, 128(%r12)
	vpaddb	160(%rsi), %ymm1, %ymm0
	vmovdqu	%ymm0, 160(%r12)
	vpaddb	192(%rsi), %ymm2, %ymm0
	vmovdqu	%ymm0, 192(%r12)
	vmovdqu	224(%rsi), %ymm0
	vpaddb	224(%r12), %ymm0, %ymm0
	vmovdqu	%ymm0, 224(%r12)
	vzeroupper
	call	GOMP_atomic_end
	jmp	.L319
.L313:
	call	omp_get_num_threads
	movl	%eax, %edi
	call	omp_get_thread_num
	movslq	%edi, %r8
	xorl	%edx, %edx
	movslq	%eax, %rcx
	movq	%r13, %rax
	divq	%r8
	movq	%rax, %r13
	cmpq	%rdx, %rcx
	jb	.L314
.L317:
	imulq	%r13, %rcx
	addq	%rcx, %rdx
	addq	%rdx, %r13
	cmpq	%r13, %rdx
	jnb	.L315
	leaq	(%rbx,%rdx), %rax
	addq	%r13, %rbx
	.p2align 4,,10
	.p2align 3
.L316:
	movzbl	(%rax), %edx
	incq	%rax
	incb	(%rsi,%rdx)
	cmpq	%rbx, %rax
	jne	.L316
	jmp	.L315
.L314:
	incq	%r13
	xorl	%edx, %edx
	jmp	.L317
	.p2align 4,,10
	.p2align 3
.L319:
	leaq	-88(%rbp), %rsp
	popq	%rbx
	popq	%rsi
	popq	%rdi
	popq	%r12
	popq	%r13
	popq	%rbp
	ret
	.seh_handler	__gxx_personality_seh0, @unwind, @except
	.seh_handlerdata
.LLSDA18327:
	.byte	0xff
	.byte	0xff
	.byte	0x1
	.uleb128 .LLSDACSE18327-.LLSDACSB18327
.LLSDACSB18327:
.LLSDACSE18327:
	.text
	.seh_endproc
	.p2align 4
	.def	_ZN9HistogramIhtE10accumulateItEEvPT_y._omp_fn.0;	.scl	3;	.type	32;	.endef
	.seh_proc	_ZN9HistogramIhtE10accumulateItEEvPT_y._omp_fn.0
_ZN9HistogramIhtE10accumulateItEEvPT_y._omp_fn.0:
.LFB18328:
	pushq	%rbp
	.seh_pushreg	%rbp
	pushq	%r15
	.seh_pushreg	%r15
	pushq	%r14
	.seh_pushreg	%r14
	pushq	%r13
	.seh_pushreg	%r13
	pushq	%r12
	.seh_pushreg	%r12
	pushq	%rdi
	.seh_pushreg	%rdi
	pushq	%rsi
	.seh_pushreg	%rsi
	pushq	%rbx
	.seh_pushreg	%rbx
	subq	$56, %rsp
	.seh_stackalloc	56
	leaq	128(%rsp), %rbp
	.seh_setframe	%rbp, 128
	.seh_endprologue
	movq	8(%rcx), %rax
	movl	24(%rcx), %esi
	movq	16(%rcx), %rbx
	movl	28(%rcx), %r15d
	movq	%rax, -88(%rbp)
	movq	(%rcx), %rax
	movq	%rax, -96(%rbp)
	call	_Z22manage_thread_affinityv
	movl	$1, %edx
	shlx	%esi, %edx, %edx
	movslq	%edx, %r13
	leaq	15(%r13), %rax
	leaq	-1(%r13), %rdi
	andq	$-16, %rax
	call	___chkstk_ms
	subq	%rax, %rsp
	leaq	32(%rsp), %rsi
	movq	%rsi, %r12
	cmpl	$31, %edx
	jbe	.L335
	leaq	-32(%r13), %rax
	xorl	%edx, %edx
	vpxor	%xmm0, %xmm0, %xmm0
	shrq	$5, %rax
	incq	%rax
	.p2align 4,,10
	.p2align 3
.L322:
	movq	%rdx, %r9
	incq	%rdx
	salq	$5, %r9
	vmovdqu	%ymm0, (%rsi,%r9)
	cmpq	%rdx, %rax
	ja	.L322
	salq	$5, %rax
	cmpq	%rax, %r13
	je	.L344
	.p2align 4,,10
	.p2align 3
.L324:
	movb	$0, (%rsi,%rax)
	incq	%rax
	cmpq	%rax, %rdi
	jnb	.L324
	vzeroupper
	jmp	.L325
	.p2align 4,,10
	.p2align 3
.L335:
	xorl	%eax, %eax
	.p2align 4,,10
	.p2align 3
.L321:
	movb	$0, (%rsi,%rax)
	incq	%rax
	cmpq	%rax, %rdi
	jnb	.L321
	jmp	.L325
.L344:
	vzeroupper
	.p2align 4,,10
	.p2align 3
.L325:
	cmpq	$0, -88(%rbp)
	jne	.L326
	.p2align 4,,10
	.p2align 3
.L332:
	call	GOMP_atomic_start
	cmpq	$30, %rdi
	jbe	.L336
	leaq	-32(%r13), %rax
	xorl	%edx, %edx
	xorl	%r8d, %r8d
	shrq	$5, %rax
	incq	%rax
	.p2align 4,,10
	.p2align 3
.L328:
	vmovdqu	(%rsi,%rdx), %ymm1
	vpaddb	(%rbx,%rdx), %ymm1, %ymm0
	incq	%r8
	vmovdqu	%ymm0, (%rbx,%rdx)
	addq	$32, %rdx
	cmpq	%rax, %r8
	jb	.L328
	salq	$5, %rax
	leaq	(%rsi,%rax), %r12
	addq	%rax, %rbx
	cmpq	%rax, %r13
	jne	.L345
	vzeroupper
	jmp	.L329
	.p2align 4,,10
	.p2align 3
.L336:
	xorl	%eax, %eax
	jmp	.L327
	.p2align 4,,10
	.p2align 3
.L345:
	vzeroupper
.L327:
	subq	%rax, %rbx
	subq	%rax, %r12
	.p2align 4,,10
	.p2align 3
.L330:
	movzbl	(%r12,%rax), %edx
	addb	%dl, (%rbx,%rax)
	incq	%rax
	cmpq	%rax, %rdi
	jnb	.L330
.L329:
	call	GOMP_atomic_end
	jmp	.L343
	.p2align 4,,10
	.p2align 3
.L326:
	call	omp_get_num_threads
	movslq	%eax, %r14
	call	omp_get_thread_num
	xorl	%edx, %edx
	movslq	%eax, %r9
	movq	-88(%rbp), %rax
	divq	%r14
	cmpq	%rdx, %r9
	jb	.L331
.L334:
	imulq	%rax, %r9
	addq	%r9, %rdx
	addq	%rdx, %rax
	cmpq	%rax, %rdx
	jnb	.L332
	movq	-96(%rbp), %rcx
	leaq	(%rcx,%rdx,2), %rdx
	leaq	(%rcx,%rax,2), %r9
	.p2align 4,,10
	.p2align 3
.L333:
	movzwl	(%rdx), %eax
	addq	$2, %rdx
	sarx	%r15d, %eax, %eax
	cltq
	incb	(%rsi,%rax)
	cmpq	%rdx, %r9
	jne	.L333
	jmp	.L332
	.p2align 4,,10
	.p2align 3
.L331:
	incq	%rax
	xorl	%edx, %edx
	jmp	.L334
	.p2align 4,,10
	.p2align 3
.L343:
	leaq	-72(%rbp), %rsp
	popq	%rbx
	popq	%rsi
	popq	%rdi
	popq	%r12
	popq	%r13
	popq	%r14
	popq	%r15
	popq	%rbp
	ret
	.seh_handler	__gxx_personality_seh0, @unwind, @except
	.seh_handlerdata
.LLSDA18328:
	.byte	0xff
	.byte	0xff
	.byte	0x1
	.uleb128 .LLSDACSE18328-.LLSDACSB18328
.LLSDACSB18328:
.LLSDACSE18328:
	.text
	.seh_endproc
	.p2align 4
	.def	_ZN9HistogramIhaE10accumulateIaEEvPT_y._omp_fn.0;	.scl	3;	.type	32;	.endef
	.seh_proc	_ZN9HistogramIhaE10accumulateIaEEvPT_y._omp_fn.0
_ZN9HistogramIhaE10accumulateIaEEvPT_y._omp_fn.0:
.LFB18329:
	pushq	%rbp
	.seh_pushreg	%rbp
	pushq	%r13
	.seh_pushreg	%r13
	pushq	%r12
	.seh_pushreg	%r12
	pushq	%rdi
	.seh_pushreg	%rdi
	pushq	%rsi
	.seh_pushreg	%rsi
	pushq	%rbx
	.seh_pushreg	%rbx
	subq	$40, %rsp
	.seh_stackalloc	40
	leaq	128(%rsp), %rbp
	.seh_setframe	%rbp, 128
	.seh_endprologue
	movq	16(%rcx), %rbx
	movq	8(%rcx), %r12
	movq	(%rcx), %r13
	call	_Z22manage_thread_affinityv
	subq	$256, %rsp
	movl	$32, %ecx
	xorl	%eax, %eax
	leaq	32(%rsp), %rsi
	movq	%rsi, %rdi
	rep stosq
	testq	%r13, %r13
	jne	.L347
	.p2align 4,,10
	.p2align 3
.L349:
	call	GOMP_atomic_start
	vmovdqu	(%r12), %ymm1
	vpaddb	(%rsi), %ymm1, %ymm0
	vmovdqu	32(%rsi), %ymm2
	vmovdqu	64(%r12), %ymm3
	vmovdqu	%ymm0, (%r12)
	vpaddb	32(%r12), %ymm2, %ymm0
	vmovdqu	96(%r12), %ymm4
	vmovdqu	128(%r12), %ymm5
	vmovdqu	160(%r12), %ymm1
	vmovdqu	%ymm0, 32(%r12)
	vpaddb	64(%rsi), %ymm3, %ymm0
	vmovdqu	192(%r12), %ymm2
	vmovdqu	%ymm0, 64(%r12)
	vpaddb	96(%rsi), %ymm4, %ymm0
	vmovdqu	%ymm0, 96(%r12)
	vpaddb	128(%rsi), %ymm5, %ymm0
	vmovdqu	%ymm0, 128(%r12)
	vpaddb	160(%rsi), %ymm1, %ymm0
	vmovdqu	%ymm0, 160(%r12)
	vpaddb	192(%rsi), %ymm2, %ymm0
	vmovdqu	%ymm0, 192(%r12)
	vmovdqu	224(%rsi), %ymm0
	vpaddb	224(%r12), %ymm0, %ymm0
	vmovdqu	%ymm0, 224(%r12)
	vzeroupper
	call	GOMP_atomic_end
	jmp	.L353
.L347:
	call	omp_get_num_threads
	movl	%eax, %edi
	call	omp_get_thread_num
	movslq	%edi, %r8
	xorl	%edx, %edx
	movslq	%eax, %rcx
	movq	%r13, %rax
	divq	%r8
	movq	%rax, %r13
	cmpq	%rdx, %rcx
	jb	.L348
.L351:
	imulq	%r13, %rcx
	addq	%rcx, %rdx
	addq	%rdx, %r13
	cmpq	%r13, %rdx
	jnb	.L349
	leaq	(%rbx,%rdx), %rax
	addq	%r13, %rbx
	.p2align 4,,10
	.p2align 3
.L350:
	movzbl	(%rax), %edx
	incq	%rax
	incb	(%rsi,%rdx)
	cmpq	%rbx, %rax
	jne	.L350
	jmp	.L349
.L348:
	incq	%r13
	xorl	%edx, %edx
	jmp	.L351
	.p2align 4,,10
	.p2align 3
.L353:
	leaq	-88(%rbp), %rsp
	popq	%rbx
	popq	%rsi
	popq	%rdi
	popq	%r12
	popq	%r13
	popq	%rbp
	ret
	.seh_handler	__gxx_personality_seh0, @unwind, @except
	.seh_handlerdata
.LLSDA18329:
	.byte	0xff
	.byte	0xff
	.byte	0x1
	.uleb128 .LLSDACSE18329-.LLSDACSB18329
.LLSDACSB18329:
.LLSDACSE18329:
	.text
	.seh_endproc
	.p2align 4
	.def	_ZN9HistogramIhsE10accumulateIsEEvPT_y._omp_fn.0;	.scl	3;	.type	32;	.endef
	.seh_proc	_ZN9HistogramIhsE10accumulateIsEEvPT_y._omp_fn.0
_ZN9HistogramIhsE10accumulateIsEEvPT_y._omp_fn.0:
.LFB18330:
	pushq	%rbp
	.seh_pushreg	%rbp
	pushq	%r15
	.seh_pushreg	%r15
	pushq	%r14
	.seh_pushreg	%r14
	pushq	%r13
	.seh_pushreg	%r13
	pushq	%r12
	.seh_pushreg	%r12
	pushq	%rdi
	.seh_pushreg	%rdi
	pushq	%rsi
	.seh_pushreg	%rsi
	pushq	%rbx
	.seh_pushreg	%rbx
	subq	$56, %rsp
	.seh_stackalloc	56
	leaq	128(%rsp), %rbp
	.seh_setframe	%rbp, 128
	.seh_endprologue
	movq	16(%rcx), %rax
	movl	24(%rcx), %esi
	movq	8(%rcx), %rbx
	movl	28(%rcx), %r15d
	movq	%rax, -96(%rbp)
	movq	(%rcx), %rax
	movq	%rax, -88(%rbp)
	call	_Z22manage_thread_affinityv
	movl	$1, %edx
	shlx	%esi, %edx, %edx
	movslq	%edx, %r13
	leaq	15(%r13), %rax
	leaq	-1(%r13), %rdi
	andq	$-16, %rax
	call	___chkstk_ms
	subq	%rax, %rsp
	leaq	32(%rsp), %rsi
	movq	%rsi, %r12
	cmpl	$31, %edx
	jbe	.L369
	leaq	-32(%r13), %rax
	xorl	%edx, %edx
	vpxor	%xmm0, %xmm0, %xmm0
	shrq	$5, %rax
	incq	%rax
	.p2align 4,,10
	.p2align 3
.L356:
	movq	%rdx, %r9
	incq	%rdx
	salq	$5, %r9
	vmovdqu	%ymm0, (%rsi,%r9)
	cmpq	%rdx, %rax
	ja	.L356
	salq	$5, %rax
	cmpq	%rax, %r13
	je	.L378
	.p2align 4,,10
	.p2align 3
.L358:
	movb	$0, (%rsi,%rax)
	incq	%rax
	cmpq	%rax, %rdi
	jnb	.L358
	vzeroupper
	jmp	.L359
	.p2align 4,,10
	.p2align 3
.L369:
	xorl	%eax, %eax
	.p2align 4,,10
	.p2align 3
.L355:
	movb	$0, (%rsi,%rax)
	incq	%rax
	cmpq	%rax, %rdi
	jnb	.L355
	jmp	.L359
.L378:
	vzeroupper
	.p2align 4,,10
	.p2align 3
.L359:
	cmpq	$0, -88(%rbp)
	jne	.L360
	.p2align 4,,10
	.p2align 3
.L366:
	call	GOMP_atomic_start
	cmpq	$30, %rdi
	jbe	.L370
	leaq	-32(%r13), %rax
	xorl	%edx, %edx
	xorl	%r8d, %r8d
	shrq	$5, %rax
	incq	%rax
	.p2align 4,,10
	.p2align 3
.L362:
	vmovdqu	(%rsi,%rdx), %ymm1
	vpaddb	(%rbx,%rdx), %ymm1, %ymm0
	incq	%r8
	vmovdqu	%ymm0, (%rbx,%rdx)
	addq	$32, %rdx
	cmpq	%rax, %r8
	jb	.L362
	salq	$5, %rax
	leaq	(%rsi,%rax), %r12
	addq	%rax, %rbx
	cmpq	%rax, %r13
	jne	.L379
	vzeroupper
	jmp	.L363
	.p2align 4,,10
	.p2align 3
.L370:
	xorl	%eax, %eax
	jmp	.L361
	.p2align 4,,10
	.p2align 3
.L379:
	vzeroupper
.L361:
	subq	%rax, %rbx
	subq	%rax, %r12
	.p2align 4,,10
	.p2align 3
.L364:
	movzbl	(%r12,%rax), %edx
	addb	%dl, (%rbx,%rax)
	incq	%rax
	cmpq	%rax, %rdi
	jnb	.L364
.L363:
	call	GOMP_atomic_end
	jmp	.L377
	.p2align 4,,10
	.p2align 3
.L360:
	call	omp_get_num_threads
	movslq	%eax, %r14
	call	omp_get_thread_num
	xorl	%edx, %edx
	movslq	%eax, %r9
	movq	-88(%rbp), %rax
	divq	%r14
	cmpq	%rdx, %r9
	jb	.L365
.L368:
	imulq	%rax, %r9
	addq	%r9, %rdx
	addq	%rdx, %rax
	cmpq	%rax, %rdx
	jnb	.L366
	movq	-96(%rbp), %rcx
	leaq	(%rcx,%rdx,2), %rdx
	leaq	(%rcx,%rax,2), %r9
	.p2align 4,,10
	.p2align 3
.L367:
	movzwl	(%rdx), %eax
	addq	$2, %rdx
	sarx	%r15d, %eax, %eax
	cltq
	incb	(%rsi,%rax)
	cmpq	%rdx, %r9
	jne	.L367
	jmp	.L366
	.p2align 4,,10
	.p2align 3
.L365:
	incq	%rax
	xorl	%edx, %edx
	jmp	.L368
	.p2align 4,,10
	.p2align 3
.L377:
	leaq	-72(%rbp), %rsp
	popq	%rbx
	popq	%rsi
	popq	%rdi
	popq	%r12
	popq	%r13
	popq	%r14
	popq	%r15
	popq	%rbp
	ret
	.seh_handler	__gxx_personality_seh0, @unwind, @except
	.seh_handlerdata
.LLSDA18330:
	.byte	0xff
	.byte	0xff
	.byte	0x1
	.uleb128 .LLSDACSE18330-.LLSDACSB18330
.LLSDACSB18330:
.LLSDACSE18330:
	.text
	.seh_endproc
	.p2align 4
	.def	_ZN11Histogram2DIydE10accumulateIdEEvPT_S3_y._omp_fn.0;	.scl	3;	.type	32;	.endef
	.seh_proc	_ZN11Histogram2DIydE10accumulateIdEEvPT_S3_y._omp_fn.0
_ZN11Histogram2DIydE10accumulateIdEEvPT_S3_y._omp_fn.0:
.LFB18331:
	pushq	%r12
	.seh_pushreg	%r12
	pushq	%rbp
	.seh_pushreg	%rbp
	pushq	%rdi
	.seh_pushreg	%rdi
	pushq	%rsi
	.seh_pushreg	%rsi
	pushq	%rbx
	.seh_pushreg	%rbx
	subq	$48, %rsp
	.seh_stackalloc	48
	vmovaps	%xmm6, 32(%rsp)
	.seh_savexmm	%xmm6, 32
	.seh_endprologue
	movq	16(%rcx), %rbp
	vmovsd	32(%rcx), %xmm6
	movq	24(%rcx), %rbx
	movq	8(%rcx), %rsi
	movq	(%rcx), %rdi
	call	_Z22manage_thread_affinityv
	call	omp_get_thread_num
	movl	%eax, %r12d
	testq	%rbp, %rbp
	jne	.L381
.L383:
	vmovaps	32(%rsp), %xmm6
	addq	$48, %rsp
	popq	%rbx
	popq	%rsi
	popq	%rdi
	popq	%rbp
	popq	%r12
	jmp	GOMP_barrier
	.p2align 4,,10
	.p2align 3
.L381:
	call	omp_get_num_threads
	xorl	%edx, %edx
	movslq	%r12d, %r9
	movslq	%eax, %rcx
	movq	%rbp, %rax
	divq	%rcx
	cmpq	%rdx, %r9
	jb	.L382
.L393:
	movq	%rax, %rcx
	imulq	%r9, %rcx
	addq	%rcx, %rdx
	addq	%rdx, %rax
	cmpq	%rax, %rdx
	jnb	.L383
	vmovq	.LC0(%rip), %xmm4
	salq	$3, %r9
	vmovapd	%xmm4, %xmm5
	.p2align 4,,10
	.p2align 3
.L392:
	vmovsd	64(%rbx), %xmm0
	vmovsd	(%rdi,%rdx,8), %xmm1
	vmovsd	(%rsi,%rdx,8), %xmm2
	movl	(%rbx), %r8d
	vcomisd	%xmm0, %xmm1
	jb	.L397
	leal	-1(%r8), %ecx
	movzwl	%cx, %ecx
	imull	%r8d, %ecx
	jmp	.L386
	.p2align 4,,10
	.p2align 3
.L397:
	vmovapd	%xmm0, %xmm3
	xorl	%ecx, %ecx
	vxorpd	%xmm4, %xmm3, %xmm3
	vcomisd	%xmm1, %xmm3
	ja	.L386
	vaddsd	%xmm1, %xmm0, %xmm1
	vdivsd	%xmm6, %xmm1, %xmm1
	vcvttsd2sil	%xmm1, %ecx
	movzwl	%cx, %ecx
	imull	%r8d, %ecx
.L386:
	vcomisd	%xmm0, %xmm2
	jb	.L398
	decl	%r8d
	movzwl	%r8w, %r8d
	addl	%r8d, %ecx
	jmp	.L389
	.p2align 4,,10
	.p2align 3
.L398:
	vmovapd	%xmm0, %xmm1
	vxorpd	%xmm5, %xmm1, %xmm1
	vcomisd	%xmm2, %xmm1
	ja	.L389
	vaddsd	%xmm2, %xmm0, %xmm0
	vdivsd	%xmm6, %xmm0, %xmm0
	vcvttsd2sil	%xmm0, %r8d
	movzwl	%r8w, %r8d
	addl	%r8d, %ecx
.L389:
	movq	56(%rbx), %r8
	movq	(%r8,%r9), %r10
	addq	%rcx, %r10
	movzbl	(%r10), %r8d
	cmpb	$-1, %r8b
	jne	.L390
	movq	24(%rbx), %r8
	lock addq	$256, (%r8,%rcx,8)
	movq	56(%rbx), %r8
	addq	(%r8,%r9), %rcx
	incb	(%rcx)
	incq	%rdx
	cmpq	%rax, %rdx
	jne	.L392
	jmp	.L383
	.p2align 4,,10
	.p2align 3
.L390:
	incl	%r8d
	incq	%rdx
	movb	%r8b, (%r10)
	cmpq	%rdx, %rax
	jne	.L392
	jmp	.L383
	.p2align 4,,10
	.p2align 3
.L382:
	incq	%rax
	xorl	%edx, %edx
	jmp	.L393
	.seh_handler	__gxx_personality_seh0, @unwind, @except
	.seh_handlerdata
.LLSDA18331:
	.byte	0xff
	.byte	0xff
	.byte	0x1
	.uleb128 .LLSDACSE18331-.LLSDACSB18331
.LLSDACSB18331:
.LLSDACSE18331:
	.text
	.seh_endproc
	.p2align 4
	.def	_ZN11Histogram2DIydE19reduction_and_resetEv._omp_fn.0;	.scl	3;	.type	32;	.endef
	.seh_proc	_ZN11Histogram2DIydE19reduction_and_resetEv._omp_fn.0
_ZN11Histogram2DIydE19reduction_and_resetEv._omp_fn.0:
.LFB18332:
	pushq	%rbp
	.seh_pushreg	%rbp
	pushq	%rdi
	.seh_pushreg	%rdi
	pushq	%rsi
	.seh_pushreg	%rsi
	pushq	%rbx
	.seh_pushreg	%rbx
	subq	$40, %rsp
	.seh_stackalloc	40
	.seh_endprologue
	movq	(%rcx), %rdi
	xorl	%esi, %esi
	call	_Z22manage_thread_affinityv
	movl	4(%rdi), %eax
	testl	%eax, %eax
	jle	.L399
	.p2align 4,,10
	.p2align 3
.L400:
	movl	(%rdi), %eax
	imull	%eax, %eax
	movl	%eax, %ebx
	testl	%eax, %eax
	jne	.L401
	.p2align 4,,10
	.p2align 3
.L404:
	call	GOMP_barrier
	incq	%rsi
	cmpl	%esi, 4(%rdi)
	jg	.L400
	jmp	.L399
	.p2align 4,,10
	.p2align 3
.L401:
	call	omp_get_num_threads
	movl	%eax, %ebp
	call	omp_get_thread_num
	movslq	%ebp, %r8
	xorl	%edx, %edx
	movslq	%eax, %rcx
	movq	%rbx, %rax
	divq	%r8
	cmpq	%rdx, %rcx
	jb	.L403
.L406:
	imulq	%rax, %rcx
	addq	%rcx, %rdx
	addq	%rdx, %rax
	cmpq	%rax, %rdx
	jnb	.L404
	leaq	0(,%rsi,8), %r10
	.p2align 4,,10
	.p2align 3
.L405:
	movq	56(%rdi), %rcx
	movq	24(%rdi), %r8
	movq	(%rcx,%r10), %rbx
	addq	%rdx, %rbx
	movzbl	(%rbx), %r9d
	addq	%r9, (%r8,%rdx,8)
	incq	%rdx
	movb	$0, (%rbx)
	cmpq	%rdx, %rax
	jne	.L405
	jmp	.L404
	.p2align 4,,10
	.p2align 3
.L403:
	incq	%rax
	xorl	%edx, %edx
	jmp	.L406
	.p2align 4,,10
	.p2align 3
.L399:
	addq	$40, %rsp
	popq	%rbx
	popq	%rsi
	popq	%rdi
	popq	%rbp
	ret
	.seh_handler	__gxx_personality_seh0, @unwind, @except
	.seh_handlerdata
.LLSDA18332:
	.byte	0xff
	.byte	0xff
	.byte	0x1
	.uleb128 .LLSDACSE18332-.LLSDACSB18332
.LLSDACSB18332:
.LLSDACSE18332:
	.text
	.seh_endproc
	.p2align 4
	.def	_ZN11Histogram2DIyfE10accumulateIfEEvPT_S3_y._omp_fn.0;	.scl	3;	.type	32;	.endef
	.seh_proc	_ZN11Histogram2DIyfE10accumulateIfEEvPT_S3_y._omp_fn.0
_ZN11Histogram2DIyfE10accumulateIfEEvPT_S3_y._omp_fn.0:
.LFB18333:
	pushq	%r12
	.seh_pushreg	%r12
	pushq	%rbp
	.seh_pushreg	%rbp
	pushq	%rdi
	.seh_pushreg	%rdi
	pushq	%rsi
	.seh_pushreg	%rsi
	pushq	%rbx
	.seh_pushreg	%rbx
	subq	$48, %rsp
	.seh_stackalloc	48
	vmovaps	%xmm6, 32(%rsp)
	.seh_savexmm	%xmm6, 32
	.seh_endprologue
	movq	16(%rcx), %rbp
	vmovss	32(%rcx), %xmm6
	movq	24(%rcx), %rbx
	movq	8(%rcx), %rsi
	movq	(%rcx), %rdi
	call	_Z22manage_thread_affinityv
	call	omp_get_thread_num
	movl	%eax, %r12d
	testq	%rbp, %rbp
	jne	.L411
.L413:
	vmovaps	32(%rsp), %xmm6
	addq	$48, %rsp
	popq	%rbx
	popq	%rsi
	popq	%rdi
	popq	%rbp
	popq	%r12
	jmp	GOMP_barrier
	.p2align 4,,10
	.p2align 3
.L411:
	call	omp_get_num_threads
	xorl	%edx, %edx
	movslq	%r12d, %r9
	movslq	%eax, %rcx
	movq	%rbp, %rax
	divq	%rcx
	cmpq	%rdx, %r9
	jb	.L412
.L423:
	movq	%rax, %rcx
	imulq	%r9, %rcx
	addq	%rcx, %rdx
	addq	%rdx, %rax
	cmpq	%rax, %rdx
	jnb	.L413
	vmovss	.LC2(%rip), %xmm4
	salq	$3, %r9
	vmovaps	%xmm4, %xmm5
	.p2align 4,,10
	.p2align 3
.L422:
	vmovss	64(%rbx), %xmm0
	vmovss	(%rdi,%rdx,4), %xmm1
	vmovss	(%rsi,%rdx,4), %xmm2
	movl	(%rbx), %r8d
	vcomiss	%xmm0, %xmm1
	jb	.L427
	leal	-1(%r8), %ecx
	movzwl	%cx, %ecx
	imull	%r8d, %ecx
	jmp	.L416
	.p2align 4,,10
	.p2align 3
.L427:
	vmovaps	%xmm0, %xmm3
	xorl	%ecx, %ecx
	vxorps	%xmm4, %xmm3, %xmm3
	vcomiss	%xmm1, %xmm3
	ja	.L416
	vaddss	%xmm1, %xmm0, %xmm1
	vdivss	%xmm6, %xmm1, %xmm1
	vcvttss2sil	%xmm1, %ecx
	movzwl	%cx, %ecx
	imull	%r8d, %ecx
.L416:
	vcomiss	%xmm0, %xmm2
	jb	.L428
	decl	%r8d
	movzwl	%r8w, %r8d
	addl	%r8d, %ecx
	jmp	.L419
	.p2align 4,,10
	.p2align 3
.L428:
	vmovaps	%xmm0, %xmm1
	vxorps	%xmm5, %xmm1, %xmm1
	vcomiss	%xmm2, %xmm1
	ja	.L419
	vaddss	%xmm2, %xmm0, %xmm0
	vdivss	%xmm6, %xmm0, %xmm0
	vcvttss2sil	%xmm0, %r8d
	movzwl	%r8w, %r8d
	addl	%r8d, %ecx
.L419:
	movq	56(%rbx), %r8
	movq	(%r8,%r9), %r10
	addq	%rcx, %r10
	movzbl	(%r10), %r8d
	cmpb	$-1, %r8b
	jne	.L420
	movq	24(%rbx), %r8
	lock addq	$256, (%r8,%rcx,8)
	movq	56(%rbx), %r8
	addq	(%r8,%r9), %rcx
	incb	(%rcx)
	incq	%rdx
	cmpq	%rax, %rdx
	jne	.L422
	jmp	.L413
	.p2align 4,,10
	.p2align 3
.L420:
	incl	%r8d
	incq	%rdx
	movb	%r8b, (%r10)
	cmpq	%rdx, %rax
	jne	.L422
	jmp	.L413
	.p2align 4,,10
	.p2align 3
.L412:
	incq	%rax
	xorl	%edx, %edx
	jmp	.L423
	.seh_handler	__gxx_personality_seh0, @unwind, @except
	.seh_handlerdata
.LLSDA18333:
	.byte	0xff
	.byte	0xff
	.byte	0x1
	.uleb128 .LLSDACSE18333-.LLSDACSB18333
.LLSDACSB18333:
.LLSDACSE18333:
	.text
	.seh_endproc
	.p2align 4
	.def	_ZN11Histogram2DIyfE19reduction_and_resetEv._omp_fn.0;	.scl	3;	.type	32;	.endef
	.seh_proc	_ZN11Histogram2DIyfE19reduction_and_resetEv._omp_fn.0
_ZN11Histogram2DIyfE19reduction_and_resetEv._omp_fn.0:
.LFB18334:
	pushq	%rbp
	.seh_pushreg	%rbp
	pushq	%rdi
	.seh_pushreg	%rdi
	pushq	%rsi
	.seh_pushreg	%rsi
	pushq	%rbx
	.seh_pushreg	%rbx
	subq	$40, %rsp
	.seh_stackalloc	40
	.seh_endprologue
	movq	(%rcx), %rdi
	xorl	%esi, %esi
	call	_Z22manage_thread_affinityv
	movl	4(%rdi), %eax
	testl	%eax, %eax
	jle	.L429
	.p2align 4,,10
	.p2align 3
.L430:
	movl	(%rdi), %eax
	imull	%eax, %eax
	movl	%eax, %ebx
	testl	%eax, %eax
	jne	.L431
	.p2align 4,,10
	.p2align 3
.L434:
	call	GOMP_barrier
	incq	%rsi
	cmpl	%esi, 4(%rdi)
	jg	.L430
	jmp	.L429
	.p2align 4,,10
	.p2align 3
.L431:
	call	omp_get_num_threads
	movl	%eax, %ebp
	call	omp_get_thread_num
	movslq	%ebp, %r8
	xorl	%edx, %edx
	movslq	%eax, %rcx
	movq	%rbx, %rax
	divq	%r8
	cmpq	%rdx, %rcx
	jb	.L433
.L436:
	imulq	%rax, %rcx
	addq	%rcx, %rdx
	addq	%rdx, %rax
	cmpq	%rax, %rdx
	jnb	.L434
	leaq	0(,%rsi,8), %r10
	.p2align 4,,10
	.p2align 3
.L435:
	movq	56(%rdi), %rcx
	movq	24(%rdi), %r8
	movq	(%rcx,%r10), %rbx
	addq	%rdx, %rbx
	movzbl	(%rbx), %r9d
	addq	%r9, (%r8,%rdx,8)
	incq	%rdx
	movb	$0, (%rbx)
	cmpq	%rdx, %rax
	jne	.L435
	jmp	.L434
	.p2align 4,,10
	.p2align 3
.L433:
	incq	%rax
	xorl	%edx, %edx
	jmp	.L436
	.p2align 4,,10
	.p2align 3
.L429:
	addq	$40, %rsp
	popq	%rbx
	popq	%rsi
	popq	%rdi
	popq	%rbp
	ret
	.seh_handler	__gxx_personality_seh0, @unwind, @except
	.seh_handlerdata
.LLSDA18334:
	.byte	0xff
	.byte	0xff
	.byte	0x1
	.uleb128 .LLSDACSE18334-.LLSDACSB18334
.LLSDACSB18334:
.LLSDACSE18334:
	.text
	.seh_endproc
	.p2align 4
	.def	_ZN11Histogram2DIyhE10accumulateIhEEvPT_S3_y._omp_fn.0;	.scl	3;	.type	32;	.endef
	.seh_proc	_ZN11Histogram2DIyhE10accumulateIhEEvPT_S3_y._omp_fn.0
_ZN11Histogram2DIyhE10accumulateIhEEvPT_S3_y._omp_fn.0:
.LFB18335:
	pushq	%r12
	.seh_pushreg	%r12
	pushq	%rbp
	.seh_pushreg	%rbp
	pushq	%rdi
	.seh_pushreg	%rdi
	pushq	%rsi
	.seh_pushreg	%rsi
	pushq	%rbx
	.seh_pushreg	%rbx
	subq	$32, %rsp
	.seh_stackalloc	32
	.seh_endprologue
	movq	16(%rcx), %rbp
	movq	24(%rcx), %rbx
	movq	8(%rcx), %rsi
	movq	(%rcx), %rdi
	call	_Z22manage_thread_affinityv
	call	omp_get_thread_num
	movl	%eax, %r12d
	testq	%rbp, %rbp
	je	.L440
	call	omp_get_num_threads
	xorl	%edx, %edx
	movslq	%r12d, %r9
	movslq	%eax, %rcx
	movq	%rbp, %rax
	divq	%rcx
	cmpq	%rdx, %r9
	jb	.L442
.L447:
	movq	%rax, %rcx
	imulq	%r9, %rcx
	addq	%rcx, %rdx
	addq	%rdx, %rax
	cmpq	%rax, %rdx
	jnb	.L440
	salq	$3, %r9
	.p2align 4,,10
	.p2align 3
.L446:
	movzbl	(%rdi,%rdx), %ecx
	movzbl	(%rsi,%rdx), %r8d
	sall	$8, %ecx
	addl	%r8d, %ecx
	movq	56(%rbx), %r8
	movslq	%ecx, %rcx
	movq	(%r8,%r9), %r10
	addq	%rcx, %r10
	movzbl	(%r10), %r8d
	cmpb	$-1, %r8b
	jne	.L444
	movq	24(%rbx), %r8
	lock addq	$256, (%r8,%rcx,8)
	movq	56(%rbx), %r8
	addq	(%r8,%r9), %rcx
	incb	(%rcx)
	incq	%rdx
	cmpq	%rdx, %rax
	jne	.L446
	jmp	.L440
	.p2align 4,,10
	.p2align 3
.L444:
	incl	%r8d
	incq	%rdx
	movb	%r8b, (%r10)
	cmpq	%rdx, %rax
	jne	.L446
	jmp	.L440
	.p2align 4,,10
	.p2align 3
.L442:
	incq	%rax
	xorl	%edx, %edx
	jmp	.L447
	.p2align 4,,10
	.p2align 3
.L440:
	addq	$32, %rsp
	popq	%rbx
	popq	%rsi
	popq	%rdi
	popq	%rbp
	popq	%r12
	ret
	.seh_handler	__gxx_personality_seh0, @unwind, @except
	.seh_handlerdata
.LLSDA18335:
	.byte	0xff
	.byte	0xff
	.byte	0x1
	.uleb128 .LLSDACSE18335-.LLSDACSB18335
.LLSDACSB18335:
.LLSDACSE18335:
	.text
	.seh_endproc
	.p2align 4
	.def	_ZN11Histogram2DIyhE19reduction_and_resetEv._omp_fn.0;	.scl	3;	.type	32;	.endef
	.seh_proc	_ZN11Histogram2DIyhE19reduction_and_resetEv._omp_fn.0
_ZN11Histogram2DIyhE19reduction_and_resetEv._omp_fn.0:
.LFB18336:
	pushq	%rbp
	.seh_pushreg	%rbp
	pushq	%rdi
	.seh_pushreg	%rdi
	pushq	%rsi
	.seh_pushreg	%rsi
	pushq	%rbx
	.seh_pushreg	%rbx
	subq	$40, %rsp
	.seh_stackalloc	40
	.seh_endprologue
	movq	(%rcx), %rdi
	xorl	%esi, %esi
	call	_Z22manage_thread_affinityv
	movl	4(%rdi), %eax
	testl	%eax, %eax
	jle	.L448
	.p2align 4,,10
	.p2align 3
.L449:
	movl	(%rdi), %eax
	imull	%eax, %eax
	movl	%eax, %ebx
	testl	%eax, %eax
	jne	.L450
	.p2align 4,,10
	.p2align 3
.L453:
	call	GOMP_barrier
	incq	%rsi
	cmpl	%esi, 4(%rdi)
	jg	.L449
	jmp	.L448
	.p2align 4,,10
	.p2align 3
.L450:
	call	omp_get_num_threads
	movl	%eax, %ebp
	call	omp_get_thread_num
	movslq	%ebp, %r8
	xorl	%edx, %edx
	movslq	%eax, %rcx
	movq	%rbx, %rax
	divq	%r8
	cmpq	%rdx, %rcx
	jb	.L452
.L455:
	imulq	%rax, %rcx
	addq	%rcx, %rdx
	addq	%rdx, %rax
	cmpq	%rax, %rdx
	jnb	.L453
	leaq	0(,%rsi,8), %r10
	.p2align 4,,10
	.p2align 3
.L454:
	movq	56(%rdi), %rcx
	movq	24(%rdi), %r8
	movq	(%rcx,%r10), %rbx
	addq	%rdx, %rbx
	movzbl	(%rbx), %r9d
	addq	%r9, (%r8,%rdx,8)
	incq	%rdx
	movb	$0, (%rbx)
	cmpq	%rdx, %rax
	jne	.L454
	jmp	.L453
	.p2align 4,,10
	.p2align 3
.L452:
	incq	%rax
	xorl	%edx, %edx
	jmp	.L455
	.p2align 4,,10
	.p2align 3
.L448:
	addq	$40, %rsp
	popq	%rbx
	popq	%rsi
	popq	%rdi
	popq	%rbp
	ret
	.seh_handler	__gxx_personality_seh0, @unwind, @except
	.seh_handlerdata
.LLSDA18336:
	.byte	0xff
	.byte	0xff
	.byte	0x1
	.uleb128 .LLSDACSE18336-.LLSDACSB18336
.LLSDACSB18336:
.LLSDACSE18336:
	.text
	.seh_endproc
	.p2align 4
	.def	_ZN11Histogram2DIytE10accumulateItEEvPT_S3_y._omp_fn.0;	.scl	3;	.type	32;	.endef
	.seh_proc	_ZN11Histogram2DIytE10accumulateItEEvPT_S3_y._omp_fn.0
_ZN11Histogram2DIytE10accumulateItEEvPT_S3_y._omp_fn.0:
.LFB18337:
	pushq	%r14
	.seh_pushreg	%r14
	pushq	%r13
	.seh_pushreg	%r13
	pushq	%r12
	.seh_pushreg	%r12
	pushq	%rbp
	.seh_pushreg	%rbp
	pushq	%rdi
	.seh_pushreg	%rdi
	pushq	%rsi
	.seh_pushreg	%rsi
	pushq	%rbx
	.seh_pushreg	%rbx
	subq	$32, %rsp
	.seh_stackalloc	32
	.seh_endprologue
	movq	16(%rcx), %r13
	movl	36(%rcx), %ebx
	movl	32(%rcx), %edi
	movq	24(%rcx), %rsi
	movq	8(%rcx), %rbp
	movq	(%rcx), %r12
	call	_Z22manage_thread_affinityv
	call	omp_get_thread_num
	movl	%eax, %r14d
	testq	%r13, %r13
	je	.L459
	call	omp_get_num_threads
	xorl	%edx, %edx
	movslq	%r14d, %r9
	movslq	%eax, %rcx
	movq	%r13, %rax
	divq	%rcx
	cmpq	%rdx, %r9
	jb	.L461
.L466:
	movq	%rax, %rcx
	imulq	%r9, %rcx
	addq	%rcx, %rdx
	addq	%rdx, %rax
	cmpq	%rax, %rdx
	jnb	.L459
	salq	$3, %r9
	.p2align 4,,10
	.p2align 3
.L465:
	movzwl	(%r12,%rdx,2), %ecx
	movzwl	0(%rbp,%rdx,2), %r8d
	sarx	%ebx, %ecx, %ecx
	sarx	%ebx, %r8d, %r8d
	shlx	%edi, %ecx, %ecx
	addl	%ecx, %r8d
	movq	56(%rsi), %rcx
	movq	(%rcx,%r9), %r10
	addq	%r8, %r10
	movzbl	(%r10), %ecx
	cmpb	$-1, %cl
	jne	.L463
	movq	24(%rsi), %rcx
	lock addq	$256, (%rcx,%r8,8)
	movq	56(%rsi), %rcx
	addq	(%rcx,%r9), %r8
	incb	(%r8)
	incq	%rdx
	cmpq	%rdx, %rax
	jne	.L465
	jmp	.L459
	.p2align 4,,10
	.p2align 3
.L463:
	incl	%ecx
	incq	%rdx
	movb	%cl, (%r10)
	cmpq	%rdx, %rax
	jne	.L465
	jmp	.L459
	.p2align 4,,10
	.p2align 3
.L461:
	incq	%rax
	xorl	%edx, %edx
	jmp	.L466
	.p2align 4,,10
	.p2align 3
.L459:
	addq	$32, %rsp
	popq	%rbx
	popq	%rsi
	popq	%rdi
	popq	%rbp
	popq	%r12
	popq	%r13
	popq	%r14
	ret
	.seh_handler	__gxx_personality_seh0, @unwind, @except
	.seh_handlerdata
.LLSDA18337:
	.byte	0xff
	.byte	0xff
	.byte	0x1
	.uleb128 .LLSDACSE18337-.LLSDACSB18337
.LLSDACSB18337:
.LLSDACSE18337:
	.text
	.seh_endproc
	.p2align 4
	.def	_ZN11Histogram2DIytE19reduction_and_resetEv._omp_fn.0;	.scl	3;	.type	32;	.endef
	.seh_proc	_ZN11Histogram2DIytE19reduction_and_resetEv._omp_fn.0
_ZN11Histogram2DIytE19reduction_and_resetEv._omp_fn.0:
.LFB18338:
	pushq	%rbp
	.seh_pushreg	%rbp
	pushq	%rdi
	.seh_pushreg	%rdi
	pushq	%rsi
	.seh_pushreg	%rsi
	pushq	%rbx
	.seh_pushreg	%rbx
	subq	$40, %rsp
	.seh_stackalloc	40
	.seh_endprologue
	movq	(%rcx), %rdi
	xorl	%esi, %esi
	call	_Z22manage_thread_affinityv
	movl	4(%rdi), %eax
	testl	%eax, %eax
	jle	.L467
	.p2align 4,,10
	.p2align 3
.L468:
	movl	(%rdi), %eax
	imull	%eax, %eax
	movl	%eax, %ebx
	testl	%eax, %eax
	jne	.L469
	.p2align 4,,10
	.p2align 3
.L472:
	call	GOMP_barrier
	incq	%rsi
	cmpl	%esi, 4(%rdi)
	jg	.L468
	jmp	.L467
	.p2align 4,,10
	.p2align 3
.L469:
	call	omp_get_num_threads
	movl	%eax, %ebp
	call	omp_get_thread_num
	movslq	%ebp, %r8
	xorl	%edx, %edx
	movslq	%eax, %rcx
	movq	%rbx, %rax
	divq	%r8
	cmpq	%rdx, %rcx
	jb	.L471
.L474:
	imulq	%rax, %rcx
	addq	%rcx, %rdx
	addq	%rdx, %rax
	cmpq	%rax, %rdx
	jnb	.L472
	leaq	0(,%rsi,8), %r10
	.p2align 4,,10
	.p2align 3
.L473:
	movq	56(%rdi), %rcx
	movq	24(%rdi), %r8
	movq	(%rcx,%r10), %rbx
	addq	%rdx, %rbx
	movzbl	(%rbx), %r9d
	addq	%r9, (%r8,%rdx,8)
	incq	%rdx
	movb	$0, (%rbx)
	cmpq	%rdx, %rax
	jne	.L473
	jmp	.L472
	.p2align 4,,10
	.p2align 3
.L471:
	incq	%rax
	xorl	%edx, %edx
	jmp	.L474
	.p2align 4,,10
	.p2align 3
.L467:
	addq	$40, %rsp
	popq	%rbx
	popq	%rsi
	popq	%rdi
	popq	%rbp
	ret
	.seh_handler	__gxx_personality_seh0, @unwind, @except
	.seh_handlerdata
.LLSDA18338:
	.byte	0xff
	.byte	0xff
	.byte	0x1
	.uleb128 .LLSDACSE18338-.LLSDACSB18338
.LLSDACSB18338:
.LLSDACSE18338:
	.text
	.seh_endproc
	.p2align 4
	.def	_ZN11Histogram2DIyaE10accumulateIaEEvPT_S3_y._omp_fn.0;	.scl	3;	.type	32;	.endef
	.seh_proc	_ZN11Histogram2DIyaE10accumulateIaEEvPT_S3_y._omp_fn.0
_ZN11Histogram2DIyaE10accumulateIaEEvPT_S3_y._omp_fn.0:
.LFB18339:
	pushq	%r12
	.seh_pushreg	%r12
	pushq	%rbp
	.seh_pushreg	%rbp
	pushq	%rdi
	.seh_pushreg	%rdi
	pushq	%rsi
	.seh_pushreg	%rsi
	pushq	%rbx
	.seh_pushreg	%rbx
	subq	$32, %rsp
	.seh_stackalloc	32
	.seh_endprologue
	movq	(%rcx), %rbp
	movq	24(%rcx), %rsi
	movq	16(%rcx), %rdi
	movq	8(%rcx), %rbx
	call	_Z22manage_thread_affinityv
	call	omp_get_thread_num
	movl	%eax, %r12d
	testq	%rbp, %rbp
	je	.L478
	call	omp_get_num_threads
	xorl	%edx, %edx
	movslq	%r12d, %r9
	movslq	%eax, %rcx
	movq	%rbp, %rax
	divq	%rcx
	cmpq	%rdx, %r9
	jb	.L480
.L485:
	movq	%rax, %rcx
	imulq	%r9, %rcx
	addq	%rcx, %rdx
	addq	%rdx, %rax
	cmpq	%rax, %rdx
	jnb	.L478
	salq	$3, %r9
	.p2align 4,,10
	.p2align 3
.L484:
	movzbl	(%rdi,%rdx), %ecx
	movzbl	(%rsi,%rdx), %r8d
	sall	$8, %ecx
	addl	%r8d, %ecx
	movq	56(%rbx), %r8
	movslq	%ecx, %rcx
	movq	(%r8,%r9), %r10
	addq	%rcx, %r10
	movzbl	(%r10), %r8d
	cmpb	$-1, %r8b
	jne	.L482
	movq	24(%rbx), %r8
	lock addq	$256, (%r8,%rcx,8)
	movq	56(%rbx), %r8
	addq	(%r8,%r9), %rcx
	incb	(%rcx)
	incq	%rdx
	cmpq	%rdx, %rax
	jne	.L484
	jmp	.L478
	.p2align 4,,10
	.p2align 3
.L482:
	incl	%r8d
	incq	%rdx
	movb	%r8b, (%r10)
	cmpq	%rdx, %rax
	jne	.L484
	jmp	.L478
	.p2align 4,,10
	.p2align 3
.L480:
	incq	%rax
	xorl	%edx, %edx
	jmp	.L485
	.p2align 4,,10
	.p2align 3
.L478:
	addq	$32, %rsp
	popq	%rbx
	popq	%rsi
	popq	%rdi
	popq	%rbp
	popq	%r12
	ret
	.seh_handler	__gxx_personality_seh0, @unwind, @except
	.seh_handlerdata
.LLSDA18339:
	.byte	0xff
	.byte	0xff
	.byte	0x1
	.uleb128 .LLSDACSE18339-.LLSDACSB18339
.LLSDACSB18339:
.LLSDACSE18339:
	.text
	.seh_endproc
	.p2align 4
	.def	_ZN11Histogram2DIyaE19reduction_and_resetEv._omp_fn.0;	.scl	3;	.type	32;	.endef
	.seh_proc	_ZN11Histogram2DIyaE19reduction_and_resetEv._omp_fn.0
_ZN11Histogram2DIyaE19reduction_and_resetEv._omp_fn.0:
.LFB18340:
	pushq	%rbp
	.seh_pushreg	%rbp
	pushq	%rdi
	.seh_pushreg	%rdi
	pushq	%rsi
	.seh_pushreg	%rsi
	pushq	%rbx
	.seh_pushreg	%rbx
	subq	$40, %rsp
	.seh_stackalloc	40
	.seh_endprologue
	movq	(%rcx), %rdi
	xorl	%esi, %esi
	call	_Z22manage_thread_affinityv
	movl	4(%rdi), %eax
	testl	%eax, %eax
	jle	.L486
	.p2align 4,,10
	.p2align 3
.L487:
	movl	(%rdi), %eax
	imull	%eax, %eax
	movl	%eax, %ebx
	testl	%eax, %eax
	jne	.L488
	.p2align 4,,10
	.p2align 3
.L491:
	call	GOMP_barrier
	incq	%rsi
	cmpl	%esi, 4(%rdi)
	jg	.L487
	jmp	.L486
	.p2align 4,,10
	.p2align 3
.L488:
	call	omp_get_num_threads
	movl	%eax, %ebp
	call	omp_get_thread_num
	movslq	%ebp, %r8
	xorl	%edx, %edx
	movslq	%eax, %rcx
	movq	%rbx, %rax
	divq	%r8
	cmpq	%rdx, %rcx
	jb	.L490
.L493:
	imulq	%rax, %rcx
	addq	%rcx, %rdx
	addq	%rdx, %rax
	cmpq	%rax, %rdx
	jnb	.L491
	leaq	0(,%rsi,8), %r10
	.p2align 4,,10
	.p2align 3
.L492:
	movq	56(%rdi), %rcx
	movq	24(%rdi), %r8
	movq	(%rcx,%r10), %rbx
	addq	%rdx, %rbx
	movzbl	(%rbx), %r9d
	addq	%r9, (%r8,%rdx,8)
	incq	%rdx
	movb	$0, (%rbx)
	cmpq	%rdx, %rax
	jne	.L492
	jmp	.L491
	.p2align 4,,10
	.p2align 3
.L490:
	incq	%rax
	xorl	%edx, %edx
	jmp	.L493
	.p2align 4,,10
	.p2align 3
.L486:
	addq	$40, %rsp
	popq	%rbx
	popq	%rsi
	popq	%rdi
	popq	%rbp
	ret
	.seh_handler	__gxx_personality_seh0, @unwind, @except
	.seh_handlerdata
.LLSDA18340:
	.byte	0xff
	.byte	0xff
	.byte	0x1
	.uleb128 .LLSDACSE18340-.LLSDACSB18340
.LLSDACSB18340:
.LLSDACSE18340:
	.text
	.seh_endproc
	.p2align 4
	.def	_ZN11Histogram2DIysE10accumulateIsEEvPT_S3_y._omp_fn.0;	.scl	3;	.type	32;	.endef
	.seh_proc	_ZN11Histogram2DIysE10accumulateIsEEvPT_S3_y._omp_fn.0
_ZN11Histogram2DIysE10accumulateIsEEvPT_S3_y._omp_fn.0:
.LFB18341:
	pushq	%r14
	.seh_pushreg	%r14
	pushq	%r13
	.seh_pushreg	%r13
	pushq	%r12
	.seh_pushreg	%r12
	pushq	%rbp
	.seh_pushreg	%rbp
	pushq	%rdi
	.seh_pushreg	%rdi
	pushq	%rsi
	.seh_pushreg	%rsi
	pushq	%rbx
	.seh_pushreg	%rbx
	subq	$32, %rsp
	.seh_stackalloc	32
	.seh_endprologue
	movq	(%rcx), %r13
	movl	36(%rcx), %ebx
	movl	32(%rcx), %edi
	movq	24(%rcx), %rbp
	movq	16(%rcx), %r12
	movq	8(%rcx), %rsi
	call	_Z22manage_thread_affinityv
	call	omp_get_thread_num
	movl	%eax, %r14d
	testq	%r13, %r13
	je	.L497
	call	omp_get_num_threads
	xorl	%edx, %edx
	movslq	%r14d, %r9
	movslq	%eax, %rcx
	movq	%r13, %rax
	divq	%rcx
	cmpq	%rdx, %r9
	jb	.L499
.L504:
	movq	%rax, %rcx
	imulq	%r9, %rcx
	addq	%rcx, %rdx
	addq	%rdx, %rax
	cmpq	%rax, %rdx
	jnb	.L497
	salq	$3, %r9
	.p2align 4,,10
	.p2align 3
.L503:
	movzbl	(%r12,%rdx), %ecx
	movzbl	0(%rbp,%rdx), %r8d
	sarx	%ebx, %ecx, %ecx
	sarx	%ebx, %r8d, %r8d
	shlx	%edi, %ecx, %ecx
	addl	%ecx, %r8d
	movq	56(%rsi), %rcx
	movq	(%rcx,%r9), %r10
	addq	%r8, %r10
	movzbl	(%r10), %ecx
	cmpb	$-1, %cl
	jne	.L501
	movq	24(%rsi), %rcx
	lock addq	$256, (%rcx,%r8,8)
	movq	56(%rsi), %rcx
	addq	(%rcx,%r9), %r8
	incb	(%r8)
	incq	%rdx
	cmpq	%rdx, %rax
	jne	.L503
	jmp	.L497
	.p2align 4,,10
	.p2align 3
.L501:
	incl	%ecx
	incq	%rdx
	movb	%cl, (%r10)
	cmpq	%rdx, %rax
	jne	.L503
	jmp	.L497
	.p2align 4,,10
	.p2align 3
.L499:
	incq	%rax
	xorl	%edx, %edx
	jmp	.L504
	.p2align 4,,10
	.p2align 3
.L497:
	addq	$32, %rsp
	popq	%rbx
	popq	%rsi
	popq	%rdi
	popq	%rbp
	popq	%r12
	popq	%r13
	popq	%r14
	ret
	.seh_handler	__gxx_personality_seh0, @unwind, @except
	.seh_handlerdata
.LLSDA18341:
	.byte	0xff
	.byte	0xff
	.byte	0x1
	.uleb128 .LLSDACSE18341-.LLSDACSB18341
.LLSDACSB18341:
.LLSDACSE18341:
	.text
	.seh_endproc
	.p2align 4
	.def	_ZN11Histogram2DIysE19reduction_and_resetEv._omp_fn.0;	.scl	3;	.type	32;	.endef
	.seh_proc	_ZN11Histogram2DIysE19reduction_and_resetEv._omp_fn.0
_ZN11Histogram2DIysE19reduction_and_resetEv._omp_fn.0:
.LFB18342:
	pushq	%rbp
	.seh_pushreg	%rbp
	pushq	%rdi
	.seh_pushreg	%rdi
	pushq	%rsi
	.seh_pushreg	%rsi
	pushq	%rbx
	.seh_pushreg	%rbx
	subq	$40, %rsp
	.seh_stackalloc	40
	.seh_endprologue
	movq	(%rcx), %rdi
	xorl	%esi, %esi
	call	_Z22manage_thread_affinityv
	movl	4(%rdi), %eax
	testl	%eax, %eax
	jle	.L505
	.p2align 4,,10
	.p2align 3
.L506:
	movl	(%rdi), %eax
	imull	%eax, %eax
	movl	%eax, %ebx
	testl	%eax, %eax
	jne	.L507
	.p2align 4,,10
	.p2align 3
.L510:
	call	GOMP_barrier
	incq	%rsi
	cmpl	%esi, 4(%rdi)
	jg	.L506
	jmp	.L505
	.p2align 4,,10
	.p2align 3
.L507:
	call	omp_get_num_threads
	movl	%eax, %ebp
	call	omp_get_thread_num
	movslq	%ebp, %r8
	xorl	%edx, %edx
	movslq	%eax, %rcx
	movq	%rbx, %rax
	divq	%r8
	cmpq	%rdx, %rcx
	jb	.L509
.L512:
	imulq	%rax, %rcx
	addq	%rcx, %rdx
	addq	%rdx, %rax
	cmpq	%rax, %rdx
	jnb	.L510
	leaq	0(,%rsi,8), %r10
	.p2align 4,,10
	.p2align 3
.L511:
	movq	56(%rdi), %rcx
	movq	24(%rdi), %r8
	movq	(%rcx,%r10), %rbx
	addq	%rdx, %rbx
	movzbl	(%rbx), %r9d
	addq	%r9, (%r8,%rdx,8)
	incq	%rdx
	movb	$0, (%rbx)
	cmpq	%rdx, %rax
	jne	.L511
	jmp	.L510
	.p2align 4,,10
	.p2align 3
.L509:
	incq	%rax
	xorl	%edx, %edx
	jmp	.L512
	.p2align 4,,10
	.p2align 3
.L505:
	addq	$40, %rsp
	popq	%rbx
	popq	%rsi
	popq	%rdi
	popq	%rbp
	ret
	.seh_handler	__gxx_personality_seh0, @unwind, @except
	.seh_handlerdata
.LLSDA18342:
	.byte	0xff
	.byte	0xff
	.byte	0x1
	.uleb128 .LLSDACSE18342-.LLSDACSB18342
.LLSDACSB18342:
.LLSDACSE18342:
	.text
	.seh_endproc
	.p2align 4
	.def	_ZN11Histogram2DIjdE10accumulateIdEEvPT_S3_y._omp_fn.0;	.scl	3;	.type	32;	.endef
	.seh_proc	_ZN11Histogram2DIjdE10accumulateIdEEvPT_S3_y._omp_fn.0
_ZN11Histogram2DIjdE10accumulateIdEEvPT_S3_y._omp_fn.0:
.LFB18343:
	pushq	%r12
	.seh_pushreg	%r12
	pushq	%rbp
	.seh_pushreg	%rbp
	pushq	%rdi
	.seh_pushreg	%rdi
	pushq	%rsi
	.seh_pushreg	%rsi
	pushq	%rbx
	.seh_pushreg	%rbx
	subq	$48, %rsp
	.seh_stackalloc	48
	vmovaps	%xmm6, 32(%rsp)
	.seh_savexmm	%xmm6, 32
	.seh_endprologue
	movq	16(%rcx), %rbp
	vmovsd	32(%rcx), %xmm6
	movq	24(%rcx), %rbx
	movq	8(%rcx), %rsi
	movq	(%rcx), %rdi
	call	_Z22manage_thread_affinityv
	call	omp_get_thread_num
	movl	%eax, %r12d
	testq	%rbp, %rbp
	jne	.L517
.L519:
	vmovaps	32(%rsp), %xmm6
	addq	$48, %rsp
	popq	%rbx
	popq	%rsi
	popq	%rdi
	popq	%rbp
	popq	%r12
	jmp	GOMP_barrier
	.p2align 4,,10
	.p2align 3
.L517:
	call	omp_get_num_threads
	xorl	%edx, %edx
	movslq	%r12d, %r9
	movslq	%eax, %rcx
	movq	%rbp, %rax
	divq	%rcx
	cmpq	%rdx, %r9
	jb	.L518
.L529:
	movq	%rax, %rcx
	imulq	%r9, %rcx
	addq	%rcx, %rdx
	addq	%rdx, %rax
	cmpq	%rax, %rdx
	jnb	.L519
	vmovq	.LC0(%rip), %xmm4
	salq	$3, %r9
	vmovapd	%xmm4, %xmm5
	.p2align 4,,10
	.p2align 3
.L528:
	vmovsd	64(%rbx), %xmm0
	vmovsd	(%rdi,%rdx,8), %xmm1
	vmovsd	(%rsi,%rdx,8), %xmm2
	movl	(%rbx), %r8d
	vcomisd	%xmm0, %xmm1
	jb	.L533
	leal	-1(%r8), %ecx
	movzwl	%cx, %ecx
	imull	%r8d, %ecx
	jmp	.L522
	.p2align 4,,10
	.p2align 3
.L533:
	vmovapd	%xmm0, %xmm3
	xorl	%ecx, %ecx
	vxorpd	%xmm4, %xmm3, %xmm3
	vcomisd	%xmm1, %xmm3
	ja	.L522
	vaddsd	%xmm1, %xmm0, %xmm1
	vdivsd	%xmm6, %xmm1, %xmm1
	vcvttsd2sil	%xmm1, %ecx
	movzwl	%cx, %ecx
	imull	%r8d, %ecx
.L522:
	vcomisd	%xmm0, %xmm2
	jb	.L534
	decl	%r8d
	movzwl	%r8w, %r8d
	addl	%r8d, %ecx
	jmp	.L525
	.p2align 4,,10
	.p2align 3
.L534:
	vmovapd	%xmm0, %xmm1
	vxorpd	%xmm5, %xmm1, %xmm1
	vcomisd	%xmm2, %xmm1
	ja	.L525
	vaddsd	%xmm2, %xmm0, %xmm0
	vdivsd	%xmm6, %xmm0, %xmm0
	vcvttsd2sil	%xmm0, %r8d
	movzwl	%r8w, %r8d
	addl	%r8d, %ecx
.L525:
	movq	56(%rbx), %r8
	movq	(%r8,%r9), %r10
	addq	%rcx, %r10
	movzbl	(%r10), %r8d
	cmpb	$-1, %r8b
	jne	.L526
	movq	24(%rbx), %r8
	lock addl	$256, (%r8,%rcx,4)
	movq	56(%rbx), %r8
	addq	(%r8,%r9), %rcx
	incb	(%rcx)
	incq	%rdx
	cmpq	%rax, %rdx
	jne	.L528
	jmp	.L519
	.p2align 4,,10
	.p2align 3
.L526:
	incl	%r8d
	incq	%rdx
	movb	%r8b, (%r10)
	cmpq	%rdx, %rax
	jne	.L528
	jmp	.L519
	.p2align 4,,10
	.p2align 3
.L518:
	incq	%rax
	xorl	%edx, %edx
	jmp	.L529
	.seh_handler	__gxx_personality_seh0, @unwind, @except
	.seh_handlerdata
.LLSDA18343:
	.byte	0xff
	.byte	0xff
	.byte	0x1
	.uleb128 .LLSDACSE18343-.LLSDACSB18343
.LLSDACSB18343:
.LLSDACSE18343:
	.text
	.seh_endproc
	.p2align 4
	.def	_ZN11Histogram2DIjdE19reduction_and_resetEv._omp_fn.0;	.scl	3;	.type	32;	.endef
	.seh_proc	_ZN11Histogram2DIjdE19reduction_and_resetEv._omp_fn.0
_ZN11Histogram2DIjdE19reduction_and_resetEv._omp_fn.0:
.LFB18344:
	pushq	%rbp
	.seh_pushreg	%rbp
	pushq	%rdi
	.seh_pushreg	%rdi
	pushq	%rsi
	.seh_pushreg	%rsi
	pushq	%rbx
	.seh_pushreg	%rbx
	subq	$40, %rsp
	.seh_stackalloc	40
	.seh_endprologue
	movq	(%rcx), %rdi
	xorl	%esi, %esi
	call	_Z22manage_thread_affinityv
	movl	4(%rdi), %eax
	testl	%eax, %eax
	jle	.L535
	.p2align 4,,10
	.p2align 3
.L536:
	movl	(%rdi), %eax
	imull	%eax, %eax
	movl	%eax, %ebx
	testl	%eax, %eax
	jne	.L537
	.p2align 4,,10
	.p2align 3
.L540:
	call	GOMP_barrier
	incq	%rsi
	cmpl	%esi, 4(%rdi)
	jg	.L536
	jmp	.L535
	.p2align 4,,10
	.p2align 3
.L537:
	call	omp_get_num_threads
	movl	%eax, %ebp
	call	omp_get_thread_num
	movslq	%ebp, %r8
	xorl	%edx, %edx
	movslq	%eax, %rcx
	movq	%rbx, %rax
	divq	%r8
	cmpq	%rdx, %rcx
	jb	.L539
.L542:
	imulq	%rax, %rcx
	addq	%rcx, %rdx
	addq	%rdx, %rax
	cmpq	%rax, %rdx
	jnb	.L540
	leaq	0(,%rsi,8), %r10
	.p2align 4,,10
	.p2align 3
.L541:
	movq	56(%rdi), %rcx
	movq	24(%rdi), %r8
	movq	(%rcx,%r10), %rbx
	addq	%rdx, %rbx
	movzbl	(%rbx), %r9d
	addl	%r9d, (%r8,%rdx,4)
	incq	%rdx
	movb	$0, (%rbx)
	cmpq	%rdx, %rax
	jne	.L541
	jmp	.L540
	.p2align 4,,10
	.p2align 3
.L539:
	incq	%rax
	xorl	%edx, %edx
	jmp	.L542
	.p2align 4,,10
	.p2align 3
.L535:
	addq	$40, %rsp
	popq	%rbx
	popq	%rsi
	popq	%rdi
	popq	%rbp
	ret
	.seh_handler	__gxx_personality_seh0, @unwind, @except
	.seh_handlerdata
.LLSDA18344:
	.byte	0xff
	.byte	0xff
	.byte	0x1
	.uleb128 .LLSDACSE18344-.LLSDACSB18344
.LLSDACSB18344:
.LLSDACSE18344:
	.text
	.seh_endproc
	.p2align 4
	.def	_ZN11Histogram2DIjfE10accumulateIfEEvPT_S3_y._omp_fn.0;	.scl	3;	.type	32;	.endef
	.seh_proc	_ZN11Histogram2DIjfE10accumulateIfEEvPT_S3_y._omp_fn.0
_ZN11Histogram2DIjfE10accumulateIfEEvPT_S3_y._omp_fn.0:
.LFB18345:
	pushq	%r12
	.seh_pushreg	%r12
	pushq	%rbp
	.seh_pushreg	%rbp
	pushq	%rdi
	.seh_pushreg	%rdi
	pushq	%rsi
	.seh_pushreg	%rsi
	pushq	%rbx
	.seh_pushreg	%rbx
	subq	$48, %rsp
	.seh_stackalloc	48
	vmovaps	%xmm6, 32(%rsp)
	.seh_savexmm	%xmm6, 32
	.seh_endprologue
	movq	16(%rcx), %rbp
	vmovss	32(%rcx), %xmm6
	movq	24(%rcx), %rbx
	movq	8(%rcx), %rsi
	movq	(%rcx), %rdi
	call	_Z22manage_thread_affinityv
	call	omp_get_thread_num
	movl	%eax, %r12d
	testq	%rbp, %rbp
	jne	.L547
.L549:
	vmovaps	32(%rsp), %xmm6
	addq	$48, %rsp
	popq	%rbx
	popq	%rsi
	popq	%rdi
	popq	%rbp
	popq	%r12
	jmp	GOMP_barrier
	.p2align 4,,10
	.p2align 3
.L547:
	call	omp_get_num_threads
	xorl	%edx, %edx
	movslq	%r12d, %r9
	movslq	%eax, %rcx
	movq	%rbp, %rax
	divq	%rcx
	cmpq	%rdx, %r9
	jb	.L548
.L559:
	movq	%rax, %rcx
	imulq	%r9, %rcx
	addq	%rcx, %rdx
	addq	%rdx, %rax
	cmpq	%rax, %rdx
	jnb	.L549
	vmovss	.LC2(%rip), %xmm4
	salq	$3, %r9
	vmovaps	%xmm4, %xmm5
	.p2align 4,,10
	.p2align 3
.L558:
	vmovss	64(%rbx), %xmm0
	vmovss	(%rdi,%rdx,4), %xmm1
	vmovss	(%rsi,%rdx,4), %xmm2
	movl	(%rbx), %r8d
	vcomiss	%xmm0, %xmm1
	jb	.L563
	leal	-1(%r8), %ecx
	movzwl	%cx, %ecx
	imull	%r8d, %ecx
	jmp	.L552
	.p2align 4,,10
	.p2align 3
.L563:
	vmovaps	%xmm0, %xmm3
	xorl	%ecx, %ecx
	vxorps	%xmm4, %xmm3, %xmm3
	vcomiss	%xmm1, %xmm3
	ja	.L552
	vaddss	%xmm1, %xmm0, %xmm1
	vdivss	%xmm6, %xmm1, %xmm1
	vcvttss2sil	%xmm1, %ecx
	movzwl	%cx, %ecx
	imull	%r8d, %ecx
.L552:
	vcomiss	%xmm0, %xmm2
	jb	.L564
	decl	%r8d
	movzwl	%r8w, %r8d
	addl	%r8d, %ecx
	jmp	.L555
	.p2align 4,,10
	.p2align 3
.L564:
	vmovaps	%xmm0, %xmm1
	vxorps	%xmm5, %xmm1, %xmm1
	vcomiss	%xmm2, %xmm1
	ja	.L555
	vaddss	%xmm2, %xmm0, %xmm0
	vdivss	%xmm6, %xmm0, %xmm0
	vcvttss2sil	%xmm0, %r8d
	movzwl	%r8w, %r8d
	addl	%r8d, %ecx
.L555:
	movq	56(%rbx), %r8
	movq	(%r8,%r9), %r10
	addq	%rcx, %r10
	movzbl	(%r10), %r8d
	cmpb	$-1, %r8b
	jne	.L556
	movq	24(%rbx), %r8
	lock addl	$256, (%r8,%rcx,4)
	movq	56(%rbx), %r8
	addq	(%r8,%r9), %rcx
	incb	(%rcx)
	incq	%rdx
	cmpq	%rax, %rdx
	jne	.L558
	jmp	.L549
	.p2align 4,,10
	.p2align 3
.L556:
	incl	%r8d
	incq	%rdx
	movb	%r8b, (%r10)
	cmpq	%rdx, %rax
	jne	.L558
	jmp	.L549
	.p2align 4,,10
	.p2align 3
.L548:
	incq	%rax
	xorl	%edx, %edx
	jmp	.L559
	.seh_handler	__gxx_personality_seh0, @unwind, @except
	.seh_handlerdata
.LLSDA18345:
	.byte	0xff
	.byte	0xff
	.byte	0x1
	.uleb128 .LLSDACSE18345-.LLSDACSB18345
.LLSDACSB18345:
.LLSDACSE18345:
	.text
	.seh_endproc
	.p2align 4
	.def	_ZN11Histogram2DIjfE19reduction_and_resetEv._omp_fn.0;	.scl	3;	.type	32;	.endef
	.seh_proc	_ZN11Histogram2DIjfE19reduction_and_resetEv._omp_fn.0
_ZN11Histogram2DIjfE19reduction_and_resetEv._omp_fn.0:
.LFB18346:
	pushq	%rbp
	.seh_pushreg	%rbp
	pushq	%rdi
	.seh_pushreg	%rdi
	pushq	%rsi
	.seh_pushreg	%rsi
	pushq	%rbx
	.seh_pushreg	%rbx
	subq	$40, %rsp
	.seh_stackalloc	40
	.seh_endprologue
	movq	(%rcx), %rdi
	xorl	%esi, %esi
	call	_Z22manage_thread_affinityv
	movl	4(%rdi), %eax
	testl	%eax, %eax
	jle	.L565
	.p2align 4,,10
	.p2align 3
.L566:
	movl	(%rdi), %eax
	imull	%eax, %eax
	movl	%eax, %ebx
	testl	%eax, %eax
	jne	.L567
	.p2align 4,,10
	.p2align 3
.L570:
	call	GOMP_barrier
	incq	%rsi
	cmpl	%esi, 4(%rdi)
	jg	.L566
	jmp	.L565
	.p2align 4,,10
	.p2align 3
.L567:
	call	omp_get_num_threads
	movl	%eax, %ebp
	call	omp_get_thread_num
	movslq	%ebp, %r8
	xorl	%edx, %edx
	movslq	%eax, %rcx
	movq	%rbx, %rax
	divq	%r8
	cmpq	%rdx, %rcx
	jb	.L569
.L572:
	imulq	%rax, %rcx
	addq	%rcx, %rdx
	addq	%rdx, %rax
	cmpq	%rax, %rdx
	jnb	.L570
	leaq	0(,%rsi,8), %r10
	.p2align 4,,10
	.p2align 3
.L571:
	movq	56(%rdi), %rcx
	movq	24(%rdi), %r8
	movq	(%rcx,%r10), %rbx
	addq	%rdx, %rbx
	movzbl	(%rbx), %r9d
	addl	%r9d, (%r8,%rdx,4)
	incq	%rdx
	movb	$0, (%rbx)
	cmpq	%rdx, %rax
	jne	.L571
	jmp	.L570
	.p2align 4,,10
	.p2align 3
.L569:
	incq	%rax
	xorl	%edx, %edx
	jmp	.L572
	.p2align 4,,10
	.p2align 3
.L565:
	addq	$40, %rsp
	popq	%rbx
	popq	%rsi
	popq	%rdi
	popq	%rbp
	ret
	.seh_handler	__gxx_personality_seh0, @unwind, @except
	.seh_handlerdata
.LLSDA18346:
	.byte	0xff
	.byte	0xff
	.byte	0x1
	.uleb128 .LLSDACSE18346-.LLSDACSB18346
.LLSDACSB18346:
.LLSDACSE18346:
	.text
	.seh_endproc
	.p2align 4
	.def	_ZN11Histogram2DIjhE10accumulateIhEEvPT_S3_y._omp_fn.0;	.scl	3;	.type	32;	.endef
	.seh_proc	_ZN11Histogram2DIjhE10accumulateIhEEvPT_S3_y._omp_fn.0
_ZN11Histogram2DIjhE10accumulateIhEEvPT_S3_y._omp_fn.0:
.LFB18347:
	pushq	%r12
	.seh_pushreg	%r12
	pushq	%rbp
	.seh_pushreg	%rbp
	pushq	%rdi
	.seh_pushreg	%rdi
	pushq	%rsi
	.seh_pushreg	%rsi
	pushq	%rbx
	.seh_pushreg	%rbx
	subq	$32, %rsp
	.seh_stackalloc	32
	.seh_endprologue
	movq	16(%rcx), %rbp
	movq	24(%rcx), %rbx
	movq	8(%rcx), %rsi
	movq	(%rcx), %rdi
	call	_Z22manage_thread_affinityv
	call	omp_get_thread_num
	movl	%eax, %r12d
	testq	%rbp, %rbp
	je	.L576
	call	omp_get_num_threads
	xorl	%edx, %edx
	movslq	%r12d, %r9
	movslq	%eax, %rcx
	movq	%rbp, %rax
	divq	%rcx
	cmpq	%rdx, %r9
	jb	.L578
.L583:
	movq	%rax, %rcx
	imulq	%r9, %rcx
	addq	%rcx, %rdx
	addq	%rdx, %rax
	cmpq	%rax, %rdx
	jnb	.L576
	salq	$3, %r9
	.p2align 4,,10
	.p2align 3
.L582:
	movzbl	(%rdi,%rdx), %ecx
	movzbl	(%rsi,%rdx), %r8d
	sall	$8, %ecx
	addl	%r8d, %ecx
	movq	56(%rbx), %r8
	movslq	%ecx, %rcx
	movq	(%r8,%r9), %r10
	addq	%rcx, %r10
	movzbl	(%r10), %r8d
	cmpb	$-1, %r8b
	jne	.L580
	movq	24(%rbx), %r8
	lock addl	$256, (%r8,%rcx,4)
	movq	56(%rbx), %r8
	addq	(%r8,%r9), %rcx
	incb	(%rcx)
	incq	%rdx
	cmpq	%rdx, %rax
	jne	.L582
	jmp	.L576
	.p2align 4,,10
	.p2align 3
.L580:
	incl	%r8d
	incq	%rdx
	movb	%r8b, (%r10)
	cmpq	%rdx, %rax
	jne	.L582
	jmp	.L576
	.p2align 4,,10
	.p2align 3
.L578:
	incq	%rax
	xorl	%edx, %edx
	jmp	.L583
	.p2align 4,,10
	.p2align 3
.L576:
	addq	$32, %rsp
	popq	%rbx
	popq	%rsi
	popq	%rdi
	popq	%rbp
	popq	%r12
	ret
	.seh_handler	__gxx_personality_seh0, @unwind, @except
	.seh_handlerdata
.LLSDA18347:
	.byte	0xff
	.byte	0xff
	.byte	0x1
	.uleb128 .LLSDACSE18347-.LLSDACSB18347
.LLSDACSB18347:
.LLSDACSE18347:
	.text
	.seh_endproc
	.p2align 4
	.def	_ZN11Histogram2DIjhE19reduction_and_resetEv._omp_fn.0;	.scl	3;	.type	32;	.endef
	.seh_proc	_ZN11Histogram2DIjhE19reduction_and_resetEv._omp_fn.0
_ZN11Histogram2DIjhE19reduction_and_resetEv._omp_fn.0:
.LFB18348:
	pushq	%rbp
	.seh_pushreg	%rbp
	pushq	%rdi
	.seh_pushreg	%rdi
	pushq	%rsi
	.seh_pushreg	%rsi
	pushq	%rbx
	.seh_pushreg	%rbx
	subq	$40, %rsp
	.seh_stackalloc	40
	.seh_endprologue
	movq	(%rcx), %rdi
	xorl	%esi, %esi
	call	_Z22manage_thread_affinityv
	movl	4(%rdi), %eax
	testl	%eax, %eax
	jle	.L584
	.p2align 4,,10
	.p2align 3
.L585:
	movl	(%rdi), %eax
	imull	%eax, %eax
	movl	%eax, %ebx
	testl	%eax, %eax
	jne	.L586
	.p2align 4,,10
	.p2align 3
.L589:
	call	GOMP_barrier
	incq	%rsi
	cmpl	%esi, 4(%rdi)
	jg	.L585
	jmp	.L584
	.p2align 4,,10
	.p2align 3
.L586:
	call	omp_get_num_threads
	movl	%eax, %ebp
	call	omp_get_thread_num
	movslq	%ebp, %r8
	xorl	%edx, %edx
	movslq	%eax, %rcx
	movq	%rbx, %rax
	divq	%r8
	cmpq	%rdx, %rcx
	jb	.L588
.L591:
	imulq	%rax, %rcx
	addq	%rcx, %rdx
	addq	%rdx, %rax
	cmpq	%rax, %rdx
	jnb	.L589
	leaq	0(,%rsi,8), %r10
	.p2align 4,,10
	.p2align 3
.L590:
	movq	56(%rdi), %rcx
	movq	24(%rdi), %r8
	movq	(%rcx,%r10), %rbx
	addq	%rdx, %rbx
	movzbl	(%rbx), %r9d
	addl	%r9d, (%r8,%rdx,4)
	incq	%rdx
	movb	$0, (%rbx)
	cmpq	%rdx, %rax
	jne	.L590
	jmp	.L589
	.p2align 4,,10
	.p2align 3
.L588:
	incq	%rax
	xorl	%edx, %edx
	jmp	.L591
	.p2align 4,,10
	.p2align 3
.L584:
	addq	$40, %rsp
	popq	%rbx
	popq	%rsi
	popq	%rdi
	popq	%rbp
	ret
	.seh_handler	__gxx_personality_seh0, @unwind, @except
	.seh_handlerdata
.LLSDA18348:
	.byte	0xff
	.byte	0xff
	.byte	0x1
	.uleb128 .LLSDACSE18348-.LLSDACSB18348
.LLSDACSB18348:
.LLSDACSE18348:
	.text
	.seh_endproc
	.p2align 4
	.def	_ZN11Histogram2DIjtE10accumulateItEEvPT_S3_y._omp_fn.0;	.scl	3;	.type	32;	.endef
	.seh_proc	_ZN11Histogram2DIjtE10accumulateItEEvPT_S3_y._omp_fn.0
_ZN11Histogram2DIjtE10accumulateItEEvPT_S3_y._omp_fn.0:
.LFB18349:
	pushq	%r14
	.seh_pushreg	%r14
	pushq	%r13
	.seh_pushreg	%r13
	pushq	%r12
	.seh_pushreg	%r12
	pushq	%rbp
	.seh_pushreg	%rbp
	pushq	%rdi
	.seh_pushreg	%rdi
	pushq	%rsi
	.seh_pushreg	%rsi
	pushq	%rbx
	.seh_pushreg	%rbx
	subq	$32, %rsp
	.seh_stackalloc	32
	.seh_endprologue
	movq	16(%rcx), %r13
	movl	36(%rcx), %ebx
	movl	32(%rcx), %edi
	movq	24(%rcx), %rsi
	movq	8(%rcx), %rbp
	movq	(%rcx), %r12
	call	_Z22manage_thread_affinityv
	call	omp_get_thread_num
	movl	%eax, %r14d
	testq	%r13, %r13
	je	.L595
	call	omp_get_num_threads
	xorl	%edx, %edx
	movslq	%r14d, %r9
	movslq	%eax, %rcx
	movq	%r13, %rax
	divq	%rcx
	cmpq	%rdx, %r9
	jb	.L597
.L602:
	movq	%rax, %rcx
	imulq	%r9, %rcx
	addq	%rcx, %rdx
	addq	%rdx, %rax
	cmpq	%rax, %rdx
	jnb	.L595
	salq	$3, %r9
	.p2align 4,,10
	.p2align 3
.L601:
	movzwl	(%r12,%rdx,2), %ecx
	movzwl	0(%rbp,%rdx,2), %r8d
	sarx	%ebx, %ecx, %ecx
	sarx	%ebx, %r8d, %r8d
	shlx	%edi, %ecx, %ecx
	addl	%ecx, %r8d
	movq	56(%rsi), %rcx
	movq	(%rcx,%r9), %r10
	addq	%r8, %r10
	movzbl	(%r10), %ecx
	cmpb	$-1, %cl
	jne	.L599
	movq	24(%rsi), %rcx
	lock addl	$256, (%rcx,%r8,4)
	movq	56(%rsi), %rcx
	addq	(%rcx,%r9), %r8
	incb	(%r8)
	incq	%rdx
	cmpq	%rdx, %rax
	jne	.L601
	jmp	.L595
	.p2align 4,,10
	.p2align 3
.L599:
	incl	%ecx
	incq	%rdx
	movb	%cl, (%r10)
	cmpq	%rdx, %rax
	jne	.L601
	jmp	.L595
	.p2align 4,,10
	.p2align 3
.L597:
	incq	%rax
	xorl	%edx, %edx
	jmp	.L602
	.p2align 4,,10
	.p2align 3
.L595:
	addq	$32, %rsp
	popq	%rbx
	popq	%rsi
	popq	%rdi
	popq	%rbp
	popq	%r12
	popq	%r13
	popq	%r14
	ret
	.seh_handler	__gxx_personality_seh0, @unwind, @except
	.seh_handlerdata
.LLSDA18349:
	.byte	0xff
	.byte	0xff
	.byte	0x1
	.uleb128 .LLSDACSE18349-.LLSDACSB18349
.LLSDACSB18349:
.LLSDACSE18349:
	.text
	.seh_endproc
	.p2align 4
	.def	_ZN11Histogram2DIjtE19reduction_and_resetEv._omp_fn.0;	.scl	3;	.type	32;	.endef
	.seh_proc	_ZN11Histogram2DIjtE19reduction_and_resetEv._omp_fn.0
_ZN11Histogram2DIjtE19reduction_and_resetEv._omp_fn.0:
.LFB18350:
	pushq	%rbp
	.seh_pushreg	%rbp
	pushq	%rdi
	.seh_pushreg	%rdi
	pushq	%rsi
	.seh_pushreg	%rsi
	pushq	%rbx
	.seh_pushreg	%rbx
	subq	$40, %rsp
	.seh_stackalloc	40
	.seh_endprologue
	movq	(%rcx), %rdi
	xorl	%esi, %esi
	call	_Z22manage_thread_affinityv
	movl	4(%rdi), %eax
	testl	%eax, %eax
	jle	.L603
	.p2align 4,,10
	.p2align 3
.L604:
	movl	(%rdi), %eax
	imull	%eax, %eax
	movl	%eax, %ebx
	testl	%eax, %eax
	jne	.L605
	.p2align 4,,10
	.p2align 3
.L608:
	call	GOMP_barrier
	incq	%rsi
	cmpl	%esi, 4(%rdi)
	jg	.L604
	jmp	.L603
	.p2align 4,,10
	.p2align 3
.L605:
	call	omp_get_num_threads
	movl	%eax, %ebp
	call	omp_get_thread_num
	movslq	%ebp, %r8
	xorl	%edx, %edx
	movslq	%eax, %rcx
	movq	%rbx, %rax
	divq	%r8
	cmpq	%rdx, %rcx
	jb	.L607
.L610:
	imulq	%rax, %rcx
	addq	%rcx, %rdx
	addq	%rdx, %rax
	cmpq	%rax, %rdx
	jnb	.L608
	leaq	0(,%rsi,8), %r10
	.p2align 4,,10
	.p2align 3
.L609:
	movq	56(%rdi), %rcx
	movq	24(%rdi), %r8
	movq	(%rcx,%r10), %rbx
	addq	%rdx, %rbx
	movzbl	(%rbx), %r9d
	addl	%r9d, (%r8,%rdx,4)
	incq	%rdx
	movb	$0, (%rbx)
	cmpq	%rdx, %rax
	jne	.L609
	jmp	.L608
	.p2align 4,,10
	.p2align 3
.L607:
	incq	%rax
	xorl	%edx, %edx
	jmp	.L610
	.p2align 4,,10
	.p2align 3
.L603:
	addq	$40, %rsp
	popq	%rbx
	popq	%rsi
	popq	%rdi
	popq	%rbp
	ret
	.seh_handler	__gxx_personality_seh0, @unwind, @except
	.seh_handlerdata
.LLSDA18350:
	.byte	0xff
	.byte	0xff
	.byte	0x1
	.uleb128 .LLSDACSE18350-.LLSDACSB18350
.LLSDACSB18350:
.LLSDACSE18350:
	.text
	.seh_endproc
	.p2align 4
	.def	_ZN11Histogram2DIjaE10accumulateIaEEvPT_S3_y._omp_fn.0;	.scl	3;	.type	32;	.endef
	.seh_proc	_ZN11Histogram2DIjaE10accumulateIaEEvPT_S3_y._omp_fn.0
_ZN11Histogram2DIjaE10accumulateIaEEvPT_S3_y._omp_fn.0:
.LFB18351:
	pushq	%r12
	.seh_pushreg	%r12
	pushq	%rbp
	.seh_pushreg	%rbp
	pushq	%rdi
	.seh_pushreg	%rdi
	pushq	%rsi
	.seh_pushreg	%rsi
	pushq	%rbx
	.seh_pushreg	%rbx
	subq	$32, %rsp
	.seh_stackalloc	32
	.seh_endprologue
	movq	(%rcx), %rbp
	movq	24(%rcx), %rsi
	movq	16(%rcx), %rdi
	movq	8(%rcx), %rbx
	call	_Z22manage_thread_affinityv
	call	omp_get_thread_num
	movl	%eax, %r12d
	testq	%rbp, %rbp
	je	.L614
	call	omp_get_num_threads
	xorl	%edx, %edx
	movslq	%r12d, %r9
	movslq	%eax, %rcx
	movq	%rbp, %rax
	divq	%rcx
	cmpq	%rdx, %r9
	jb	.L616
.L621:
	movq	%rax, %rcx
	imulq	%r9, %rcx
	addq	%rcx, %rdx
	addq	%rdx, %rax
	cmpq	%rax, %rdx
	jnb	.L614
	salq	$3, %r9
	.p2align 4,,10
	.p2align 3
.L620:
	movzbl	(%rdi,%rdx), %ecx
	movzbl	(%rsi,%rdx), %r8d
	sall	$8, %ecx
	addl	%r8d, %ecx
	movq	56(%rbx), %r8
	movslq	%ecx, %rcx
	movq	(%r8,%r9), %r10
	addq	%rcx, %r10
	movzbl	(%r10), %r8d
	cmpb	$-1, %r8b
	jne	.L618
	movq	24(%rbx), %r8
	lock addl	$256, (%r8,%rcx,4)
	movq	56(%rbx), %r8
	addq	(%r8,%r9), %rcx
	incb	(%rcx)
	incq	%rdx
	cmpq	%rdx, %rax
	jne	.L620
	jmp	.L614
	.p2align 4,,10
	.p2align 3
.L618:
	incl	%r8d
	incq	%rdx
	movb	%r8b, (%r10)
	cmpq	%rdx, %rax
	jne	.L620
	jmp	.L614
	.p2align 4,,10
	.p2align 3
.L616:
	incq	%rax
	xorl	%edx, %edx
	jmp	.L621
	.p2align 4,,10
	.p2align 3
.L614:
	addq	$32, %rsp
	popq	%rbx
	popq	%rsi
	popq	%rdi
	popq	%rbp
	popq	%r12
	ret
	.seh_handler	__gxx_personality_seh0, @unwind, @except
	.seh_handlerdata
.LLSDA18351:
	.byte	0xff
	.byte	0xff
	.byte	0x1
	.uleb128 .LLSDACSE18351-.LLSDACSB18351
.LLSDACSB18351:
.LLSDACSE18351:
	.text
	.seh_endproc
	.p2align 4
	.def	_ZN11Histogram2DIjaE19reduction_and_resetEv._omp_fn.0;	.scl	3;	.type	32;	.endef
	.seh_proc	_ZN11Histogram2DIjaE19reduction_and_resetEv._omp_fn.0
_ZN11Histogram2DIjaE19reduction_and_resetEv._omp_fn.0:
.LFB18352:
	pushq	%rbp
	.seh_pushreg	%rbp
	pushq	%rdi
	.seh_pushreg	%rdi
	pushq	%rsi
	.seh_pushreg	%rsi
	pushq	%rbx
	.seh_pushreg	%rbx
	subq	$40, %rsp
	.seh_stackalloc	40
	.seh_endprologue
	movq	(%rcx), %rdi
	xorl	%esi, %esi
	call	_Z22manage_thread_affinityv
	movl	4(%rdi), %eax
	testl	%eax, %eax
	jle	.L622
	.p2align 4,,10
	.p2align 3
.L623:
	movl	(%rdi), %eax
	imull	%eax, %eax
	movl	%eax, %ebx
	testl	%eax, %eax
	jne	.L624
	.p2align 4,,10
	.p2align 3
.L627:
	call	GOMP_barrier
	incq	%rsi
	cmpl	%esi, 4(%rdi)
	jg	.L623
	jmp	.L622
	.p2align 4,,10
	.p2align 3
.L624:
	call	omp_get_num_threads
	movl	%eax, %ebp
	call	omp_get_thread_num
	movslq	%ebp, %r8
	xorl	%edx, %edx
	movslq	%eax, %rcx
	movq	%rbx, %rax
	divq	%r8
	cmpq	%rdx, %rcx
	jb	.L626
.L629:
	imulq	%rax, %rcx
	addq	%rcx, %rdx
	addq	%rdx, %rax
	cmpq	%rax, %rdx
	jnb	.L627
	leaq	0(,%rsi,8), %r10
	.p2align 4,,10
	.p2align 3
.L628:
	movq	56(%rdi), %rcx
	movq	24(%rdi), %r8
	movq	(%rcx,%r10), %rbx
	addq	%rdx, %rbx
	movzbl	(%rbx), %r9d
	addl	%r9d, (%r8,%rdx,4)
	incq	%rdx
	movb	$0, (%rbx)
	cmpq	%rdx, %rax
	jne	.L628
	jmp	.L627
	.p2align 4,,10
	.p2align 3
.L626:
	incq	%rax
	xorl	%edx, %edx
	jmp	.L629
	.p2align 4,,10
	.p2align 3
.L622:
	addq	$40, %rsp
	popq	%rbx
	popq	%rsi
	popq	%rdi
	popq	%rbp
	ret
	.seh_handler	__gxx_personality_seh0, @unwind, @except
	.seh_handlerdata
.LLSDA18352:
	.byte	0xff
	.byte	0xff
	.byte	0x1
	.uleb128 .LLSDACSE18352-.LLSDACSB18352
.LLSDACSB18352:
.LLSDACSE18352:
	.text
	.seh_endproc
	.p2align 4
	.def	_ZN11Histogram2DIjsE10accumulateIsEEvPT_S3_y._omp_fn.0;	.scl	3;	.type	32;	.endef
	.seh_proc	_ZN11Histogram2DIjsE10accumulateIsEEvPT_S3_y._omp_fn.0
_ZN11Histogram2DIjsE10accumulateIsEEvPT_S3_y._omp_fn.0:
.LFB18353:
	pushq	%r14
	.seh_pushreg	%r14
	pushq	%r13
	.seh_pushreg	%r13
	pushq	%r12
	.seh_pushreg	%r12
	pushq	%rbp
	.seh_pushreg	%rbp
	pushq	%rdi
	.seh_pushreg	%rdi
	pushq	%rsi
	.seh_pushreg	%rsi
	pushq	%rbx
	.seh_pushreg	%rbx
	subq	$32, %rsp
	.seh_stackalloc	32
	.seh_endprologue
	movq	(%rcx), %r13
	movl	36(%rcx), %ebx
	movl	32(%rcx), %edi
	movq	24(%rcx), %rbp
	movq	16(%rcx), %r12
	movq	8(%rcx), %rsi
	call	_Z22manage_thread_affinityv
	call	omp_get_thread_num
	movl	%eax, %r14d
	testq	%r13, %r13
	je	.L633
	call	omp_get_num_threads
	xorl	%edx, %edx
	movslq	%r14d, %r9
	movslq	%eax, %rcx
	movq	%r13, %rax
	divq	%rcx
	cmpq	%rdx, %r9
	jb	.L635
.L640:
	movq	%rax, %rcx
	imulq	%r9, %rcx
	addq	%rcx, %rdx
	addq	%rdx, %rax
	cmpq	%rax, %rdx
	jnb	.L633
	salq	$3, %r9
	.p2align 4,,10
	.p2align 3
.L639:
	movzbl	(%r12,%rdx), %ecx
	movzbl	0(%rbp,%rdx), %r8d
	sarx	%ebx, %ecx, %ecx
	sarx	%ebx, %r8d, %r8d
	shlx	%edi, %ecx, %ecx
	addl	%ecx, %r8d
	movq	56(%rsi), %rcx
	movq	(%rcx,%r9), %r10
	addq	%r8, %r10
	movzbl	(%r10), %ecx
	cmpb	$-1, %cl
	jne	.L637
	movq	24(%rsi), %rcx
	lock addl	$256, (%rcx,%r8,4)
	movq	56(%rsi), %rcx
	addq	(%rcx,%r9), %r8
	incb	(%r8)
	incq	%rdx
	cmpq	%rdx, %rax
	jne	.L639
	jmp	.L633
	.p2align 4,,10
	.p2align 3
.L637:
	incl	%ecx
	incq	%rdx
	movb	%cl, (%r10)
	cmpq	%rdx, %rax
	jne	.L639
	jmp	.L633
	.p2align 4,,10
	.p2align 3
.L635:
	incq	%rax
	xorl	%edx, %edx
	jmp	.L640
	.p2align 4,,10
	.p2align 3
.L633:
	addq	$32, %rsp
	popq	%rbx
	popq	%rsi
	popq	%rdi
	popq	%rbp
	popq	%r12
	popq	%r13
	popq	%r14
	ret
	.seh_handler	__gxx_personality_seh0, @unwind, @except
	.seh_handlerdata
.LLSDA18353:
	.byte	0xff
	.byte	0xff
	.byte	0x1
	.uleb128 .LLSDACSE18353-.LLSDACSB18353
.LLSDACSB18353:
.LLSDACSE18353:
	.text
	.seh_endproc
	.p2align 4
	.def	_ZN11Histogram2DIjsE19reduction_and_resetEv._omp_fn.0;	.scl	3;	.type	32;	.endef
	.seh_proc	_ZN11Histogram2DIjsE19reduction_and_resetEv._omp_fn.0
_ZN11Histogram2DIjsE19reduction_and_resetEv._omp_fn.0:
.LFB18354:
	pushq	%rbp
	.seh_pushreg	%rbp
	pushq	%rdi
	.seh_pushreg	%rdi
	pushq	%rsi
	.seh_pushreg	%rsi
	pushq	%rbx
	.seh_pushreg	%rbx
	subq	$40, %rsp
	.seh_stackalloc	40
	.seh_endprologue
	movq	(%rcx), %rdi
	xorl	%esi, %esi
	call	_Z22manage_thread_affinityv
	movl	4(%rdi), %eax
	testl	%eax, %eax
	jle	.L641
	.p2align 4,,10
	.p2align 3
.L642:
	movl	(%rdi), %eax
	imull	%eax, %eax
	movl	%eax, %ebx
	testl	%eax, %eax
	jne	.L643
	.p2align 4,,10
	.p2align 3
.L646:
	call	GOMP_barrier
	incq	%rsi
	cmpl	%esi, 4(%rdi)
	jg	.L642
	jmp	.L641
	.p2align 4,,10
	.p2align 3
.L643:
	call	omp_get_num_threads
	movl	%eax, %ebp
	call	omp_get_thread_num
	movslq	%ebp, %r8
	xorl	%edx, %edx
	movslq	%eax, %rcx
	movq	%rbx, %rax
	divq	%r8
	cmpq	%rdx, %rcx
	jb	.L645
.L648:
	imulq	%rax, %rcx
	addq	%rcx, %rdx
	addq	%rdx, %rax
	cmpq	%rax, %rdx
	jnb	.L646
	leaq	0(,%rsi,8), %r10
	.p2align 4,,10
	.p2align 3
.L647:
	movq	56(%rdi), %rcx
	movq	24(%rdi), %r8
	movq	(%rcx,%r10), %rbx
	addq	%rdx, %rbx
	movzbl	(%rbx), %r9d
	addl	%r9d, (%r8,%rdx,4)
	incq	%rdx
	movb	$0, (%rbx)
	cmpq	%rdx, %rax
	jne	.L647
	jmp	.L646
	.p2align 4,,10
	.p2align 3
.L645:
	incq	%rax
	xorl	%edx, %edx
	jmp	.L648
	.p2align 4,,10
	.p2align 3
.L641:
	addq	$40, %rsp
	popq	%rbx
	popq	%rsi
	popq	%rdi
	popq	%rbp
	ret
	.seh_handler	__gxx_personality_seh0, @unwind, @except
	.seh_handlerdata
.LLSDA18354:
	.byte	0xff
	.byte	0xff
	.byte	0x1
	.uleb128 .LLSDACSE18354-.LLSDACSB18354
.LLSDACSB18354:
.LLSDACSE18354:
	.text
	.seh_endproc
	.section	.text$_ZN8pybind1110cast_errorD1Ev,"x"
	.linkonce discard
	.align 2
	.p2align 4
	.globl	_ZN8pybind1110cast_errorD1Ev
	.def	_ZN8pybind1110cast_errorD1Ev;	.scl	2;	.type	32;	.endef
	.seh_proc	_ZN8pybind1110cast_errorD1Ev
_ZN8pybind1110cast_errorD1Ev:
.LFB18269:
	.seh_endprologue
	leaq	16+_ZTVN8pybind1117builtin_exceptionE(%rip), %rax
	movq	%rax, (%rcx)
	jmp	_ZNSt13runtime_errorD2Ev
	.seh_endproc
	.section	.text$_ZN8pybind1110cast_errorD0Ev,"x"
	.linkonce discard
	.align 2
	.p2align 4
	.globl	_ZN8pybind1110cast_errorD0Ev
	.def	_ZN8pybind1110cast_errorD0Ev;	.scl	2;	.type	32;	.endef
	.seh_proc	_ZN8pybind1110cast_errorD0Ev
_ZN8pybind1110cast_errorD0Ev:
.LFB18270:
	pushq	%r12
	.seh_pushreg	%r12
	subq	$32, %rsp
	.seh_stackalloc	32
	.seh_endprologue
	leaq	16+_ZTVN8pybind1117builtin_exceptionE(%rip), %rax
	movq	%rax, (%rcx)
	movq	%rcx, %r12
	call	_ZNSt13runtime_errorD2Ev
	movl	$16, %edx
	movq	%r12, %rcx
	addq	$32, %rsp
	popq	%r12
	jmp	_ZdlPvy
	.seh_endproc
	.section	.text$_ZNK8pybind1110cast_error9set_errorEv,"x"
	.linkonce discard
	.align 2
	.p2align 4
	.globl	_ZNK8pybind1110cast_error9set_errorEv
	.def	_ZNK8pybind1110cast_error9set_errorEv;	.scl	2;	.type	32;	.endef
	.seh_proc	_ZNK8pybind1110cast_error9set_errorEv
_ZNK8pybind1110cast_error9set_errorEv:
.LFB9255:
	subq	$40, %rsp
	.seh_stackalloc	40
	.seh_endprologue
	movq	(%rcx), %rax
	call	*16(%rax)
	movq	%rax, %rdx
	movq	__imp_PyExc_RuntimeError(%rip), %rax
	movq	(%rax), %rcx
	addq	$40, %rsp
	rex.W jmp	*__imp_PyErr_SetString(%rip)
	.seh_endproc
	.text
	.p2align 4
	.def	_aligned_free;	.scl	3;	.type	32;	.endef
	.seh_proc	_aligned_free
_aligned_free:
.LFB283:
	.seh_endprologue
	testq	%rcx, %rcx
	je	.L657
	movq	-8(%rcx), %rcx
	jmp	free
	.p2align 4,,10
	.p2align 3
.L657:
	ret
	.seh_endproc
	.section	.text$_ZZN8pybind1112cpp_function18initialize_genericEPNS_6detail15function_recordEPKcPKPKSt9type_infoyENUlPvE_4_FUNESB_,"x"
	.linkonce discard
	.p2align 4
	.globl	_ZZN8pybind1112cpp_function18initialize_genericEPNS_6detail15function_recordEPKcPKPKSt9type_infoyENUlPvE_4_FUNESB_
	.def	_ZZN8pybind1112cpp_function18initialize_genericEPNS_6detail15function_recordEPKcPKPKSt9type_infoyENUlPvE_4_FUNESB_;	.scl	2;	.type	32;	.endef
	.seh_proc	_ZZN8pybind1112cpp_function18initialize_genericEPNS_6detail15function_recordEPKcPKPKSt9type_infoyENUlPvE_4_FUNESB_
_ZZN8pybind1112cpp_function18initialize_genericEPNS_6detail15function_recordEPKcPKPKSt9type_infoyENUlPvE_4_FUNESB_:
.LFB10951:
	pushq	%r12
	.seh_pushreg	%r12
	pushq	%rdi
	.seh_pushreg	%rdi
	pushq	%rsi
	.seh_pushreg	%rsi
	pushq	%rbx
	.seh_pushreg	%rbx
	subq	$40, %rsp
	.seh_stackalloc	40
	.seh_endprologue
	movq	%rcx, %r12
	testq	%rcx, %rcx
	je	.L688
	.p2align 4,,10
	.p2align 3
.L671:
	movq	80(%r12), %rax
	movq	120(%r12), %rsi
	testq	%rax, %rax
	je	.L660
	movq	%r12, %rcx
	call	*%rax
.L660:
	movq	(%r12), %rcx
	call	free
	movq	8(%r12), %rcx
	call	free
	movq	16(%r12), %rcx
	call	free
	movq	24(%r12), %rbx
	movq	32(%r12), %rdi
	cmpq	%rdi, %rbx
	je	.L661
	.p2align 4,,10
	.p2align 3
.L665:
	movq	(%rbx), %rcx
	call	free
	movq	8(%rbx), %rcx
	call	free
	movq	16(%rbx), %rcx
	testq	%rcx, %rcx
	je	.L663
	decq	(%rcx)
	jne	.L663
	movq	8(%rcx), %rax
	call	*48(%rax)
.L663:
	addq	$32, %rbx
	cmpq	%rbx, %rdi
	jne	.L665
.L661:
	movq	96(%r12), %rax
	testq	%rax, %rax
	je	.L667
	movq	24(%rax), %rcx
	call	free
	movq	96(%r12), %rcx
	testq	%rcx, %rcx
	je	.L667
	movl	$32, %edx
	call	_ZdlPvy
.L667:
	movq	24(%r12), %rcx
	testq	%rcx, %rcx
	je	.L669
	call	_ZdlPv
.L669:
	movl	$128, %edx
	movq	%r12, %rcx
	call	_ZdlPvy
	testq	%rsi, %rsi
	je	.L688
	movq	%rsi, %r12
	jmp	.L671
	.p2align 4,,10
	.p2align 3
.L688:
	addq	$40, %rsp
	popq	%rbx
	popq	%rsi
	popq	%rdi
	popq	%r12
	ret
	.seh_endproc
	.section .rdata,"dr"
.LC4:
	.ascii "Caught an unknown exception!\0"
	.section	.text$_ZZN8pybind116detail13get_internalsEvENUlNSt15__exception_ptr13exception_ptrEE_4_FUNES2_,"x"
	.linkonce discard
	.p2align 4
	.globl	_ZZN8pybind116detail13get_internalsEvENUlNSt15__exception_ptr13exception_ptrEE_4_FUNES2_
	.def	_ZZN8pybind116detail13get_internalsEvENUlNSt15__exception_ptr13exception_ptrEE_4_FUNES2_;	.scl	2;	.type	32;	.endef
	.seh_proc	_ZZN8pybind116detail13get_internalsEvENUlNSt15__exception_ptr13exception_ptrEE_4_FUNES2_
_ZZN8pybind116detail13get_internalsEvENUlNSt15__exception_ptr13exception_ptrEE_4_FUNES2_:
.LFB10354:
	pushq	%r13
	.seh_pushreg	%r13
	pushq	%r12
	.seh_pushreg	%r12
	pushq	%rbx
	.seh_pushreg	%rbx
	subq	$48, %rsp
	.seh_stackalloc	48
	.seh_endprologue
	cmpq	$0, (%rcx)
	je	.L689
	leaq	40(%rsp), %r13
	movq	%rcx, %rdx
	movq	%r13, %rcx
	call	_ZNSt15__exception_ptr13exception_ptrC1ERKS0_
	movq	%r13, %rcx
.LEHB0:
	call	_ZSt17rethrow_exceptionNSt15__exception_ptr13exception_ptrE
.LEHE0:
.L724:
	movq	%rax, %r12
	movq	%rdx, %rbx
	movq	%r13, %rcx
	vzeroupper
	call	_ZNSt15__exception_ptr13exception_ptrD1Ev
	leaq	-1(%rbx), %rax
	cmpq	$8, %rax
	ja	.L692
	leaq	.L694(%rip), %rdx
	movslq	(%rdx,%rax,4), %rax
	addq	%rdx, %rax
	jmp	*%rax
	.section .rdata,"dr"
	.align 4
.L694:
	.long	.L702-.L694
	.long	.L701-.L694
	.long	.L700-.L694
	.long	.L699-.L694
	.long	.L698-.L694
	.long	.L697-.L694
	.long	.L696-.L694
	.long	.L695-.L694
	.long	.L693-.L694
	.section	.text$_ZZN8pybind116detail13get_internalsEvENUlNSt15__exception_ptr13exception_ptrEE_4_FUNES2_,"x"
	.linkonce discard
.L702:
	movq	%r12, %rcx
	call	__cxa_begin_catch
	vpxor	%xmm0, %xmm0, %xmm0
	movq	32(%rax), %r8
	movq	24(%rax), %rdx
	movq	$0, 32(%rax)
	movq	16(%rax), %rcx
	vmovups	%xmm0, 16(%rax)
.LEHB1:
	call	*__imp_PyErr_Restore(%rip)
.LEHE1:
.L703:
.LEHB2:
	call	__cxa_end_catch
.LEHE2:
	jmp	.L689
.L701:
	movq	%r12, %rcx
	call	__cxa_begin_catch
	movq	%rax, %rcx
	movq	(%rax), %rax
.LEHB3:
	call	*24(%rax)
.LEHE3:
	jmp	.L703
.L700:
	movq	%r12, %rcx
	call	__cxa_begin_catch
	movq	%rax, %rcx
	movq	(%rax), %rax
	call	*16(%rax)
	movq	%rax, %rdx
	movq	__imp_PyExc_MemoryError(%rip), %rax
	movq	(%rax), %rcx
.LEHB4:
	call	*__imp_PyErr_SetString(%rip)
.LEHE4:
	jmp	.L703
.L699:
	movq	%r12, %rcx
	call	__cxa_begin_catch
	movq	%rax, %rcx
	movq	(%rax), %rax
	call	*16(%rax)
	movq	%rax, %rdx
	movq	__imp_PyExc_ValueError(%rip), %rax
	movq	(%rax), %rcx
.LEHB5:
	call	*__imp_PyErr_SetString(%rip)
.LEHE5:
	jmp	.L703
.L698:
	movq	%r12, %rcx
	call	__cxa_begin_catch
	movq	%rax, %rcx
	movq	(%rax), %rax
	call	*16(%rax)
	movq	%rax, %rdx
	movq	__imp_PyExc_ValueError(%rip), %rax
	movq	(%rax), %rcx
.LEHB6:
	call	*__imp_PyErr_SetString(%rip)
.LEHE6:
	jmp	.L703
.L697:
	movq	%r12, %rcx
	call	__cxa_begin_catch
	movq	%rax, %rcx
	movq	(%rax), %rax
	call	*16(%rax)
	movq	%rax, %rdx
	movq	__imp_PyExc_ValueError(%rip), %rax
	movq	(%rax), %rcx
.LEHB7:
	call	*__imp_PyErr_SetString(%rip)
.LEHE7:
	jmp	.L703
.L696:
	movq	%r12, %rcx
	call	__cxa_begin_catch
	movq	%rax, %rcx
	movq	(%rax), %rax
	call	*16(%rax)
	movq	%rax, %rdx
	movq	__imp_PyExc_IndexError(%rip), %rax
	movq	(%rax), %rcx
.LEHB8:
	call	*__imp_PyErr_SetString(%rip)
.LEHE8:
	jmp	.L703
.L695:
	movq	%r12, %rcx
	call	__cxa_begin_catch
	movq	%rax, %rcx
	movq	(%rax), %rax
	call	*16(%rax)
	movq	%rax, %rdx
	movq	__imp_PyExc_ValueError(%rip), %rax
	movq	(%rax), %rcx
.LEHB9:
	call	*__imp_PyErr_SetString(%rip)
.LEHE9:
	jmp	.L703
.L693:
	movq	%r12, %rcx
	call	__cxa_begin_catch
	movq	%rax, %rcx
	movq	(%rax), %rax
	call	*16(%rax)
	movq	%rax, %rdx
	movq	__imp_PyExc_RuntimeError(%rip), %rax
	movq	(%rax), %rcx
.LEHB10:
	call	*__imp_PyErr_SetString(%rip)
.LEHE10:
	jmp	.L703
.L692:
	movq	%r12, %rcx
	call	__cxa_begin_catch
	movq	__imp_PyExc_RuntimeError(%rip), %rax
	leaq	.LC4(%rip), %rdx
	movq	(%rax), %rcx
.LEHB11:
	call	*__imp_PyErr_SetString(%rip)
.LEHE11:
	jmp	.L703
.L723:
	movq	%rax, %r12
	vzeroupper
	call	__cxa_end_catch
	movq	%r12, %rcx
.LEHB12:
	call	_Unwind_Resume
.L722:
	movq	%rax, %r12
	vzeroupper
	call	__cxa_end_catch
	movq	%r12, %rcx
	call	_Unwind_Resume
.L721:
	movq	%rax, %r12
	vzeroupper
	call	__cxa_end_catch
	movq	%r12, %rcx
	call	_Unwind_Resume
.L720:
	movq	%rax, %r12
	vzeroupper
	call	__cxa_end_catch
	movq	%r12, %rcx
	call	_Unwind_Resume
.L719:
	movq	%rax, %r12
	vzeroupper
	call	__cxa_end_catch
	movq	%r12, %rcx
	call	_Unwind_Resume
.L718:
	movq	%rax, %r12
	vzeroupper
	call	__cxa_end_catch
	movq	%r12, %rcx
	call	_Unwind_Resume
.L717:
	movq	%rax, %r12
	vzeroupper
	call	__cxa_end_catch
	movq	%r12, %rcx
	call	_Unwind_Resume
.L716:
	movq	%rax, %r12
	vzeroupper
	call	__cxa_end_catch
	movq	%r12, %rcx
	call	_Unwind_Resume
.L715:
	movq	%rax, %r12
	vzeroupper
	call	__cxa_end_catch
	movq	%r12, %rcx
	call	_Unwind_Resume
.LEHE12:
.L714:
	movq	%rax, %r12
	vzeroupper
	call	__cxa_end_catch
	movq	%r12, %rcx
.LEHB13:
	call	_Unwind_Resume
	nop
.LEHE13:
	.p2align 4,,10
	.p2align 3
.L689:
	addq	$48, %rsp
	popq	%rbx
	popq	%r12
	popq	%r13
	ret
	.seh_handler	__gxx_personality_seh0, @unwind, @except
	.seh_handlerdata
	.align 4
.LLSDA10354:
	.byte	0xff
	.byte	0x9b
	.uleb128 .LLSDATT10354-.LLSDATTD10354
.LLSDATTD10354:
	.byte	0x1
	.uleb128 .LLSDACSE10354-.LLSDACSB10354
.LLSDACSB10354:
	.uleb128 .LEHB0-.LFB10354
	.uleb128 .LEHE0-.LEHB0
	.uleb128 .L724-.LFB10354
	.uleb128 0x15
	.uleb128 .LEHB1-.LFB10354
	.uleb128 .LEHE1-.LEHB1
	.uleb128 .L723-.LFB10354
	.uleb128 0
	.uleb128 .LEHB2-.LFB10354
	.uleb128 .LEHE2-.LEHB2
	.uleb128 0
	.uleb128 0
	.uleb128 .LEHB3-.LFB10354
	.uleb128 .LEHE3-.LEHB3
	.uleb128 .L722-.LFB10354
	.uleb128 0
	.uleb128 .LEHB4-.LFB10354
	.uleb128 .LEHE4-.LEHB4
	.uleb128 .L721-.LFB10354
	.uleb128 0
	.uleb128 .LEHB5-.LFB10354
	.uleb128 .LEHE5-.LEHB5
	.uleb128 .L720-.LFB10354
	.uleb128 0
	.uleb128 .LEHB6-.LFB10354
	.uleb128 .LEHE6-.LEHB6
	.uleb128 .L719-.LFB10354
	.uleb128 0
	.uleb128 .LEHB7-.LFB10354
	.uleb128 .LEHE7-.LEHB7
	.uleb128 .L718-.LFB10354
	.uleb128 0
	.uleb128 .LEHB8-.LFB10354
	.uleb128 .LEHE8-.LEHB8
	.uleb128 .L717-.LFB10354
	.uleb128 0
	.uleb128 .LEHB9-.LFB10354
	.uleb128 .LEHE9-.LEHB9
	.uleb128 .L716-.LFB10354
	.uleb128 0
	.uleb128 .LEHB10-.LFB10354
	.uleb128 .LEHE10-.LEHB10
	.uleb128 .L715-.LFB10354
	.uleb128 0
	.uleb128 .LEHB11-.LFB10354
	.uleb128 .LEHE11-.LEHB11
	.uleb128 .L714-.LFB10354
	.uleb128 0
	.uleb128 .LEHB12-.LFB10354
	.uleb128 .LEHE12-.LEHB12
	.uleb128 0
	.uleb128 0
	.uleb128 .LEHB13-.LFB10354
	.uleb128 .LEHE13-.LEHB13
	.uleb128 0
	.uleb128 0
.LLSDACSE10354:
	.byte	0xa
	.byte	0
	.byte	0x9
	.byte	0x7d
	.byte	0x8
	.byte	0x7d
	.byte	0x7
	.byte	0x7d
	.byte	0x6
	.byte	0x7d
	.byte	0x5
	.byte	0x7d
	.byte	0x4
	.byte	0x7d
	.byte	0x3
	.byte	0x7d
	.byte	0x2
	.byte	0x7d
	.byte	0x1
	.byte	0x7d
	.byte	0
	.byte	0x7d
	.align 4
	.long	0

	.long	.LDFCM0-.
	.long	.LDFCM1-.
	.long	.LDFCM2-.
	.long	.LDFCM3-.
	.long	.LDFCM4-.
	.long	.LDFCM5-.
	.long	.LDFCM6-.
	.long	.LDFCM7-.
	.long	.LDFCM8-.
.LLSDATT10354:
	.section	.text$_ZZN8pybind116detail13get_internalsEvENUlNSt15__exception_ptr13exception_ptrEE_4_FUNES2_,"x"
	.linkonce discard
	.seh_endproc
	.section	.text$pybind11_clear,"x"
	.linkonce discard
	.p2align 4
	.globl	pybind11_clear
	.def	pybind11_clear;	.scl	2;	.type	32;	.endef
	.seh_proc	pybind11_clear
pybind11_clear:
.LFB10860:
	subq	$40, %rsp
	.seh_stackalloc	40
	.seh_endprologue
	call	*__imp__PyObject_GetDictPtr(%rip)
	movq	(%rax), %rcx
	testq	%rcx, %rcx
	je	.L727
	movq	$0, (%rax)
	decq	(%rcx)
	je	.L729
.L727:
	xorl	%eax, %eax
	addq	$40, %rsp
	ret
	.p2align 4,,10
	.p2align 3
.L729:
	movq	8(%rcx), %rax
	call	*48(%rax)
	xorl	%eax, %eax
	addq	$40, %rsp
	ret
	.seh_endproc
	.section	.text$pybind11_traverse,"x"
	.linkonce discard
	.p2align 4
	.globl	pybind11_traverse
	.def	pybind11_traverse;	.scl	2;	.type	32;	.endef
	.seh_proc	pybind11_traverse
pybind11_traverse:
.LFB10859:
	pushq	%r12
	.seh_pushreg	%r12
	pushq	%rbx
	.seh_pushreg	%rbx
	subq	$40, %rsp
	.seh_stackalloc	40
	.seh_endprologue
	movq	%rdx, %rbx
	movq	%r8, %r12
	call	*__imp__PyObject_GetDictPtr(%rip)
	movq	(%rax), %rcx
	testq	%rcx, %rcx
	je	.L731
	movq	%r12, %rdx
	movq	%rbx, %rax
	addq	$40, %rsp
	popq	%rbx
	popq	%r12
	rex.W jmp	*%rax
	.p2align 4,,10
	.p2align 3
.L731:
	xorl	%eax, %eax
	addq	$40, %rsp
	popq	%rbx
	popq	%r12
	ret
	.seh_endproc
	.text
	.p2align 4
	.def	__tcf_2;	.scl	3;	.type	32;	.endef
	.seh_proc	__tcf_2
__tcf_2:
.LFB10357:
	pushq	%rbx
	.seh_pushreg	%rbx
	subq	$32, %rsp
	.seh_stackalloc	32
	.seh_endprologue
	movq	16+_ZZN8pybind116detail26registered_local_types_cppEvE6locals(%rip), %rbx
	testq	%rbx, %rbx
	je	.L733
	.p2align 4,,10
	.p2align 3
.L734:
	movq	%rbx, %rcx
	movq	(%rbx), %rbx
	call	_ZdlPv
	testq	%rbx, %rbx
	jne	.L734
.L733:
	movq	8+_ZZN8pybind116detail26registered_local_types_cppEvE6locals(%rip), %r8
	movq	_ZZN8pybind116detail26registered_local_types_cppEvE6locals(%rip), %rcx
	xorl	%edx, %edx
	salq	$3, %r8
	call	memset
	movq	_ZZN8pybind116detail26registered_local_types_cppEvE6locals(%rip), %rcx
	leaq	48+_ZZN8pybind116detail26registered_local_types_cppEvE6locals(%rip), %rax
	movq	$0, 24+_ZZN8pybind116detail26registered_local_types_cppEvE6locals(%rip)
	movq	$0, 16+_ZZN8pybind116detail26registered_local_types_cppEvE6locals(%rip)
	cmpq	%rax, %rcx
	je	.L740
	addq	$32, %rsp
	popq	%rbx
	jmp	_ZdlPv
	.p2align 4,,10
	.p2align 3
.L740:
	addq	$32, %rsp
	popq	%rbx
	ret
	.seh_endproc
	.section	.text$pybind11_get_dict,"x"
	.linkonce discard
	.p2align 4
	.globl	pybind11_get_dict
	.def	pybind11_get_dict;	.scl	2;	.type	32;	.endef
	.seh_proc	pybind11_get_dict
pybind11_get_dict:
.LFB10857:
	pushq	%rbx
	.seh_pushreg	%rbx
	subq	$32, %rsp
	.seh_stackalloc	32
	.seh_endprologue
	call	*__imp__PyObject_GetDictPtr(%rip)
	movq	%rax, %rbx
	movq	(%rax), %rax
	testq	%rax, %rax
	je	.L749
.L742:
	incq	(%rax)
	addq	$32, %rsp
	popq	%rbx
	ret
	.p2align 4,,10
	.p2align 3
.L749:
	call	*__imp_PyDict_New(%rip)
	movq	%rax, (%rbx)
	testq	%rax, %rax
	jne	.L742
	addq	$32, %rsp
	popq	%rbx
	ret
	.seh_endproc
	.text
	.p2align 4
	.def	_ZL9vsnprintfPcyPKcS_;	.scl	3;	.type	32;	.endef
	.seh_proc	_ZL9vsnprintfPcyPKcS_
_ZL9vsnprintfPcyPKcS_:
.LFB6876:
	.seh_endprologue
	jmp	__mingw_vsnprintf
	.seh_endproc
	.p2align 4
	.def	_Z6momentIydEdPT_PT0_jjyi._omp_fn.0;	.scl	3;	.type	32;	.endef
	.seh_proc	_Z6momentIydEdPT_PT0_jjyi._omp_fn.0
_Z6momentIydEdPT_PT0_jjyi._omp_fn.0:
.LFB18355:
	pushq	%r13
	.seh_pushreg	%r13
	pushq	%r12
	.seh_pushreg	%r12
	pushq	%rbp
	.seh_pushreg	%rbp
	pushq	%rdi
	.seh_pushreg	%rdi
	pushq	%rsi
	.seh_pushreg	%rsi
	pushq	%rbx
	.seh_pushreg	%rbx
	subq	$104, %rsp
	.seh_stackalloc	104
	vmovaps	%xmm6, 32(%rsp)
	.seh_savexmm	%xmm6, 32
	vmovaps	%xmm7, 48(%rsp)
	.seh_savexmm	%xmm7, 48
	vmovaps	%xmm8, 64(%rsp)
	.seh_savexmm	%xmm8, 64
	vmovaps	%xmm9, 80(%rsp)
	.seh_savexmm	%xmm9, 80
	.seh_endprologue
	movl	24(%rcx), %r12d
	movl	28(%rcx), %ebx
	movq	%rcx, %rsi
	movq	8(%rcx), %rdi
	movq	(%rcx), %rbp
	call	_Z22manage_thread_affinityv
	testl	%r12d, %r12d
	jne	.L752
	vxorpd	%xmm7, %xmm7, %xmm7
	.p2align 4,,10
	.p2align 3
.L755:
	call	GOMP_barrier
	movq	16(%rsi), %rcx
	movq	(%rcx), %rdx
	jmp	.L753
.L762:
	movq	%rax, %rdx
	.p2align 4,,10
	.p2align 3
.L753:
	vmovq	%rdx, %xmm3
	movq	%rdx, %rax
	vaddsd	%xmm3, %xmm7, %xmm2
	vmovq	%xmm2, %r8
	lock cmpxchgq	%r8, (%rcx)
	cmpq	%rax, %rdx
	je	.L765
	jmp	.L762
	.p2align 4,,10
	.p2align 3
.L752:
	call	omp_get_num_threads
	movl	%eax, %r13d
	call	omp_get_thread_num
	xorl	%edx, %edx
	movl	%eax, %ecx
	movl	%r12d, %eax
	divl	%r13d
	cmpl	%edx, %ecx
	jb	.L754
.L761:
	imull	%eax, %ecx
	vxorpd	%xmm7, %xmm7, %xmm7
	addl	%ecx, %edx
	leal	(%rax,%rdx), %ecx
	cmpl	%ecx, %edx
	jnb	.L755
	decl	%eax
	vxorps	%xmm9, %xmm9, %xmm9
	vcvtsi2sdq	%rbx, %xmm9, %xmm8
	leaq	1(%rdx,%rax), %r12
	leaq	0(,%rdx,8), %rbx
	salq	$3, %r12
	.p2align 4,,10
	.p2align 3
.L760:
	movq	0(%rbp,%rbx), %rax
	testq	%rax, %rax
	js	.L758
	vcvtsi2sdq	%rax, %xmm9, %xmm6
	jmp	.L759
	.p2align 4,,10
	.p2align 3
.L758:
	movq	%rax, %rdx
	andl	$1, %eax
	shrq	%rdx
	orq	%rax, %rdx
	vcvtsi2sdq	%rdx, %xmm9, %xmm6
	vaddsd	%xmm6, %xmm6, %xmm6
.L759:
	vmovsd	(%rdi,%rbx), %xmm0
	vmovapd	%xmm8, %xmm1
	addq	$8, %rbx
	call	pow
	vfmadd231sd	%xmm0, %xmm6, %xmm7
	cmpq	%rbx, %r12
	jne	.L760
	jmp	.L755
	.p2align 4,,10
	.p2align 3
.L754:
	incl	%eax
	xorl	%edx, %edx
	jmp	.L761
	.p2align 4,,10
	.p2align 3
.L765:
	vmovaps	32(%rsp), %xmm6
	vmovaps	48(%rsp), %xmm7
	vmovaps	64(%rsp), %xmm8
	vmovaps	80(%rsp), %xmm9
	addq	$104, %rsp
	popq	%rbx
	popq	%rsi
	popq	%rdi
	popq	%rbp
	popq	%r12
	popq	%r13
	ret
	.seh_handler	__gxx_personality_seh0, @unwind, @except
	.seh_handlerdata
.LLSDA18355:
	.byte	0xff
	.byte	0xff
	.byte	0x1
	.uleb128 .LLSDACSE18355-.LLSDACSB18355
.LLSDACSB18355:
.LLSDACSE18355:
	.text
	.seh_endproc
	.section .rdata,"dr"
	.align 8
.LC6:
	.ascii "__dict__ must be set to a dictionary, not a '%.200s'\0"
	.section	.text$pybind11_set_dict,"x"
	.linkonce discard
	.p2align 4
	.globl	pybind11_set_dict
	.def	pybind11_set_dict;	.scl	2;	.type	32;	.endef
	.seh_proc	pybind11_set_dict
pybind11_set_dict:
.LFB10858:
	pushq	%rsi
	.seh_pushreg	%rsi
	pushq	%rbx
	.seh_pushreg	%rbx
	subq	$40, %rsp
	.seh_stackalloc	40
	.seh_endprologue
	movq	8(%rdx), %rax
	movq	%rdx, %rbx
	testb	$32, 171(%rax)
	je	.L773
	call	*__imp__PyObject_GetDictPtr(%rip)
	incq	(%rbx)
	movq	(%rax), %rcx
	movq	%rax, %rsi
	testq	%rcx, %rcx
	je	.L770
	movq	$0, (%rax)
	decq	(%rcx)
	je	.L774
.L770:
	movq	%rbx, (%rsi)
	xorl	%eax, %eax
.L772:
	addq	$40, %rsp
	popq	%rbx
	popq	%rsi
	ret
	.p2align 4,,10
	.p2align 3
.L774:
	movq	8(%rcx), %rax
	call	*48(%rax)
	jmp	.L770
	.p2align 4,,10
	.p2align 3
.L773:
	movq	24(%rax), %r8
	movq	__imp_PyExc_TypeError(%rip), %rax
	leaq	.LC6(%rip), %rdx
	movq	(%rax), %rcx
	call	*__imp_PyErr_Format(%rip)
	movl	$-1, %eax
	jmp	.L772
	.seh_endproc
	.section	.text$_ZZN8pybind117capsuleC4EPKvPFvPvEENUlP7_objectE_4_FUNES7_,"x"
	.linkonce discard
	.p2align 4
	.globl	_ZZN8pybind117capsuleC4EPKvPFvPvEENUlP7_objectE_4_FUNES7_
	.def	_ZZN8pybind117capsuleC4EPKvPFvPvEENUlP7_objectE_4_FUNES7_;	.scl	2;	.type	32;	.endef
	.seh_proc	_ZZN8pybind117capsuleC4EPKvPFvPvEENUlP7_objectE_4_FUNES7_
_ZZN8pybind117capsuleC4EPKvPFvPvEENUlP7_objectE_4_FUNES7_:
.LFB9810:
	pushq	%r12
	.seh_pushreg	%r12
	pushq	%rbx
	.seh_pushreg	%rbx
	subq	$40, %rsp
	.seh_stackalloc	40
	.seh_endprologue
	movq	%rcx, %r12
	call	*__imp_PyCapsule_GetContext(%rip)
	movq	%r12, %rcx
	xorl	%edx, %edx
	movq	%rax, %rbx
	call	*__imp_PyCapsule_GetPointer(%rip)
	movq	%rax, %rcx
	movq	%rbx, %rax
	addq	$40, %rsp
	popq	%rbx
	popq	%r12
	rex.W jmp	*%rax
	.seh_endproc
	.text
	.p2align 4
	.def	_ZN9HistogramIydE10accumulateIdEEvPT_y._omp_fn.0;	.scl	3;	.type	32;	.endef
	.seh_proc	_ZN9HistogramIydE10accumulateIdEEvPT_y._omp_fn.0
_ZN9HistogramIydE10accumulateIdEEvPT_y._omp_fn.0:
.LFB18307:
	pushq	%rbp
	.seh_pushreg	%rbp
	pushq	%r15
	.seh_pushreg	%r15
	pushq	%r14
	.seh_pushreg	%r14
	pushq	%r13
	.seh_pushreg	%r13
	pushq	%r12
	.seh_pushreg	%r12
	pushq	%rdi
	.seh_pushreg	%rdi
	pushq	%rsi
	.seh_pushreg	%rsi
	pushq	%rbx
	.seh_pushreg	%rbx
	subq	$88, %rsp
	.seh_stackalloc	88
	leaq	128(%rsp), %rbp
	.seh_setframe	%rbp, 128
	vmovaps	%xmm6, -64(%rbp)
	.seh_savexmm	%xmm6, 64
	.seh_endprologue
	movq	8(%rcx), %rax
	movq	16(%rcx), %r14
	movq	32(%rcx), %rsi
	vmovsd	24(%rcx), %xmm6
	movq	%rax, -72(%rbp)
	movq	(%rcx), %rax
	movq	%rax, -88(%rbp)
	call	_Z22manage_thread_affinityv
	movl	(%r14), %r15d
	leaq	15(,%r15,8), %rax
	movq	%r15, %r10
	leaq	-1(%r15), %r13
	shrq	$4, %rax
	salq	$4, %rax
	call	___chkstk_ms
	subq	%rax, %rsp
	leaq	32(%rsp), %rbx
	movq	%rbx, %rdi
	cmpl	$6, %r15d
	jbe	.L796
	leaq	-4(%r15), %rax
	xorl	%ecx, %ecx
	vpxor	%xmm0, %xmm0, %xmm0
	shrq	$2, %rax
	incq	%rax
	.p2align 4,,10
	.p2align 3
.L778:
	movq	%rcx, %rdx
	incq	%rcx
	salq	$5, %rdx
	vmovdqu	%ymm0, (%rbx,%rdx)
	cmpq	%rcx, %rax
	ja	.L778
	leaq	0(,%rax,4), %rdx
	salq	$5, %rax
	addq	%rbx, %rax
	cmpq	%rdx, %r15
	je	.L807
	leaq	1(%rdx), %rcx
	movq	$0, (%rax)
	cmpq	%rcx, %r13
	jb	.L808
	addq	$2, %rdx
	movq	$0, 8(%rax)
	cmpq	%rdx, %r13
	jb	.L809
	movq	$0, 16(%rax)
	vzeroupper
	jmp	.L780
	.p2align 4,,10
	.p2align 3
.L796:
	xorl	%eax, %eax
	.p2align 4,,10
	.p2align 3
.L777:
	movq	$0, (%rbx,%rax,8)
	incq	%rax
	cmpq	%rax, %r13
	jnb	.L777
	jmp	.L780
	.p2align 4,,10
	.p2align 3
.L807:
	vzeroupper
	jmp	.L780
.L808:
	vzeroupper
	jmp	.L780
.L809:
	vzeroupper
	.p2align 4,,10
	.p2align 3
.L780:
	cmpq	$0, -72(%rbp)
	jne	.L781
	.p2align 4,,10
	.p2align 3
.L786:
	call	GOMP_atomic_start
	cmpq	$2, %r13
	jbe	.L797
	leaq	-4(%r15), %rcx
	xorl	%eax, %eax
	xorl	%edx, %edx
	shrq	$2, %rcx
	incq	%rcx
	.p2align 4,,10
	.p2align 3
.L783:
	vmovdqu	(%rsi,%rax), %ymm4
	vpaddq	(%rbx,%rax), %ymm4, %ymm0
	incq	%rdx
	vmovdqu	%ymm0, (%rsi,%rax)
	addq	$32, %rax
	cmpq	%rcx, %rdx
	jb	.L783
	leaq	0(,%rcx,4), %rax
	salq	$5, %rcx
	leaq	(%rbx,%rcx), %rdi
	addq	%rcx, %rsi
	cmpq	%rax, %r15
	jne	.L810
	vzeroupper
	jmp	.L784
	.p2align 4,,10
	.p2align 3
.L797:
	xorl	%eax, %eax
	jmp	.L782
	.p2align 4,,10
	.p2align 3
.L810:
	vzeroupper
.L782:
	movq	(%rdi), %rdx
	addq	%rdx, (%rsi)
	leaq	1(%rax), %rdx
	cmpq	%rdx, %r13
	jb	.L784
	addq	$2, %rax
	movq	8(%rdi), %rdx
	addq	%rdx, 8(%rsi)
	cmpq	%rax, %r13
	jb	.L784
	movq	16(%rdi), %rax
	addq	%rax, 16(%rsi)
.L784:
	call	GOMP_atomic_end
	jmp	.L804
	.p2align 4,,10
	.p2align 3
.L781:
	movl	%r10d, -76(%rbp)
	call	omp_get_num_threads
	movslq	%eax, %r12
	call	omp_get_thread_num
	xorl	%edx, %edx
	movl	-76(%rbp), %r10d
	movslq	%eax, %rcx
	movq	-72(%rbp), %rax
	divq	%r12
	cmpq	%rdx, %rcx
	jb	.L785
.L795:
	imulq	%rax, %rcx
	addq	%rcx, %rdx
	addq	%rdx, %rax
	cmpq	%rax, %rdx
	jnb	.L786
	leal	-1(%r10), %ecx
	vmovsd	48(%r14), %xmm1
	vmovsd	.LC1(%rip), %xmm3
	movabsq	$-9223372036854775808, %r11
	leaq	(%rbx,%rcx,8), %r10
	movq	-88(%rbp), %rcx
	vmovapd	%xmm1, %xmm2
	vxorpd	.LC0(%rip), %xmm2, %xmm2
	leaq	(%rcx,%rdx,8), %rdx
	leaq	(%rcx,%rax,8), %rcx
	.p2align 4,,10
	.p2align 3
.L794:
	vmovsd	(%rdx), %xmm0
	vcomisd	%xmm1, %xmm0
	jb	.L805
	incq	(%r10)
	jmp	.L789
	.p2align 4,,10
	.p2align 3
.L805:
	vcomisd	%xmm0, %xmm2
	jbe	.L806
	incq	(%rbx)
	jmp	.L789
	.p2align 4,,10
	.p2align 3
.L806:
	vaddsd	%xmm0, %xmm1, %xmm0
	vdivsd	%xmm6, %xmm0, %xmm0
	vcomisd	%xmm3, %xmm0
	jnb	.L792
	vcvttsd2siq	%xmm0, %rax
	jmp	.L793
	.p2align 4,,10
	.p2align 3
.L792:
	vsubsd	%xmm3, %xmm0, %xmm0
	vcvttsd2siq	%xmm0, %rax
	xorq	%r11, %rax
.L793:
	incq	(%rbx,%rax,8)
.L789:
	addq	$8, %rdx
	cmpq	%rcx, %rdx
	jne	.L794
	jmp	.L786
	.p2align 4,,10
	.p2align 3
.L785:
	incq	%rax
	xorl	%edx, %edx
	jmp	.L795
	.p2align 4,,10
	.p2align 3
.L804:
	vmovaps	-64(%rbp), %xmm6
	leaq	-40(%rbp), %rsp
	popq	%rbx
	popq	%rsi
	popq	%rdi
	popq	%r12
	popq	%r13
	popq	%r14
	popq	%r15
	popq	%rbp
	ret
	.seh_handler	__gxx_personality_seh0, @unwind, @except
	.seh_handlerdata
.LLSDA18307:
	.byte	0xff
	.byte	0xff
	.byte	0x1
	.uleb128 .LLSDACSE18307-.LLSDACSB18307
.LLSDACSB18307:
.LLSDACSE18307:
	.text
	.seh_endproc
	.p2align 4
	.def	_ZN9HistogramIyfE10accumulateIfEEvPT_y._omp_fn.0;	.scl	3;	.type	32;	.endef
	.seh_proc	_ZN9HistogramIyfE10accumulateIfEEvPT_y._omp_fn.0
_ZN9HistogramIyfE10accumulateIfEEvPT_y._omp_fn.0:
.LFB18308:
	pushq	%rbp
	.seh_pushreg	%rbp
	pushq	%r15
	.seh_pushreg	%r15
	pushq	%r14
	.seh_pushreg	%r14
	pushq	%r13
	.seh_pushreg	%r13
	pushq	%r12
	.seh_pushreg	%r12
	pushq	%rdi
	.seh_pushreg	%rdi
	pushq	%rsi
	.seh_pushreg	%rsi
	pushq	%rbx
	.seh_pushreg	%rbx
	subq	$88, %rsp
	.seh_stackalloc	88
	leaq	128(%rsp), %rbp
	.seh_setframe	%rbp, 128
	vmovaps	%xmm6, -64(%rbp)
	.seh_savexmm	%xmm6, 64
	.seh_endprologue
	movq	8(%rcx), %rax
	movq	16(%rcx), %r14
	movq	24(%rcx), %rsi
	vmovss	32(%rcx), %xmm6
	movq	%rax, -72(%rbp)
	movq	(%rcx), %rax
	movq	%rax, -88(%rbp)
	call	_Z22manage_thread_affinityv
	movl	(%r14), %r15d
	leaq	15(,%r15,8), %rax
	movq	%r15, %r10
	leaq	-1(%r15), %r13
	shrq	$4, %rax
	salq	$4, %rax
	call	___chkstk_ms
	subq	%rax, %rsp
	leaq	32(%rsp), %rbx
	movq	%rbx, %rdi
	cmpl	$6, %r15d
	jbe	.L831
	leaq	-4(%r15), %rax
	xorl	%ecx, %ecx
	vpxor	%xmm0, %xmm0, %xmm0
	shrq	$2, %rax
	incq	%rax
	.p2align 4,,10
	.p2align 3
.L813:
	movq	%rcx, %rdx
	incq	%rcx
	salq	$5, %rdx
	vmovdqu	%ymm0, (%rbx,%rdx)
	cmpq	%rcx, %rax
	ja	.L813
	leaq	0(,%rax,4), %rdx
	salq	$5, %rax
	addq	%rbx, %rax
	cmpq	%rdx, %r15
	je	.L842
	leaq	1(%rdx), %rcx
	movq	$0, (%rax)
	cmpq	%rcx, %r13
	jb	.L843
	addq	$2, %rdx
	movq	$0, 8(%rax)
	cmpq	%rdx, %r13
	jb	.L844
	movq	$0, 16(%rax)
	vzeroupper
	jmp	.L815
	.p2align 4,,10
	.p2align 3
.L831:
	xorl	%eax, %eax
	.p2align 4,,10
	.p2align 3
.L812:
	movq	$0, (%rbx,%rax,8)
	incq	%rax
	cmpq	%rax, %r13
	jnb	.L812
	jmp	.L815
	.p2align 4,,10
	.p2align 3
.L842:
	vzeroupper
	jmp	.L815
.L843:
	vzeroupper
	jmp	.L815
.L844:
	vzeroupper
	.p2align 4,,10
	.p2align 3
.L815:
	cmpq	$0, -72(%rbp)
	jne	.L816
	.p2align 4,,10
	.p2align 3
.L821:
	call	GOMP_atomic_start
	cmpq	$2, %r13
	jbe	.L832
	leaq	-4(%r15), %rcx
	xorl	%eax, %eax
	xorl	%edx, %edx
	shrq	$2, %rcx
	incq	%rcx
	.p2align 4,,10
	.p2align 3
.L818:
	vmovdqu	(%rsi,%rax), %ymm4
	vpaddq	(%rbx,%rax), %ymm4, %ymm0
	incq	%rdx
	vmovdqu	%ymm0, (%rsi,%rax)
	addq	$32, %rax
	cmpq	%rcx, %rdx
	jb	.L818
	leaq	0(,%rcx,4), %rax
	salq	$5, %rcx
	leaq	(%rbx,%rcx), %rdi
	addq	%rcx, %rsi
	cmpq	%rax, %r15
	jne	.L845
	vzeroupper
	jmp	.L819
	.p2align 4,,10
	.p2align 3
.L832:
	xorl	%eax, %eax
	jmp	.L817
	.p2align 4,,10
	.p2align 3
.L845:
	vzeroupper
.L817:
	movq	(%rdi), %rdx
	addq	%rdx, (%rsi)
	leaq	1(%rax), %rdx
	cmpq	%rdx, %r13
	jb	.L819
	addq	$2, %rax
	movq	8(%rdi), %rdx
	addq	%rdx, 8(%rsi)
	cmpq	%rax, %r13
	jb	.L819
	movq	16(%rdi), %rax
	addq	%rax, 16(%rsi)
.L819:
	call	GOMP_atomic_end
	jmp	.L839
	.p2align 4,,10
	.p2align 3
.L816:
	movl	%r10d, -76(%rbp)
	call	omp_get_num_threads
	movslq	%eax, %r12
	call	omp_get_thread_num
	xorl	%edx, %edx
	movl	-76(%rbp), %r10d
	movslq	%eax, %rcx
	movq	-72(%rbp), %rax
	divq	%r12
	cmpq	%rdx, %rcx
	jb	.L820
.L830:
	imulq	%rax, %rcx
	addq	%rcx, %rdx
	addq	%rdx, %rax
	cmpq	%rax, %rdx
	jnb	.L821
	leal	-1(%r10), %ecx
	vmovss	48(%r14), %xmm1
	vmovss	.LC3(%rip), %xmm3
	movabsq	$-9223372036854775808, %r11
	leaq	(%rbx,%rcx,8), %r10
	movq	-88(%rbp), %rcx
	vmovaps	%xmm1, %xmm2
	vxorps	.LC2(%rip), %xmm2, %xmm2
	leaq	(%rcx,%rdx,4), %rdx
	leaq	(%rcx,%rax,4), %rcx
	.p2align 4,,10
	.p2align 3
.L829:
	vmovss	(%rdx), %xmm0
	vcomiss	%xmm1, %xmm0
	jb	.L840
	incq	(%r10)
	jmp	.L824
	.p2align 4,,10
	.p2align 3
.L840:
	vcomiss	%xmm0, %xmm2
	jbe	.L841
	incq	(%rbx)
	jmp	.L824
	.p2align 4,,10
	.p2align 3
.L841:
	vaddss	%xmm0, %xmm1, %xmm0
	vdivss	%xmm6, %xmm0, %xmm0
	vcomiss	.LC3(%rip), %xmm0
	jnb	.L827
	vcvttss2siq	%xmm0, %rax
	jmp	.L828
	.p2align 4,,10
	.p2align 3
.L827:
	vsubss	%xmm3, %xmm0, %xmm0
	vcvttss2siq	%xmm0, %rax
	xorq	%r11, %rax
.L828:
	incq	(%rbx,%rax,8)
.L824:
	addq	$4, %rdx
	cmpq	%rcx, %rdx
	jne	.L829
	jmp	.L821
	.p2align 4,,10
	.p2align 3
.L820:
	incq	%rax
	xorl	%edx, %edx
	jmp	.L830
	.p2align 4,,10
	.p2align 3
.L839:
	vmovaps	-64(%rbp), %xmm6
	leaq	-40(%rbp), %rsp
	popq	%rbx
	popq	%rsi
	popq	%rdi
	popq	%r12
	popq	%r13
	popq	%r14
	popq	%r15
	popq	%rbp
	ret
	.seh_handler	__gxx_personality_seh0, @unwind, @except
	.seh_handlerdata
.LLSDA18308:
	.byte	0xff
	.byte	0xff
	.byte	0x1
	.uleb128 .LLSDACSE18308-.LLSDACSB18308
.LLSDACSB18308:
.LLSDACSE18308:
	.text
	.seh_endproc
	.p2align 4
	.def	_ZN9HistogramIjdE10accumulateIdEEvPT_y._omp_fn.0;	.scl	3;	.type	32;	.endef
	.seh_proc	_ZN9HistogramIjdE10accumulateIdEEvPT_y._omp_fn.0
_ZN9HistogramIjdE10accumulateIdEEvPT_y._omp_fn.0:
.LFB18313:
	pushq	%rbp
	.seh_pushreg	%rbp
	pushq	%r15
	.seh_pushreg	%r15
	pushq	%r14
	.seh_pushreg	%r14
	pushq	%r13
	.seh_pushreg	%r13
	pushq	%r12
	.seh_pushreg	%r12
	pushq	%rdi
	.seh_pushreg	%rdi
	pushq	%rsi
	.seh_pushreg	%rsi
	pushq	%rbx
	.seh_pushreg	%rbx
	subq	$88, %rsp
	.seh_stackalloc	88
	leaq	128(%rsp), %rbp
	.seh_setframe	%rbp, 128
	vmovaps	%xmm6, -64(%rbp)
	.seh_savexmm	%xmm6, 64
	.seh_endprologue
	movq	8(%rcx), %rax
	movq	16(%rcx), %r14
	movq	32(%rcx), %rbx
	vmovsd	24(%rcx), %xmm6
	movq	%rax, -72(%rbp)
	movq	(%rcx), %rax
	movq	%rax, -88(%rbp)
	call	_Z22manage_thread_affinityv
	movl	(%r14), %r13d
	leaq	15(,%r13,4), %rax
	movq	%r13, %r10
	leaq	-1(%r13), %rdi
	shrq	$4, %rax
	salq	$4, %rax
	call	___chkstk_ms
	subq	%rax, %rsp
	leaq	32(%rsp), %rsi
	movq	%rsi, %r12
	cmpl	$7, %r13d
	jbe	.L866
	leaq	-8(%r13), %rax
	xorl	%ecx, %ecx
	vpxor	%xmm0, %xmm0, %xmm0
	shrq	$3, %rax
	incq	%rax
	.p2align 4,,10
	.p2align 3
.L848:
	movq	%rcx, %rdx
	incq	%rcx
	salq	$5, %rdx
	vmovdqu	%ymm0, (%rsi,%rdx)
	cmpq	%rcx, %rax
	ja	.L848
	leaq	0(,%rax,8), %rdx
	salq	$5, %rax
	addq	%rsi, %rax
	cmpq	%rdx, %r13
	je	.L877
	leaq	1(%rdx), %rcx
	movl	$0, (%rax)
	cmpq	%rcx, %rdi
	jb	.L878
	leaq	2(%rdx), %rcx
	movl	$0, 4(%rax)
	cmpq	%rcx, %rdi
	jb	.L879
	leaq	3(%rdx), %rcx
	movl	$0, 8(%rax)
	cmpq	%rcx, %rdi
	jb	.L880
	leaq	4(%rdx), %rcx
	movl	$0, 12(%rax)
	cmpq	%rcx, %rdi
	jb	.L881
	leaq	5(%rdx), %rcx
	movl	$0, 16(%rax)
	cmpq	%rcx, %rdi
	jb	.L882
	addq	$6, %rdx
	movl	$0, 20(%rax)
	cmpq	%rdx, %rdi
	jb	.L883
	movl	$0, 24(%rax)
	vzeroupper
	jmp	.L850
	.p2align 4,,10
	.p2align 3
.L866:
	xorl	%eax, %eax
	.p2align 4,,10
	.p2align 3
.L847:
	movl	$0, (%rsi,%rax,4)
	incq	%rax
	cmpq	%rax, %rdi
	jnb	.L847
	jmp	.L850
	.p2align 4,,10
	.p2align 3
.L877:
	vzeroupper
	jmp	.L850
.L878:
	vzeroupper
	jmp	.L850
.L879:
	vzeroupper
	jmp	.L850
.L880:
	vzeroupper
	jmp	.L850
.L881:
	vzeroupper
	jmp	.L850
.L882:
	vzeroupper
	jmp	.L850
.L883:
	vzeroupper
	.p2align 4,,10
	.p2align 3
.L850:
	cmpq	$0, -72(%rbp)
	jne	.L851
	.p2align 4,,10
	.p2align 3
.L856:
	call	GOMP_atomic_start
	cmpq	$6, %rdi
	jbe	.L867
	leaq	-8(%r13), %rcx
	xorl	%eax, %eax
	xorl	%edx, %edx
	shrq	$3, %rcx
	incq	%rcx
	.p2align 4,,10
	.p2align 3
.L853:
	vmovdqu	(%rbx,%rax), %ymm4
	vpaddd	(%rsi,%rax), %ymm4, %ymm0
	incq	%rdx
	vmovdqu	%ymm0, (%rbx,%rax)
	addq	$32, %rax
	cmpq	%rcx, %rdx
	jb	.L853
	leaq	0(,%rcx,8), %rax
	salq	$5, %rcx
	leaq	(%rsi,%rcx), %r12
	addq	%rcx, %rbx
	cmpq	%rax, %r13
	jne	.L884
	vzeroupper
	jmp	.L854
	.p2align 4,,10
	.p2align 3
.L867:
	xorl	%eax, %eax
	jmp	.L852
	.p2align 4,,10
	.p2align 3
.L884:
	vzeroupper
.L852:
	movl	(%r12), %edx
	addl	%edx, (%rbx)
	leaq	1(%rax), %rdx
	cmpq	%rdx, %rdi
	jb	.L854
	movl	4(%r12), %edx
	addl	%edx, 4(%rbx)
	leaq	2(%rax), %rdx
	cmpq	%rdx, %rdi
	jb	.L854
	movl	8(%r12), %edx
	addl	%edx, 8(%rbx)
	leaq	3(%rax), %rdx
	cmpq	%rdx, %rdi
	jb	.L854
	movl	12(%r12), %edx
	addl	%edx, 12(%rbx)
	leaq	4(%rax), %rdx
	cmpq	%rdx, %rdi
	jb	.L854
	movl	16(%r12), %edx
	addl	%edx, 16(%rbx)
	leaq	5(%rax), %rdx
	cmpq	%rdx, %rdi
	jb	.L854
	addq	$6, %rax
	movl	20(%r12), %edx
	addl	%edx, 20(%rbx)
	cmpq	%rax, %rdi
	jb	.L854
	movl	24(%r12), %eax
	addl	%eax, 24(%rbx)
.L854:
	call	GOMP_atomic_end
	jmp	.L874
	.p2align 4,,10
	.p2align 3
.L851:
	movl	%r10d, -76(%rbp)
	call	omp_get_num_threads
	movslq	%eax, %r15
	call	omp_get_thread_num
	xorl	%edx, %edx
	movl	-76(%rbp), %r10d
	movslq	%eax, %rcx
	movq	-72(%rbp), %rax
	divq	%r15
	cmpq	%rdx, %rcx
	jb	.L855
.L865:
	imulq	%rax, %rcx
	addq	%rcx, %rdx
	addq	%rdx, %rax
	cmpq	%rax, %rdx
	jnb	.L856
	leal	-1(%r10), %ecx
	vmovsd	48(%r14), %xmm1
	vmovsd	.LC1(%rip), %xmm3
	movabsq	$-9223372036854775808, %r11
	leaq	(%rsi,%rcx,4), %r10
	movq	-88(%rbp), %rcx
	vmovapd	%xmm1, %xmm2
	vxorpd	.LC0(%rip), %xmm2, %xmm2
	leaq	(%rcx,%rdx,8), %rdx
	leaq	(%rcx,%rax,8), %rcx
	.p2align 4,,10
	.p2align 3
.L864:
	vmovsd	(%rdx), %xmm0
	vcomisd	%xmm1, %xmm0
	jb	.L875
	incl	(%r10)
	jmp	.L859
	.p2align 4,,10
	.p2align 3
.L875:
	vcomisd	%xmm0, %xmm2
	jbe	.L876
	incl	(%rsi)
	jmp	.L859
	.p2align 4,,10
	.p2align 3
.L876:
	vaddsd	%xmm0, %xmm1, %xmm0
	vdivsd	%xmm6, %xmm0, %xmm0
	vcomisd	%xmm3, %xmm0
	jnb	.L862
	vcvttsd2siq	%xmm0, %rax
	jmp	.L863
	.p2align 4,,10
	.p2align 3
.L862:
	vsubsd	%xmm3, %xmm0, %xmm0
	vcvttsd2siq	%xmm0, %rax
	xorq	%r11, %rax
.L863:
	incl	(%rsi,%rax,4)
.L859:
	addq	$8, %rdx
	cmpq	%rcx, %rdx
	jne	.L864
	jmp	.L856
	.p2align 4,,10
	.p2align 3
.L855:
	incq	%rax
	xorl	%edx, %edx
	jmp	.L865
	.p2align 4,,10
	.p2align 3
.L874:
	vmovaps	-64(%rbp), %xmm6
	leaq	-40(%rbp), %rsp
	popq	%rbx
	popq	%rsi
	popq	%rdi
	popq	%r12
	popq	%r13
	popq	%r14
	popq	%r15
	popq	%rbp
	ret
	.seh_handler	__gxx_personality_seh0, @unwind, @except
	.seh_handlerdata
.LLSDA18313:
	.byte	0xff
	.byte	0xff
	.byte	0x1
	.uleb128 .LLSDACSE18313-.LLSDACSB18313
.LLSDACSB18313:
.LLSDACSE18313:
	.text
	.seh_endproc
	.p2align 4
	.def	_ZN9HistogramIjfE10accumulateIfEEvPT_y._omp_fn.0;	.scl	3;	.type	32;	.endef
	.seh_proc	_ZN9HistogramIjfE10accumulateIfEEvPT_y._omp_fn.0
_ZN9HistogramIjfE10accumulateIfEEvPT_y._omp_fn.0:
.LFB18314:
	pushq	%rbp
	.seh_pushreg	%rbp
	pushq	%r15
	.seh_pushreg	%r15
	pushq	%r14
	.seh_pushreg	%r14
	pushq	%r13
	.seh_pushreg	%r13
	pushq	%r12
	.seh_pushreg	%r12
	pushq	%rdi
	.seh_pushreg	%rdi
	pushq	%rsi
	.seh_pushreg	%rsi
	pushq	%rbx
	.seh_pushreg	%rbx
	subq	$88, %rsp
	.seh_stackalloc	88
	leaq	128(%rsp), %rbp
	.seh_setframe	%rbp, 128
	vmovaps	%xmm6, -64(%rbp)
	.seh_savexmm	%xmm6, 64
	.seh_endprologue
	movq	8(%rcx), %rax
	movq	16(%rcx), %r14
	movq	24(%rcx), %rbx
	vmovss	32(%rcx), %xmm6
	movq	%rax, -72(%rbp)
	movq	(%rcx), %rax
	movq	%rax, -88(%rbp)
	call	_Z22manage_thread_affinityv
	movl	(%r14), %r13d
	leaq	15(,%r13,4), %rax
	movq	%r13, %r10
	leaq	-1(%r13), %rdi
	shrq	$4, %rax
	salq	$4, %rax
	call	___chkstk_ms
	subq	%rax, %rsp
	leaq	32(%rsp), %rsi
	movq	%rsi, %r12
	cmpl	$7, %r13d
	jbe	.L905
	leaq	-8(%r13), %rax
	xorl	%ecx, %ecx
	vpxor	%xmm0, %xmm0, %xmm0
	shrq	$3, %rax
	incq	%rax
	.p2align 4,,10
	.p2align 3
.L887:
	movq	%rcx, %rdx
	incq	%rcx
	salq	$5, %rdx
	vmovdqu	%ymm0, (%rsi,%rdx)
	cmpq	%rcx, %rax
	ja	.L887
	leaq	0(,%rax,8), %rdx
	salq	$5, %rax
	addq	%rsi, %rax
	cmpq	%rdx, %r13
	je	.L916
	leaq	1(%rdx), %rcx
	movl	$0, (%rax)
	cmpq	%rcx, %rdi
	jb	.L917
	leaq	2(%rdx), %rcx
	movl	$0, 4(%rax)
	cmpq	%rcx, %rdi
	jb	.L918
	leaq	3(%rdx), %rcx
	movl	$0, 8(%rax)
	cmpq	%rcx, %rdi
	jb	.L919
	leaq	4(%rdx), %rcx
	movl	$0, 12(%rax)
	cmpq	%rcx, %rdi
	jb	.L920
	leaq	5(%rdx), %rcx
	movl	$0, 16(%rax)
	cmpq	%rcx, %rdi
	jb	.L921
	addq	$6, %rdx
	movl	$0, 20(%rax)
	cmpq	%rdx, %rdi
	jb	.L922
	movl	$0, 24(%rax)
	vzeroupper
	jmp	.L889
	.p2align 4,,10
	.p2align 3
.L905:
	xorl	%eax, %eax
	.p2align 4,,10
	.p2align 3
.L886:
	movl	$0, (%rsi,%rax,4)
	incq	%rax
	cmpq	%rax, %rdi
	jnb	.L886
	jmp	.L889
	.p2align 4,,10
	.p2align 3
.L916:
	vzeroupper
	jmp	.L889
.L917:
	vzeroupper
	jmp	.L889
.L918:
	vzeroupper
	jmp	.L889
.L919:
	vzeroupper
	jmp	.L889
.L920:
	vzeroupper
	jmp	.L889
.L921:
	vzeroupper
	jmp	.L889
.L922:
	vzeroupper
	.p2align 4,,10
	.p2align 3
.L889:
	cmpq	$0, -72(%rbp)
	jne	.L890
	.p2align 4,,10
	.p2align 3
.L895:
	call	GOMP_atomic_start
	cmpq	$6, %rdi
	jbe	.L906
	leaq	-8(%r13), %rcx
	xorl	%eax, %eax
	xorl	%edx, %edx
	shrq	$3, %rcx
	incq	%rcx
	.p2align 4,,10
	.p2align 3
.L892:
	vmovdqu	(%rbx,%rax), %ymm4
	vpaddd	(%rsi,%rax), %ymm4, %ymm0
	incq	%rdx
	vmovdqu	%ymm0, (%rbx,%rax)
	addq	$32, %rax
	cmpq	%rcx, %rdx
	jb	.L892
	leaq	0(,%rcx,8), %rax
	salq	$5, %rcx
	leaq	(%rsi,%rcx), %r12
	addq	%rcx, %rbx
	cmpq	%rax, %r13
	jne	.L923
	vzeroupper
	jmp	.L893
	.p2align 4,,10
	.p2align 3
.L906:
	xorl	%eax, %eax
	jmp	.L891
	.p2align 4,,10
	.p2align 3
.L923:
	vzeroupper
.L891:
	movl	(%r12), %edx
	addl	%edx, (%rbx)
	leaq	1(%rax), %rdx
	cmpq	%rdx, %rdi
	jb	.L893
	movl	4(%r12), %edx
	addl	%edx, 4(%rbx)
	leaq	2(%rax), %rdx
	cmpq	%rdx, %rdi
	jb	.L893
	movl	8(%r12), %edx
	addl	%edx, 8(%rbx)
	leaq	3(%rax), %rdx
	cmpq	%rdx, %rdi
	jb	.L893
	movl	12(%r12), %edx
	addl	%edx, 12(%rbx)
	leaq	4(%rax), %rdx
	cmpq	%rdx, %rdi
	jb	.L893
	movl	16(%r12), %edx
	addl	%edx, 16(%rbx)
	leaq	5(%rax), %rdx
	cmpq	%rdx, %rdi
	jb	.L893
	addq	$6, %rax
	movl	20(%r12), %edx
	addl	%edx, 20(%rbx)
	cmpq	%rax, %rdi
	jb	.L893
	movl	24(%r12), %eax
	addl	%eax, 24(%rbx)
.L893:
	call	GOMP_atomic_end
	jmp	.L913
	.p2align 4,,10
	.p2align 3
.L890:
	movl	%r10d, -76(%rbp)
	call	omp_get_num_threads
	movslq	%eax, %r15
	call	omp_get_thread_num
	xorl	%edx, %edx
	movl	-76(%rbp), %r10d
	movslq	%eax, %rcx
	movq	-72(%rbp), %rax
	divq	%r15
	cmpq	%rdx, %rcx
	jb	.L894
.L904:
	imulq	%rax, %rcx
	addq	%rcx, %rdx
	addq	%rdx, %rax
	cmpq	%rax, %rdx
	jnb	.L895
	leal	-1(%r10), %ecx
	vmovss	48(%r14), %xmm1
	vmovss	.LC3(%rip), %xmm3
	movabsq	$-9223372036854775808, %r11
	leaq	(%rsi,%rcx,4), %r10
	movq	-88(%rbp), %rcx
	vmovaps	%xmm1, %xmm2
	vxorps	.LC2(%rip), %xmm2, %xmm2
	leaq	(%rcx,%rdx,4), %rdx
	leaq	(%rcx,%rax,4), %rcx
	.p2align 4,,10
	.p2align 3
.L903:
	vmovss	(%rdx), %xmm0
	vcomiss	%xmm1, %xmm0
	jb	.L914
	incl	(%r10)
	jmp	.L898
	.p2align 4,,10
	.p2align 3
.L914:
	vcomiss	%xmm0, %xmm2
	jbe	.L915
	incl	(%rsi)
	jmp	.L898
	.p2align 4,,10
	.p2align 3
.L915:
	vaddss	%xmm0, %xmm1, %xmm0
	vdivss	%xmm6, %xmm0, %xmm0
	vcomiss	.LC3(%rip), %xmm0
	jnb	.L901
	vcvttss2siq	%xmm0, %rax
	jmp	.L902
	.p2align 4,,10
	.p2align 3
.L901:
	vsubss	%xmm3, %xmm0, %xmm0
	vcvttss2siq	%xmm0, %rax
	xorq	%r11, %rax
.L902:
	incl	(%rsi,%rax,4)
.L898:
	addq	$4, %rdx
	cmpq	%rcx, %rdx
	jne	.L903
	jmp	.L895
	.p2align 4,,10
	.p2align 3
.L894:
	incq	%rax
	xorl	%edx, %edx
	jmp	.L904
	.p2align 4,,10
	.p2align 3
.L913:
	vmovaps	-64(%rbp), %xmm6
	leaq	-40(%rbp), %rsp
	popq	%rbx
	popq	%rsi
	popq	%rdi
	popq	%r12
	popq	%r13
	popq	%r14
	popq	%r15
	popq	%rbp
	ret
	.seh_handler	__gxx_personality_seh0, @unwind, @except
	.seh_handlerdata
.LLSDA18314:
	.byte	0xff
	.byte	0xff
	.byte	0x1
	.uleb128 .LLSDACSE18314-.LLSDACSB18314
.LLSDACSB18314:
.LLSDACSE18314:
	.text
	.seh_endproc
	.p2align 4
	.def	_ZN9HistogramItdE10accumulateIdEEvPT_y._omp_fn.0;	.scl	3;	.type	32;	.endef
	.seh_proc	_ZN9HistogramItdE10accumulateIdEEvPT_y._omp_fn.0
_ZN9HistogramItdE10accumulateIdEEvPT_y._omp_fn.0:
.LFB18319:
	pushq	%rbp
	.seh_pushreg	%rbp
	pushq	%r15
	.seh_pushreg	%r15
	pushq	%r14
	.seh_pushreg	%r14
	pushq	%r13
	.seh_pushreg	%r13
	pushq	%r12
	.seh_pushreg	%r12
	pushq	%rdi
	.seh_pushreg	%rdi
	pushq	%rsi
	.seh_pushreg	%rsi
	pushq	%rbx
	.seh_pushreg	%rbx
	subq	$88, %rsp
	.seh_stackalloc	88
	leaq	128(%rsp), %rbp
	.seh_setframe	%rbp, 128
	vmovaps	%xmm6, -64(%rbp)
	.seh_savexmm	%xmm6, 64
	.seh_endprologue
	movq	8(%rcx), %rax
	movq	16(%rcx), %r14
	movq	32(%rcx), %rbx
	vmovsd	24(%rcx), %xmm6
	movq	%rax, -72(%rbp)
	movq	(%rcx), %rax
	movq	%rax, -88(%rbp)
	call	_Z22manage_thread_affinityv
	movl	(%r14), %r13d
	leaq	15(%r13,%r13), %rax
	movq	%r13, %r10
	leaq	-1(%r13), %rdi
	shrq	$4, %rax
	salq	$4, %rax
	call	___chkstk_ms
	subq	%rax, %rsp
	leaq	32(%rsp), %rsi
	movq	%rsi, %r12
	cmpl	$15, %r13d
	jbe	.L944
	leaq	-16(%r13), %rax
	xorl	%ecx, %ecx
	vpxor	%xmm0, %xmm0, %xmm0
	shrq	$4, %rax
	incq	%rax
	.p2align 4,,10
	.p2align 3
.L926:
	movq	%rcx, %rdx
	incq	%rcx
	salq	$5, %rdx
	vmovdqu	%ymm0, (%rsi,%rdx)
	cmpq	%rcx, %rax
	ja	.L926
	movq	%rax, %rdx
	salq	$5, %rax
	salq	$4, %rdx
	addq	%rsi, %rax
	cmpq	%rdx, %r13
	je	.L955
	xorl	%r15d, %r15d
	leaq	1(%rdx), %rcx
	movw	%r15w, (%rax)
	cmpq	%rcx, %rdi
	jb	.L956
	xorl	%r11d, %r11d
	leaq	2(%rdx), %rcx
	movw	%r11w, 2(%rax)
	cmpq	%rcx, %rdi
	jb	.L957
	xorl	%r9d, %r9d
	leaq	3(%rdx), %rcx
	movw	%r9w, 4(%rax)
	cmpq	%rcx, %rdi
	jb	.L958
	xorl	%r8d, %r8d
	leaq	4(%rdx), %rcx
	movw	%r8w, 6(%rax)
	cmpq	%rcx, %rdi
	jb	.L959
	xorl	%ecx, %ecx
	movw	%cx, 8(%rax)
	leaq	5(%rdx), %rcx
	cmpq	%rcx, %rdi
	jb	.L960
	xorl	%r15d, %r15d
	leaq	6(%rdx), %rcx
	movw	%r15w, 10(%rax)
	cmpq	%rcx, %rdi
	jb	.L961
	xorl	%r11d, %r11d
	leaq	7(%rdx), %rcx
	movw	%r11w, 12(%rax)
	cmpq	%rcx, %rdi
	jb	.L962
	xorl	%r9d, %r9d
	leaq	8(%rdx), %rcx
	movw	%r9w, 14(%rax)
	cmpq	%rcx, %rdi
	jb	.L963
	xorl	%r8d, %r8d
	leaq	9(%rdx), %rcx
	movw	%r8w, 16(%rax)
	cmpq	%rcx, %rdi
	jb	.L964
	xorl	%ecx, %ecx
	movw	%cx, 18(%rax)
	leaq	10(%rdx), %rcx
	cmpq	%rcx, %rdi
	jb	.L965
	xorl	%r15d, %r15d
	leaq	11(%rdx), %rcx
	movw	%r15w, 20(%rax)
	cmpq	%rcx, %rdi
	jb	.L966
	xorl	%r11d, %r11d
	leaq	12(%rdx), %rcx
	movw	%r11w, 22(%rax)
	cmpq	%rcx, %rdi
	jb	.L967
	xorl	%r9d, %r9d
	leaq	13(%rdx), %rcx
	movw	%r9w, 24(%rax)
	cmpq	%rcx, %rdi
	jb	.L968
	xorl	%r8d, %r8d
	addq	$14, %rdx
	movw	%r8w, 26(%rax)
	cmpq	%rdx, %rdi
	jb	.L969
	xorl	%ecx, %ecx
	movw	%cx, 28(%rax)
	vzeroupper
	jmp	.L928
	.p2align 4,,10
	.p2align 3
.L944:
	xorl	%eax, %eax
	.p2align 4,,10
	.p2align 3
.L925:
	xorl	%edx, %edx
	movw	%dx, (%rsi,%rax,2)
	incq	%rax
	cmpq	%rax, %rdi
	jnb	.L925
	jmp	.L928
.L955:
	vzeroupper
	jmp	.L928
.L956:
	vzeroupper
	jmp	.L928
.L957:
	vzeroupper
	jmp	.L928
.L958:
	vzeroupper
	jmp	.L928
.L959:
	vzeroupper
	jmp	.L928
.L960:
	vzeroupper
	jmp	.L928
.L961:
	vzeroupper
	jmp	.L928
.L962:
	vzeroupper
	jmp	.L928
.L963:
	vzeroupper
	jmp	.L928
.L964:
	vzeroupper
	jmp	.L928
.L965:
	vzeroupper
	jmp	.L928
.L966:
	vzeroupper
	jmp	.L928
.L967:
	vzeroupper
	jmp	.L928
.L968:
	vzeroupper
	jmp	.L928
.L969:
	vzeroupper
	.p2align 4,,10
	.p2align 3
.L928:
	cmpq	$0, -72(%rbp)
	jne	.L929
	.p2align 4,,10
	.p2align 3
.L934:
	call	GOMP_atomic_start
	cmpq	$14, %rdi
	jbe	.L945
	leaq	-16(%r13), %rcx
	xorl	%eax, %eax
	xorl	%edx, %edx
	shrq	$4, %rcx
	incq	%rcx
	.p2align 4,,10
	.p2align 3
.L931:
	vmovdqu	(%rbx,%rax), %ymm4
	vpaddw	(%rsi,%rax), %ymm4, %ymm0
	incq	%rdx
	vmovdqu	%ymm0, (%rbx,%rax)
	addq	$32, %rax
	cmpq	%rcx, %rdx
	jb	.L931
	movq	%rcx, %rax
	salq	$5, %rcx
	salq	$4, %rax
	leaq	(%rsi,%rcx), %r12
	addq	%rcx, %rbx
	cmpq	%rax, %r13
	jne	.L970
	vzeroupper
	jmp	.L932
	.p2align 4,,10
	.p2align 3
.L945:
	xorl	%eax, %eax
	jmp	.L930
	.p2align 4,,10
	.p2align 3
.L970:
	vzeroupper
.L930:
	movzwl	(%r12), %edx
	addw	%dx, (%rbx)
	leaq	1(%rax), %rdx
	cmpq	%rdx, %rdi
	jb	.L932
	movzwl	2(%r12), %edx
	addw	%dx, 2(%rbx)
	leaq	2(%rax), %rdx
	cmpq	%rdx, %rdi
	jb	.L932
	movzwl	4(%r12), %edx
	addw	%dx, 4(%rbx)
	leaq	3(%rax), %rdx
	cmpq	%rdx, %rdi
	jb	.L932
	movzwl	6(%r12), %edx
	addw	%dx, 6(%rbx)
	leaq	4(%rax), %rdx
	cmpq	%rdx, %rdi
	jb	.L932
	movzwl	8(%r12), %edx
	addw	%dx, 8(%rbx)
	leaq	5(%rax), %rdx
	cmpq	%rdx, %rdi
	jb	.L932
	movzwl	10(%r12), %edx
	addw	%dx, 10(%rbx)
	leaq	6(%rax), %rdx
	cmpq	%rdx, %rdi
	jb	.L932
	movzwl	12(%r12), %edx
	addw	%dx, 12(%rbx)
	leaq	7(%rax), %rdx
	cmpq	%rdx, %rdi
	jb	.L932
	movzwl	14(%r12), %edx
	addw	%dx, 14(%rbx)
	leaq	8(%rax), %rdx
	cmpq	%rdx, %rdi
	jb	.L932
	movzwl	16(%r12), %edx
	addw	%dx, 16(%rbx)
	leaq	9(%rax), %rdx
	cmpq	%rdx, %rdi
	jb	.L932
	movzwl	18(%r12), %edx
	addw	%dx, 18(%rbx)
	leaq	10(%rax), %rdx
	cmpq	%rdx, %rdi
	jb	.L932
	movzwl	20(%r12), %edx
	addw	%dx, 20(%rbx)
	leaq	11(%rax), %rdx
	cmpq	%rdx, %rdi
	jb	.L932
	movzwl	22(%r12), %edx
	addw	%dx, 22(%rbx)
	leaq	12(%rax), %rdx
	cmpq	%rdx, %rdi
	jb	.L932
	movzwl	24(%r12), %edx
	addw	%dx, 24(%rbx)
	leaq	13(%rax), %rdx
	cmpq	%rdx, %rdi
	jb	.L932
	addq	$14, %rax
	movzwl	26(%r12), %edx
	addw	%dx, 26(%rbx)
	cmpq	%rax, %rdi
	jb	.L932
	movzwl	28(%r12), %eax
	addw	%ax, 28(%rbx)
	.p2align 4,,10
	.p2align 3
.L932:
	call	GOMP_atomic_end
	jmp	.L952
	.p2align 4,,10
	.p2align 3
.L929:
	movl	%r10d, -76(%rbp)
	call	omp_get_num_threads
	movslq	%eax, %r15
	call	omp_get_thread_num
	xorl	%edx, %edx
	movl	-76(%rbp), %r10d
	movslq	%eax, %rcx
	movq	-72(%rbp), %rax
	divq	%r15
	cmpq	%rdx, %rcx
	jb	.L933
.L943:
	imulq	%rax, %rcx
	addq	%rcx, %rdx
	addq	%rdx, %rax
	cmpq	%rax, %rdx
	jnb	.L934
	leal	-1(%r10), %ecx
	vmovsd	48(%r14), %xmm1
	vmovsd	.LC1(%rip), %xmm3
	movabsq	$-9223372036854775808, %r11
	leaq	(%rsi,%rcx,2), %r10
	movq	-88(%rbp), %rcx
	vmovapd	%xmm1, %xmm2
	vxorpd	.LC0(%rip), %xmm2, %xmm2
	leaq	(%rcx,%rdx,8), %rdx
	leaq	(%rcx,%rax,8), %rcx
	.p2align 4,,10
	.p2align 3
.L942:
	vmovsd	(%rdx), %xmm0
	vcomisd	%xmm1, %xmm0
	jb	.L953
	incw	(%r10)
	jmp	.L937
	.p2align 4,,10
	.p2align 3
.L953:
	vcomisd	%xmm0, %xmm2
	jbe	.L954
	incw	(%rsi)
	jmp	.L937
	.p2align 4,,10
	.p2align 3
.L954:
	vaddsd	%xmm0, %xmm1, %xmm0
	vdivsd	%xmm6, %xmm0, %xmm0
	vcomisd	%xmm3, %xmm0
	jnb	.L940
	vcvttsd2siq	%xmm0, %rax
	jmp	.L941
	.p2align 4,,10
	.p2align 3
.L940:
	vsubsd	%xmm3, %xmm0, %xmm0
	vcvttsd2siq	%xmm0, %rax
	xorq	%r11, %rax
.L941:
	incw	(%rsi,%rax,2)
.L937:
	addq	$8, %rdx
	cmpq	%rcx, %rdx
	jne	.L942
	jmp	.L934
	.p2align 4,,10
	.p2align 3
.L933:
	incq	%rax
	xorl	%edx, %edx
	jmp	.L943
	.p2align 4,,10
	.p2align 3
.L952:
	vmovaps	-64(%rbp), %xmm6
	leaq	-40(%rbp), %rsp
	popq	%rbx
	popq	%rsi
	popq	%rdi
	popq	%r12
	popq	%r13
	popq	%r14
	popq	%r15
	popq	%rbp
	ret
	.seh_handler	__gxx_personality_seh0, @unwind, @except
	.seh_handlerdata
.LLSDA18319:
	.byte	0xff
	.byte	0xff
	.byte	0x1
	.uleb128 .LLSDACSE18319-.LLSDACSB18319
.LLSDACSB18319:
.LLSDACSE18319:
	.text
	.seh_endproc
	.p2align 4
	.def	_ZN9HistogramItfE10accumulateIfEEvPT_y._omp_fn.0;	.scl	3;	.type	32;	.endef
	.seh_proc	_ZN9HistogramItfE10accumulateIfEEvPT_y._omp_fn.0
_ZN9HistogramItfE10accumulateIfEEvPT_y._omp_fn.0:
.LFB18320:
	pushq	%rbp
	.seh_pushreg	%rbp
	pushq	%r15
	.seh_pushreg	%r15
	pushq	%r14
	.seh_pushreg	%r14
	pushq	%r13
	.seh_pushreg	%r13
	pushq	%r12
	.seh_pushreg	%r12
	pushq	%rdi
	.seh_pushreg	%rdi
	pushq	%rsi
	.seh_pushreg	%rsi
	pushq	%rbx
	.seh_pushreg	%rbx
	subq	$88, %rsp
	.seh_stackalloc	88
	leaq	128(%rsp), %rbp
	.seh_setframe	%rbp, 128
	vmovaps	%xmm6, -64(%rbp)
	.seh_savexmm	%xmm6, 64
	.seh_endprologue
	movq	8(%rcx), %rax
	movq	16(%rcx), %r14
	movq	24(%rcx), %rbx
	vmovss	32(%rcx), %xmm6
	movq	%rax, -72(%rbp)
	movq	(%rcx), %rax
	movq	%rax, -88(%rbp)
	call	_Z22manage_thread_affinityv
	movl	(%r14), %r13d
	leaq	15(%r13,%r13), %rax
	movq	%r13, %r10
	leaq	-1(%r13), %rdi
	shrq	$4, %rax
	salq	$4, %rax
	call	___chkstk_ms
	subq	%rax, %rsp
	leaq	32(%rsp), %rsi
	movq	%rsi, %r12
	cmpl	$15, %r13d
	jbe	.L991
	leaq	-16(%r13), %rax
	xorl	%ecx, %ecx
	vpxor	%xmm0, %xmm0, %xmm0
	shrq	$4, %rax
	incq	%rax
	.p2align 4,,10
	.p2align 3
.L973:
	movq	%rcx, %rdx
	incq	%rcx
	salq	$5, %rdx
	vmovdqu	%ymm0, (%rsi,%rdx)
	cmpq	%rcx, %rax
	ja	.L973
	movq	%rax, %rdx
	salq	$5, %rax
	salq	$4, %rdx
	addq	%rsi, %rax
	cmpq	%rdx, %r13
	je	.L1002
	xorl	%r15d, %r15d
	leaq	1(%rdx), %rcx
	movw	%r15w, (%rax)
	cmpq	%rcx, %rdi
	jb	.L1003
	xorl	%r11d, %r11d
	leaq	2(%rdx), %rcx
	movw	%r11w, 2(%rax)
	cmpq	%rcx, %rdi
	jb	.L1004
	xorl	%r9d, %r9d
	leaq	3(%rdx), %rcx
	movw	%r9w, 4(%rax)
	cmpq	%rcx, %rdi
	jb	.L1005
	xorl	%r8d, %r8d
	leaq	4(%rdx), %rcx
	movw	%r8w, 6(%rax)
	cmpq	%rcx, %rdi
	jb	.L1006
	xorl	%ecx, %ecx
	movw	%cx, 8(%rax)
	leaq	5(%rdx), %rcx
	cmpq	%rcx, %rdi
	jb	.L1007
	xorl	%r15d, %r15d
	leaq	6(%rdx), %rcx
	movw	%r15w, 10(%rax)
	cmpq	%rcx, %rdi
	jb	.L1008
	xorl	%r11d, %r11d
	leaq	7(%rdx), %rcx
	movw	%r11w, 12(%rax)
	cmpq	%rcx, %rdi
	jb	.L1009
	xorl	%r9d, %r9d
	leaq	8(%rdx), %rcx
	movw	%r9w, 14(%rax)
	cmpq	%rcx, %rdi
	jb	.L1010
	xorl	%r8d, %r8d
	leaq	9(%rdx), %rcx
	movw	%r8w, 16(%rax)
	cmpq	%rcx, %rdi
	jb	.L1011
	xorl	%ecx, %ecx
	movw	%cx, 18(%rax)
	leaq	10(%rdx), %rcx
	cmpq	%rcx, %rdi
	jb	.L1012
	xorl	%r15d, %r15d
	leaq	11(%rdx), %rcx
	movw	%r15w, 20(%rax)
	cmpq	%rcx, %rdi
	jb	.L1013
	xorl	%r11d, %r11d
	leaq	12(%rdx), %rcx
	movw	%r11w, 22(%rax)
	cmpq	%rcx, %rdi
	jb	.L1014
	xorl	%r9d, %r9d
	leaq	13(%rdx), %rcx
	movw	%r9w, 24(%rax)
	cmpq	%rcx, %rdi
	jb	.L1015
	xorl	%r8d, %r8d
	addq	$14, %rdx
	movw	%r8w, 26(%rax)
	cmpq	%rdx, %rdi
	jb	.L1016
	xorl	%ecx, %ecx
	movw	%cx, 28(%rax)
	vzeroupper
	jmp	.L975
	.p2align 4,,10
	.p2align 3
.L991:
	xorl	%eax, %eax
	.p2align 4,,10
	.p2align 3
.L972:
	xorl	%edx, %edx
	movw	%dx, (%rsi,%rax,2)
	incq	%rax
	cmpq	%rax, %rdi
	jnb	.L972
	jmp	.L975
.L1002:
	vzeroupper
	jmp	.L975
.L1003:
	vzeroupper
	jmp	.L975
.L1004:
	vzeroupper
	jmp	.L975
.L1005:
	vzeroupper
	jmp	.L975
.L1006:
	vzeroupper
	jmp	.L975
.L1007:
	vzeroupper
	jmp	.L975
.L1008:
	vzeroupper
	jmp	.L975
.L1009:
	vzeroupper
	jmp	.L975
.L1010:
	vzeroupper
	jmp	.L975
.L1011:
	vzeroupper
	jmp	.L975
.L1012:
	vzeroupper
	jmp	.L975
.L1013:
	vzeroupper
	jmp	.L975
.L1014:
	vzeroupper
	jmp	.L975
.L1015:
	vzeroupper
	jmp	.L975
.L1016:
	vzeroupper
	.p2align 4,,10
	.p2align 3
.L975:
	cmpq	$0, -72(%rbp)
	jne	.L976
	.p2align 4,,10
	.p2align 3
.L981:
	call	GOMP_atomic_start
	cmpq	$14, %rdi
	jbe	.L992
	leaq	-16(%r13), %rcx
	xorl	%eax, %eax
	xorl	%edx, %edx
	shrq	$4, %rcx
	incq	%rcx
	.p2align 4,,10
	.p2align 3
.L978:
	vmovdqu	(%rbx,%rax), %ymm4
	vpaddw	(%rsi,%rax), %ymm4, %ymm0
	incq	%rdx
	vmovdqu	%ymm0, (%rbx,%rax)
	addq	$32, %rax
	cmpq	%rcx, %rdx
	jb	.L978
	movq	%rcx, %rax
	salq	$5, %rcx
	salq	$4, %rax
	leaq	(%rsi,%rcx), %r12
	addq	%rcx, %rbx
	cmpq	%rax, %r13
	jne	.L1017
	vzeroupper
	jmp	.L979
	.p2align 4,,10
	.p2align 3
.L992:
	xorl	%eax, %eax
	jmp	.L977
	.p2align 4,,10
	.p2align 3
.L1017:
	vzeroupper
.L977:
	movzwl	(%r12), %edx
	addw	%dx, (%rbx)
	leaq	1(%rax), %rdx
	cmpq	%rdx, %rdi
	jb	.L979
	movzwl	2(%r12), %edx
	addw	%dx, 2(%rbx)
	leaq	2(%rax), %rdx
	cmpq	%rdx, %rdi
	jb	.L979
	movzwl	4(%r12), %edx
	addw	%dx, 4(%rbx)
	leaq	3(%rax), %rdx
	cmpq	%rdx, %rdi
	jb	.L979
	movzwl	6(%r12), %edx
	addw	%dx, 6(%rbx)
	leaq	4(%rax), %rdx
	cmpq	%rdx, %rdi
	jb	.L979
	movzwl	8(%r12), %edx
	addw	%dx, 8(%rbx)
	leaq	5(%rax), %rdx
	cmpq	%rdx, %rdi
	jb	.L979
	movzwl	10(%r12), %edx
	addw	%dx, 10(%rbx)
	leaq	6(%rax), %rdx
	cmpq	%rdx, %rdi
	jb	.L979
	movzwl	12(%r12), %edx
	addw	%dx, 12(%rbx)
	leaq	7(%rax), %rdx
	cmpq	%rdx, %rdi
	jb	.L979
	movzwl	14(%r12), %edx
	addw	%dx, 14(%rbx)
	leaq	8(%rax), %rdx
	cmpq	%rdx, %rdi
	jb	.L979
	movzwl	16(%r12), %edx
	addw	%dx, 16(%rbx)
	leaq	9(%rax), %rdx
	cmpq	%rdx, %rdi
	jb	.L979
	movzwl	18(%r12), %edx
	addw	%dx, 18(%rbx)
	leaq	10(%rax), %rdx
	cmpq	%rdx, %rdi
	jb	.L979
	movzwl	20(%r12), %edx
	addw	%dx, 20(%rbx)
	leaq	11(%rax), %rdx
	cmpq	%rdx, %rdi
	jb	.L979
	movzwl	22(%r12), %edx
	addw	%dx, 22(%rbx)
	leaq	12(%rax), %rdx
	cmpq	%rdx, %rdi
	jb	.L979
	movzwl	24(%r12), %edx
	addw	%dx, 24(%rbx)
	leaq	13(%rax), %rdx
	cmpq	%rdx, %rdi
	jb	.L979
	addq	$14, %rax
	movzwl	26(%r12), %edx
	addw	%dx, 26(%rbx)
	cmpq	%rax, %rdi
	jb	.L979
	movzwl	28(%r12), %eax
	addw	%ax, 28(%rbx)
	.p2align 4,,10
	.p2align 3
.L979:
	call	GOMP_atomic_end
	jmp	.L999
	.p2align 4,,10
	.p2align 3
.L976:
	movl	%r10d, -76(%rbp)
	call	omp_get_num_threads
	movslq	%eax, %r15
	call	omp_get_thread_num
	xorl	%edx, %edx
	movl	-76(%rbp), %r10d
	movslq	%eax, %rcx
	movq	-72(%rbp), %rax
	divq	%r15
	cmpq	%rdx, %rcx
	jb	.L980
.L990:
	imulq	%rax, %rcx
	addq	%rcx, %rdx
	addq	%rdx, %rax
	cmpq	%rax, %rdx
	jnb	.L981
	leal	-1(%r10), %ecx
	vmovss	48(%r14), %xmm1
	vmovss	.LC3(%rip), %xmm3
	movabsq	$-9223372036854775808, %r11
	leaq	(%rsi,%rcx,2), %r10
	movq	-88(%rbp), %rcx
	vmovaps	%xmm1, %xmm2
	vxorps	.LC2(%rip), %xmm2, %xmm2
	leaq	(%rcx,%rdx,4), %rdx
	leaq	(%rcx,%rax,4), %rcx
	.p2align 4,,10
	.p2align 3
.L989:
	vmovss	(%rdx), %xmm0
	vcomiss	%xmm1, %xmm0
	jb	.L1000
	incw	(%r10)
	jmp	.L984
	.p2align 4,,10
	.p2align 3
.L1000:
	vcomiss	%xmm0, %xmm2
	jbe	.L1001
	incw	(%rsi)
	jmp	.L984
	.p2align 4,,10
	.p2align 3
.L1001:
	vaddss	%xmm0, %xmm1, %xmm0
	vdivss	%xmm6, %xmm0, %xmm0
	vcomiss	.LC3(%rip), %xmm0
	jnb	.L987
	vcvttss2siq	%xmm0, %rax
	jmp	.L988
	.p2align 4,,10
	.p2align 3
.L987:
	vsubss	%xmm3, %xmm0, %xmm0
	vcvttss2siq	%xmm0, %rax
	xorq	%r11, %rax
.L988:
	incw	(%rsi,%rax,2)
.L984:
	addq	$4, %rdx
	cmpq	%rcx, %rdx
	jne	.L989
	jmp	.L981
	.p2align 4,,10
	.p2align 3
.L980:
	incq	%rax
	xorl	%edx, %edx
	jmp	.L990
	.p2align 4,,10
	.p2align 3
.L999:
	vmovaps	-64(%rbp), %xmm6
	leaq	-40(%rbp), %rsp
	popq	%rbx
	popq	%rsi
	popq	%rdi
	popq	%r12
	popq	%r13
	popq	%r14
	popq	%r15
	popq	%rbp
	ret
	.seh_handler	__gxx_personality_seh0, @unwind, @except
	.seh_handlerdata
.LLSDA18320:
	.byte	0xff
	.byte	0xff
	.byte	0x1
	.uleb128 .LLSDACSE18320-.LLSDACSB18320
.LLSDACSB18320:
.LLSDACSE18320:
	.text
	.seh_endproc
	.align 2
	.p2align 4
	.def	_ZN8pybind1112cpp_function20make_function_recordEv.isra.0;	.scl	3;	.type	32;	.endef
	.seh_proc	_ZN8pybind1112cpp_function20make_function_recordEv.isra.0
_ZN8pybind1112cpp_function20make_function_recordEv.isra.0:
.LFB18630:
	subq	$40, %rsp
	.seh_stackalloc	40
	.seh_endprologue
	movl	$128, %ecx
	call	_Znwy
	vpxor	%xmm0, %xmm0, %xmm0
	andw	$-32768, 88(%rax)
	movq	$0, 32(%rax)
	movq	$0, 40(%rax)
	movq	$0, 48(%rax)
	movq	$0, 56(%rax)
	movq	$0, 64(%rax)
	movq	$0, 72(%rax)
	movq	$0, 80(%rax)
	vmovdqu	%ymm0, (%rax)
	vmovdqu	%ymm0, 96(%rax)
	vzeroupper
	addq	$40, %rsp
	ret
	.seh_endproc
	.section	.text$_ZN8pybind116class_I9HistogramIydEJEE7deallocERNS_6detail16value_and_holderE,"x"
	.linkonce discard
	.p2align 4
	.globl	_ZN8pybind116class_I9HistogramIydEJEE7deallocERNS_6detail16value_and_holderE
	.def	_ZN8pybind116class_I9HistogramIydEJEE7deallocERNS_6detail16value_and_holderE;	.scl	2;	.type	32;	.endef
	.seh_proc	_ZN8pybind116class_I9HistogramIydEJEE7deallocERNS_6detail16value_and_holderE
_ZN8pybind116class_I9HistogramIydEJEE7deallocERNS_6detail16value_and_holderE:
.LFB14771:
	pushq	%r12
	.seh_pushreg	%r12
	pushq	%rbx
	.seh_pushreg	%rbx
	subq	$40, %rsp
	.seh_stackalloc	40
	.seh_endprologue
	movq	%rcx, %rbx
	movq	(%rcx), %rcx
	movzbl	48(%rcx), %eax
	movl	%eax, %edx
	shrb	%dl
	andl	$1, %edx
	je	.L1020
	shrb	$2, %al
	andl	$1, %eax
	jmp	.L1021
	.p2align 4,,10
	.p2align 3
.L1020:
	movq	24(%rcx), %r8
	movq	8(%rbx), %rax
	movzbl	(%r8,%rax), %eax
	andl	$1, %eax
.L1021:
	movq	24(%rbx), %r8
	testl	%eax, %eax
	je	.L1022
	movq	8(%r8), %r12
	testq	%r12, %r12
	je	.L1023
	movq	16(%r12), %rax
	testq	%rax, %rax
	je	.L1024
	movq	24(%r12), %rcx
	testq	%rcx, %rcx
	je	.L1024
	call	*%rax
.L1024:
	movl	$64, %edx
	movq	%r12, %rcx
	call	_ZdlPvy
	movq	(%rbx), %rcx
	movzbl	48(%rcx), %edx
	shrb	%dl
	andl	$1, %edx
.L1023:
	testb	%dl, %dl
	je	.L1025
	andb	$-5, 48(%rcx)
	jmp	.L1026
	.p2align 4,,10
	.p2align 3
.L1025:
	movq	8(%rbx), %rax
	addq	24(%rcx), %rax
	andb	$-2, (%rax)
	jmp	.L1026
	.p2align 4,,10
	.p2align 3
.L1022:
	movq	(%r8), %rcx
	call	_ZdlPv
.L1026:
	movq	24(%rbx), %rax
	movq	$0, (%rax)
	addq	$40, %rsp
	popq	%rbx
	popq	%r12
	ret
	.seh_handler	__gxx_personality_seh0, @unwind, @except
	.seh_handlerdata
.LLSDA14771:
	.byte	0xff
	.byte	0xff
	.byte	0x1
	.uleb128 .LLSDACSE14771-.LLSDACSB14771
.LLSDACSB14771:
.LLSDACSE14771:
	.section	.text$_ZN8pybind116class_I9HistogramIydEJEE7deallocERNS_6detail16value_and_holderE,"x"
	.linkonce discard
	.seh_endproc
	.section .rdata,"dr"
	.align 8
.LC7:
	.ascii "Warning : The wanted number of thread (%d) is higher than the number of physical threads (%d) in this computer. n_thread was replaced by physical_n_threads. \12\0"
	.text
	.p2align 4
	.def	_ZL6printfPKcz.constprop.0;	.scl	3;	.type	32;	.endef
	.seh_proc	_ZL6printfPKcz.constprop.0
_ZL6printfPKcz.constprop.0:
.LFB19215:
	pushq	%rbx
	.seh_pushreg	%rbx
	subq	$48, %rsp
	.seh_stackalloc	48
	.seh_endprologue
	movl	$1, %ecx
	leaq	72(%rsp), %rbx
	movq	%rdx, 72(%rsp)
	movq	%r8, 80(%rsp)
	movq	%r9, 88(%rsp)
	movq	%rbx, 40(%rsp)
	call	*__imp___acrt_iob_func(%rip)
	movq	%rbx, %r8
	leaq	.LC7(%rip), %rdx
	movq	%rax, %rcx
	call	__mingw_vfprintf
	addq	$48, %rsp
	popq	%rbx
	ret
	.seh_endproc
	.section .rdata,"dr"
	.align 8
.LC8:
	.ascii "Error allocation aligned memory.\0"
	.section	.text$_Z19_64B_aligned_mallocILy64EEPvy,"x"
	.linkonce discard
	.p2align 4
	.globl	_Z19_64B_aligned_mallocILy64EEPvy
	.def	_Z19_64B_aligned_mallocILy64EEPvy;	.scl	2;	.type	32;	.endef
	.seh_proc	_Z19_64B_aligned_mallocILy64EEPvy
_Z19_64B_aligned_mallocILy64EEPvy:
.LFB14825:
	pushq	%r13
	.seh_pushreg	%r13
	pushq	%r12
	.seh_pushreg	%r12
	subq	$40, %rsp
	.seh_stackalloc	40
	.seh_endprologue
	testq	%rcx, %rcx
	je	.L1038
	addq	$64, %rcx
	call	malloc
	movq	%rax, %rdx
	testq	%rax, %rax
	je	.L1038
	leaq	64(%rax), %rax
	andq	$-64, %rax
	movq	%rdx, -8(%rax)
	jmp	.L1047
.L1038:
	movl	$16, %ecx
	call	__cxa_allocate_exception
	leaq	.LC8(%rip), %rdx
	movq	%rax, %rcx
	movq	%rax, %r12
.LEHB14:
	call	_ZNSt13runtime_errorC1EPKc
.LEHE14:
	leaq	_ZNSt13runtime_errorD1Ev(%rip), %r8
	leaq	_ZTISt13runtime_error(%rip), %rdx
	movq	%r12, %rcx
.LEHB15:
	call	__cxa_throw
.L1040:
	movq	%rax, %r13
	movq	%r12, %rcx
	vzeroupper
	call	__cxa_free_exception
	movq	%r13, %rcx
	call	_Unwind_Resume
.LEHE15:
	.p2align 4,,10
	.p2align 3
.L1047:
	addq	$40, %rsp
	popq	%r12
	popq	%r13
	ret
	.seh_handler	__gxx_personality_seh0, @unwind, @except
	.seh_handlerdata
.LLSDA14825:
	.byte	0xff
	.byte	0xff
	.byte	0x1
	.uleb128 .LLSDACSE14825-.LLSDACSB14825
.LLSDACSB14825:
	.uleb128 .LEHB14-.LFB14825
	.uleb128 .LEHE14-.LEHB14
	.uleb128 .L1040-.LFB14825
	.uleb128 0
	.uleb128 .LEHB15-.LFB14825
	.uleb128 .LEHE15-.LEHB15
	.uleb128 0
	.uleb128 0
.LLSDACSE14825:
	.section	.text$_Z19_64B_aligned_mallocILy64EEPvy,"x"
	.linkonce discard
	.seh_endproc
	.text
	.p2align 4
	.def	_ZN9__gnu_cxx12__to_xstringINSt7__cxx1112basic_stringIcSt11char_traitsIcESaIcEEEcEET_PFiPT0_yPKS8_PcEySB_z.constprop.0;	.scl	3;	.type	32;	.endef
	.seh_proc	_ZN9__gnu_cxx12__to_xstringINSt7__cxx1112basic_stringIcSt11char_traitsIcESaIcEEEcEET_PFiPT0_yPKS8_PcEySB_z.constprop.0
_ZN9__gnu_cxx12__to_xstringINSt7__cxx1112basic_stringIcSt11char_traitsIcESaIcEEEcEET_PFiPT0_yPKS8_PcEySB_z.constprop.0:
.LFB19216:
	pushq	%rbp
	.seh_pushreg	%rbp
	pushq	%r13
	.seh_pushreg	%r13
	pushq	%r12
	.seh_pushreg	%r12
	pushq	%rbx
	.seh_pushreg	%rbx
	subq	$56, %rsp
	.seh_stackalloc	56
	leaq	128(%rsp), %rbp
	.seh_setframe	%rbp, 128
	.seh_endprologue
	movq	%r8, %rdx
	movq	%rcx, %r12
	movq	%r9, %r8
	leaq	31(%rdx), %rax
	andq	$-16, %rax
	call	___chkstk_ms
	subq	%rax, %rsp
	movq	%rbp, %r9
	movq	%rbp, -96(%rbp)
	leaq	63(%rsp), %r13
	andq	$-32, %r13
	movq	%r13, %rcx
	call	__mingw_vsnprintf
	leaq	16(%r12), %rcx
	movslq	%eax, %rbx
	movq	%rcx, (%r12)
	movq	%rbx, -88(%rbp)
	cmpq	$15, %rbx
	ja	.L1056
	cmpq	$1, %rbx
	jne	.L1051
	movzbl	0(%r13), %eax
	movb	%al, 16(%r12)
.L1052:
	movq	%r12, %rax
	movq	%rbx, 8(%r12)
	movb	$0, (%rcx,%rbx)
	leaq	-72(%rbp), %rsp
	popq	%rbx
	popq	%r12
	popq	%r13
	popq	%rbp
	ret
	.p2align 4,,10
	.p2align 3
.L1051:
	testq	%rbx, %rbx
	je	.L1052
	jmp	.L1050
	.p2align 4,,10
	.p2align 3
.L1056:
	movq	%r12, %rcx
	leaq	-88(%rbp), %rdx
	xorl	%r8d, %r8d
	call	_ZNSt7__cxx1112basic_stringIcSt11char_traitsIcESaIcEE9_M_createERyy
	movq	%rax, (%r12)
	movq	%rax, %rcx
	movq	-88(%rbp), %rax
	movq	%rax, 16(%r12)
.L1050:
	movq	%rbx, %r8
	movq	%r13, %rdx
	call	memcpy
	movq	-88(%rbp), %rbx
	movq	(%r12), %rcx
	jmp	.L1052
	.seh_endproc
	.section	.text$pybind11_releasebuffer,"x"
	.linkonce discard
	.p2align 4
	.globl	pybind11_releasebuffer
	.def	pybind11_releasebuffer;	.scl	2;	.type	32;	.endef
	.seh_proc	pybind11_releasebuffer
pybind11_releasebuffer:
.LFB10863:
	pushq	%r12
	.seh_pushreg	%r12
	subq	$32, %rsp
	.seh_stackalloc	32
	.seh_endprologue
	movq	88(%rdx), %r12
	testq	%r12, %r12
	je	.L1057
	movq	112(%r12), %rcx
	testq	%rcx, %rcx
	je	.L1060
	cmpb	$0, 120(%r12)
	je	.L1060
	call	*__imp_PyBuffer_Release(%rip)
	movq	112(%r12), %rcx
	testq	%rcx, %rcx
	je	.L1060
	movl	$96, %edx
	call	_ZdlPvy
	.p2align 4,,10
	.p2align 3
.L1060:
	movq	88(%r12), %rcx
	testq	%rcx, %rcx
	je	.L1062
	call	_ZdlPv
.L1062:
	movq	64(%r12), %rcx
	testq	%rcx, %rcx
	je	.L1063
	call	_ZdlPv
.L1063:
	movq	24(%r12), %rcx
	leaq	40(%r12), %rax
	cmpq	%rax, %rcx
	je	.L1064
	call	_ZdlPv
.L1064:
	movl	$128, %edx
	movq	%r12, %rcx
	addq	$32, %rsp
	popq	%r12
	jmp	_ZdlPvy
	.p2align 4,,10
	.p2align 3
.L1057:
	addq	$32, %rsp
	popq	%r12
	ret
	.seh_handler	__gxx_personality_seh0, @unwind, @except
	.seh_handlerdata
.LLSDA10863:
	.byte	0xff
	.byte	0xff
	.byte	0x1
	.uleb128 .LLSDACSE10863-.LLSDACSB10863
.LLSDACSB10863:
.LLSDACSE10863:
	.section	.text$pybind11_releasebuffer,"x"
	.linkonce discard
	.seh_endproc
	.section .rdata,"dr"
.LC9:
	.ascii "basic_string::append\0"
.LC10:
	.ascii ": No constructor defined!\0"
	.section	.text$pybind11_object_init,"x"
	.linkonce discard
	.p2align 4
	.globl	pybind11_object_init
	.def	pybind11_object_init;	.scl	2;	.type	32;	.endef
	.seh_proc	pybind11_object_init
pybind11_object_init:
.LFB10845:
	pushq	%r13
	.seh_pushreg	%r13
	pushq	%r12
	.seh_pushreg	%r12
	pushq	%rbx
	.seh_pushreg	%rbx
	subq	$64, %rsp
	.seh_stackalloc	64
	.seh_endprologue
	movq	8(%rcx), %rax
	leaq	48(%rsp), %rbx
	movb	$0, 48(%rsp)
	leaq	32(%rsp), %r13
	movq	%rbx, 32(%rsp)
	movq	$0, 40(%rsp)
	movq	24(%rax), %r12
	movq	%r12, %rcx
	call	strlen
	movq	%rax, %r8
	movabsq	$4611686018427387903, %rax
	cmpq	%rax, %r8
	jbe	.L1075
	leaq	.LC9(%rip), %rcx
.LEHB16:
	call	_ZSt20__throw_length_errorPKc
	.p2align 4,,10
	.p2align 3
.L1075:
	movq	%r12, %rdx
	movq	%r13, %rcx
	call	_ZNSt7__cxx1112basic_stringIcSt11char_traitsIcESaIcEE9_M_appendEPKcy
	movabsq	$4611686018427387903, %rax
	subq	40(%rsp), %rax
	cmpq	$24, %rax
	ja	.L1076
	leaq	.LC9(%rip), %rcx
	call	_ZSt20__throw_length_errorPKc
	.p2align 4,,10
	.p2align 3
.L1076:
	movl	$25, %r8d
	leaq	.LC10(%rip), %rdx
	movq	%r13, %rcx
	call	_ZNSt7__cxx1112basic_stringIcSt11char_traitsIcESaIcEE9_M_appendEPKcy
	movq	__imp_PyExc_TypeError(%rip), %rax
	movq	32(%rsp), %rdx
	movq	(%rax), %rcx
	call	*__imp_PyErr_SetString(%rip)
.LEHE16:
	movq	32(%rsp), %rcx
	cmpq	%rbx, %rcx
	je	.L1081
	call	_ZdlPv
	jmp	.L1081
.L1080:
	movq	32(%rsp), %rcx
	movq	%rax, %r12
	cmpq	%rbx, %rcx
	je	.L1082
	vzeroupper
	call	_ZdlPv
	jmp	.L1079
.L1082:
	vzeroupper
.L1079:
	movq	%r12, %rcx
.LEHB17:
	call	_Unwind_Resume
.LEHE17:
	.p2align 4,,10
	.p2align 3
.L1081:
	movl	$-1, %eax
	addq	$64, %rsp
	popq	%rbx
	popq	%r12
	popq	%r13
	ret
	.seh_handler	__gxx_personality_seh0, @unwind, @except
	.seh_handlerdata
.LLSDA10845:
	.byte	0xff
	.byte	0xff
	.byte	0x1
	.uleb128 .LLSDACSE10845-.LLSDACSB10845
.LLSDACSB10845:
	.uleb128 .LEHB16-.LFB10845
	.uleb128 .LEHE16-.LEHB16
	.uleb128 .L1080-.LFB10845
	.uleb128 0
	.uleb128 .LEHB17-.LFB10845
	.uleb128 .LEHE17-.LEHB17
	.uleb128 0
	.uleb128 0
.LLSDACSE10845:
	.section	.text$pybind11_object_init,"x"
	.linkonce discard
	.seh_endproc
	.section .rdata,"dr"
	.align 8
.LC11:
	.ascii "basic_string::_M_construct null not valid\0"
	.text
	.align 2
	.p2align 4
	.def	_ZNSt7__cxx1112basic_stringIcSt11char_traitsIcESaIcEEC2EPKcRKS3_.isra.0;	.scl	3;	.type	32;	.endef
	.seh_proc	_ZNSt7__cxx1112basic_stringIcSt11char_traitsIcESaIcEEC2EPKcRKS3_.isra.0
_ZNSt7__cxx1112basic_stringIcSt11char_traitsIcESaIcEEC2EPKcRKS3_.isra.0:
.LFB18808:
	pushq	%r13
	.seh_pushreg	%r13
	pushq	%r12
	.seh_pushreg	%r12
	pushq	%rsi
	.seh_pushreg	%rsi
	pushq	%rbx
	.seh_pushreg	%rbx
	subq	$56, %rsp
	.seh_stackalloc	56
	.seh_endprologue
	leaq	16(%rcx), %r13
	movq	%rcx, %rbx
	movq	%rdx, %r12
	movq	%r13, (%rcx)
	testq	%rdx, %rdx
	je	.L1092
	movq	%rdx, %rcx
	call	strlen
	movq	%rax, 40(%rsp)
	movq	%rax, %rsi
	cmpq	$15, %rax
	ja	.L1093
	cmpq	$1, %rax
	jne	.L1087
	movzbl	(%r12), %edx
	movb	%dl, 16(%rbx)
.L1088:
	movq	%rax, 8(%rbx)
	movb	$0, 0(%r13,%rax)
	addq	$56, %rsp
	popq	%rbx
	popq	%rsi
	popq	%r12
	popq	%r13
	ret
	.p2align 4,,10
	.p2align 3
.L1087:
	testq	%rax, %rax
	je	.L1088
	jmp	.L1086
	.p2align 4,,10
	.p2align 3
.L1093:
	leaq	40(%rsp), %rdx
	xorl	%r8d, %r8d
	movq	%rbx, %rcx
	call	_ZNSt7__cxx1112basic_stringIcSt11char_traitsIcESaIcEE9_M_createERyy
	movq	%rax, (%rbx)
	movq	%rax, %r13
	movq	40(%rsp), %rax
	movq	%rax, 16(%rbx)
.L1086:
	movq	%r13, %rcx
	movq	%rsi, %r8
	movq	%r12, %rdx
	call	memcpy
	movq	40(%rsp), %rax
	movq	(%rbx), %r13
	jmp	.L1088
	.p2align 4,,10
	.p2align 3
.L1092:
	leaq	.LC11(%rip), %rcx
	call	_ZSt19__throw_logic_errorPKc
	nop
	.seh_endproc
	.section	.text$_ZN8pybind1113pybind11_failEPKc,"x"
	.linkonce discard
	.globl	_ZN8pybind1113pybind11_failEPKc
	.def	_ZN8pybind1113pybind11_failEPKc;	.scl	2;	.type	32;	.endef
	.seh_proc	_ZN8pybind1113pybind11_failEPKc
_ZN8pybind1113pybind11_failEPKc:
.LFB9263:
	pushq	%r13
	.seh_pushreg	%r13
	pushq	%r12
	.seh_pushreg	%r12
	subq	$40, %rsp
	.seh_stackalloc	40
	.seh_endprologue
	movq	%rcx, %r13
	movl	$16, %ecx
	call	__cxa_allocate_exception
	movq	%r13, %rdx
	movq	%rax, %rcx
	movq	%rax, %r12
.LEHB18:
	call	_ZNSt13runtime_errorC1EPKc
.LEHE18:
	leaq	_ZNSt13runtime_errorD1Ev(%rip), %r8
	leaq	_ZTISt13runtime_error(%rip), %rdx
	movq	%r12, %rcx
.LEHB19:
	call	__cxa_throw
.L1096:
	movq	%rax, %r13
	movq	%r12, %rcx
	vzeroupper
	call	__cxa_free_exception
	movq	%r13, %rcx
	call	_Unwind_Resume
	nop
.LEHE19:
	.seh_handler	__gxx_personality_seh0, @unwind, @except
	.seh_handlerdata
.LLSDA9263:
	.byte	0xff
	.byte	0xff
	.byte	0x1
	.uleb128 .LLSDACSE9263-.LLSDACSB9263
.LLSDACSB9263:
	.uleb128 .LEHB18-.LFB9263
	.uleb128 .LEHE18-.LEHB18
	.uleb128 .L1096-.LFB9263
	.uleb128 0
	.uleb128 .LEHB19-.LFB9263
	.uleb128 .LEHE19-.LEHB19
	.uleb128 0
	.uleb128 0
.LLSDACSE9263:
	.section	.text$_ZN8pybind1113pybind11_failEPKc,"x"
	.linkonce discard
	.seh_endproc
	.section	.text$_ZN8pybind1113pybind11_failERKNSt7__cxx1112basic_stringIcSt11char_traitsIcESaIcEEE,"x"
	.linkonce discard
	.globl	_ZN8pybind1113pybind11_failERKNSt7__cxx1112basic_stringIcSt11char_traitsIcESaIcEEE
	.def	_ZN8pybind1113pybind11_failERKNSt7__cxx1112basic_stringIcSt11char_traitsIcESaIcEEE;	.scl	2;	.type	32;	.endef
	.seh_proc	_ZN8pybind1113pybind11_failERKNSt7__cxx1112basic_stringIcSt11char_traitsIcESaIcEEE
_ZN8pybind1113pybind11_failERKNSt7__cxx1112basic_stringIcSt11char_traitsIcESaIcEEE:
.LFB9264:
	pushq	%r13
	.seh_pushreg	%r13
	pushq	%r12
	.seh_pushreg	%r12
	subq	$40, %rsp
	.seh_stackalloc	40
	.seh_endprologue
	movq	%rcx, %r13
	movl	$16, %ecx
	call	__cxa_allocate_exception
	movq	%r13, %rdx
	movq	%rax, %rcx
	movq	%rax, %r12
.LEHB20:
	call	_ZNSt13runtime_errorC1ERKNSt7__cxx1112basic_stringIcSt11char_traitsIcESaIcEEE
.LEHE20:
	leaq	_ZNSt13runtime_errorD1Ev(%rip), %r8
	leaq	_ZTISt13runtime_error(%rip), %rdx
	movq	%r12, %rcx
.LEHB21:
	call	__cxa_throw
.L1099:
	movq	%rax, %r13
	movq	%r12, %rcx
	vzeroupper
	call	__cxa_free_exception
	movq	%r13, %rcx
	call	_Unwind_Resume
	nop
.LEHE21:
	.seh_handler	__gxx_personality_seh0, @unwind, @except
	.seh_handlerdata
.LLSDA9264:
	.byte	0xff
	.byte	0xff
	.byte	0x1
	.uleb128 .LLSDACSE9264-.LLSDACSB9264
.LLSDACSB9264:
	.uleb128 .LEHB20-.LFB9264
	.uleb128 .LEHE20-.LEHB20
	.uleb128 .L1099-.LFB9264
	.uleb128 0
	.uleb128 .LEHB21-.LFB9264
	.uleb128 .LEHE21-.LEHB21
	.uleb128 0
	.uleb128 0
.LLSDACSE9264:
	.section	.text$_ZN8pybind1113pybind11_failERKNSt7__cxx1112basic_stringIcSt11char_traitsIcESaIcEEE,"x"
	.linkonce discard
	.seh_endproc
	.section	.text$_ZN8pybind1111buffer_infoD1Ev,"x"
	.linkonce discard
	.align 2
	.p2align 4
	.globl	_ZN8pybind1111buffer_infoD1Ev
	.def	_ZN8pybind1111buffer_infoD1Ev;	.scl	2;	.type	32;	.endef
	.seh_proc	_ZN8pybind1111buffer_infoD1Ev
_ZN8pybind1111buffer_infoD1Ev:
.LFB9334:
	pushq	%rbx
	.seh_pushreg	%rbx
	subq	$32, %rsp
	.seh_stackalloc	32
	.seh_endprologue
	movq	%rcx, %rbx
	movq	112(%rcx), %rcx
	testq	%rcx, %rcx
	je	.L1102
	cmpb	$0, 120(%rbx)
	je	.L1102
	call	*__imp_PyBuffer_Release(%rip)
	movq	112(%rbx), %rcx
	testq	%rcx, %rcx
	je	.L1102
	movl	$96, %edx
	call	_ZdlPvy
	.p2align 4,,10
	.p2align 3
.L1102:
	movq	88(%rbx), %rcx
	testq	%rcx, %rcx
	je	.L1104
	call	_ZdlPv
.L1104:
	movq	64(%rbx), %rcx
	testq	%rcx, %rcx
	je	.L1105
	call	_ZdlPv
.L1105:
	movq	24(%rbx), %rcx
	addq	$40, %rbx
	cmpq	%rbx, %rcx
	je	.L1100
	addq	$32, %rsp
	popq	%rbx
	jmp	_ZdlPv
	.p2align 4,,10
	.p2align 3
.L1100:
	addq	$32, %rsp
	popq	%rbx
	ret
	.seh_handler	__gxx_personality_seh0, @unwind, @except
	.seh_handlerdata
.LLSDA9334:
	.byte	0xff
	.byte	0xff
	.byte	0x1
	.uleb128 .LLSDACSE9334-.LLSDACSB9334
.LLSDACSB9334:
.LLSDACSE9334:
	.section	.text$_ZN8pybind1111buffer_infoD1Ev,"x"
	.linkonce discard
	.seh_endproc
	.section .rdata,"dr"
	.align 8
.LC12:
	.ascii "Unable to extract string contents! (encoding issue)\0"
	.align 8
.LC13:
	.ascii "Unable to extract string contents! (invalid type)\0"
	.section	.text$_ZNK8pybind113strcvNSt7__cxx1112basic_stringIcSt11char_traitsIcESaIcEEEEv,"x"
	.linkonce discard
	.align 2
	.p2align 4
	.globl	_ZNK8pybind113strcvNSt7__cxx1112basic_stringIcSt11char_traitsIcESaIcEEEEv
	.def	_ZNK8pybind113strcvNSt7__cxx1112basic_stringIcSt11char_traitsIcESaIcEEEEv;	.scl	2;	.type	32;	.endef
	.seh_proc	_ZNK8pybind113strcvNSt7__cxx1112basic_stringIcSt11char_traitsIcESaIcEEEEv
_ZNK8pybind113strcvNSt7__cxx1112basic_stringIcSt11char_traitsIcESaIcEEEEv:
.LFB9593:
	pushq	%r14
	.seh_pushreg	%r14
	pushq	%r13
	.seh_pushreg	%r13
	pushq	%r12
	.seh_pushreg	%r12
	pushq	%rbx
	.seh_pushreg	%rbx
	subq	$72, %rsp
	.seh_stackalloc	72
	.seh_endprologue
	movq	(%rdx), %r12
	movq	%rcx, %r13
	testq	%r12, %r12
	je	.L1117
	incq	(%r12)
.L1117:
	movq	8(%r12), %rax
	testb	$16, 171(%rax)
	je	.L1118
	movq	%r12, %rcx
.LEHB22:
	call	*__imp_PyUnicodeUCS2_AsUTF8String(%rip)
.LEHE22:
	decq	(%r12)
	movq	%rax, %rbx
	jne	.L1119
	movq	8(%r12), %rax
	movq	%r12, %rcx
	call	*48(%rax)
.L1119:
	testq	%rbx, %rbx
	jne	.L1131
	leaq	.LC12(%rip), %rcx
.LEHB23:
	call	_ZN8pybind1113pybind11_failEPKc
.LEHE23:
	.p2align 4,,10
	.p2align 3
.L1131:
	movq	%rbx, %r12
.L1118:
	leaq	40(%rsp), %rdx
	leaq	48(%rsp), %r8
	movq	%r12, %rcx
.LEHB24:
	call	*__imp_PyString_AsStringAndSize(%rip)
	testl	%eax, %eax
	je	.L1120
	leaq	.LC13(%rip), %rcx
	call	_ZN8pybind1113pybind11_failEPKc
	.p2align 4,,10
	.p2align 3
.L1120:
	movq	40(%rsp), %r14
	movq	48(%rsp), %rbx
	leaq	16(%r13), %rcx
	movq	%rcx, 0(%r13)
	movq	%r14, %rax
	addq	%rbx, %rax
	je	.L1121
	testq	%r14, %r14
	jne	.L1121
	leaq	.LC11(%rip), %rcx
	call	_ZSt19__throw_logic_errorPKc
	.p2align 4,,10
	.p2align 3
.L1121:
	movq	%rbx, 56(%rsp)
	cmpq	$15, %rbx
	jbe	.L1122
	leaq	56(%rsp), %rdx
	xorl	%r8d, %r8d
	movq	%r13, %rcx
	call	_ZNSt7__cxx1112basic_stringIcSt11char_traitsIcESaIcEE9_M_createERyy
.LEHE24:
	movq	%rax, 0(%r13)
	movq	%rax, %rcx
	movq	56(%rsp), %rax
	movq	%rax, 16(%r13)
	jmp	.L1123
	.p2align 4,,10
	.p2align 3
.L1122:
	cmpq	$1, %rbx
	jne	.L1124
	movzbl	(%r14), %eax
	movb	%al, 16(%r13)
	jmp	.L1125
	.p2align 4,,10
	.p2align 3
.L1124:
	testq	%rbx, %rbx
	je	.L1125
	.p2align 4,,10
	.p2align 3
.L1123:
	movq	%rbx, %r8
	movq	%r14, %rdx
	call	memcpy
	movq	56(%rsp), %rbx
	movq	0(%r13), %rcx
	jmp	.L1125
	.p2align 4,,10
	.p2align 3
.L1149:
	movq	8(%r12), %rax
	movq	%r12, %rcx
	call	*48(%rax)
	jmp	.L1116
.L1133:
	movq	%rax, %r13
	vzeroupper
	jmp	.L1127
.L1132:
	decq	(%r12)
	movq	%rax, %r13
	jne	.L1150
	movq	8(%r12), %rax
	movq	%r12, %rcx
	vzeroupper
	call	*48(%rax)
	jmp	.L1127
.L1150:
	vzeroupper
.L1127:
	movq	%r13, %rcx
.LEHB25:
	call	_Unwind_Resume
.LEHE25:
	.p2align 4,,10
	.p2align 3
.L1125:
	movq	%rbx, 8(%r13)
	movb	$0, (%rcx,%rbx)
	decq	(%r12)
	je	.L1149
.L1116:
	movq	%r13, %rax
	addq	$72, %rsp
	popq	%rbx
	popq	%r12
	popq	%r13
	popq	%r14
	ret
	.seh_handler	__gxx_personality_seh0, @unwind, @except
	.seh_handlerdata
.LLSDA9593:
	.byte	0xff
	.byte	0xff
	.byte	0x1
	.uleb128 .LLSDACSE9593-.LLSDACSB9593
.LLSDACSB9593:
	.uleb128 .LEHB22-.LFB9593
	.uleb128 .LEHE22-.LEHB22
	.uleb128 .L1132-.LFB9593
	.uleb128 0
	.uleb128 .LEHB23-.LFB9593
	.uleb128 .LEHE23-.LEHB23
	.uleb128 .L1133-.LFB9593
	.uleb128 0
	.uleb128 .LEHB24-.LFB9593
	.uleb128 .LEHE24-.LEHB24
	.uleb128 .L1132-.LFB9593
	.uleb128 0
	.uleb128 .LEHB25-.LFB9593
	.uleb128 .LEHE25-.LEHB25
	.uleb128 0
	.uleb128 0
.LLSDACSE9593:
	.section	.text$_ZNK8pybind113strcvNSt7__cxx1112basic_stringIcSt11char_traitsIcESaIcEEEEv,"x"
	.linkonce discard
	.seh_endproc
	.section .rdata,"dr"
	.align 8
.LC14:
	.ascii "Could not allocate tuple object!\0"
	.section	.text$_ZN8pybind115tupleC1Ey,"x"
	.linkonce discard
	.align 2
	.p2align 4
	.globl	_ZN8pybind115tupleC1Ey
	.def	_ZN8pybind115tupleC1Ey;	.scl	2;	.type	32;	.endef
	.seh_proc	_ZN8pybind115tupleC1Ey
_ZN8pybind115tupleC1Ey:
.LFB9842:
	pushq	%r12
	.seh_pushreg	%r12
	pushq	%rbx
	.seh_pushreg	%rbx
	subq	$40, %rsp
	.seh_stackalloc	40
	.seh_endprologue
	movq	%rcx, %rbx
	movq	%rdx, %rcx
.LEHB26:
	call	*__imp_PyTuple_New(%rip)
.LEHE26:
	movq	%rax, (%rbx)
	testq	%rax, %rax
	jne	.L1160
	leaq	.LC14(%rip), %rcx
.LEHB27:
	call	_ZN8pybind1113pybind11_failEPKc
.LEHE27:
.L1157:
	movq	(%rbx), %rcx
	movq	%rax, %r12
	testq	%rcx, %rcx
	je	.L1158
	decq	(%rcx)
	jne	.L1159
	movq	8(%rcx), %rax
	vzeroupper
	call	*48(%rax)
	jmp	.L1155
.L1158:
	vzeroupper
	jmp	.L1155
.L1159:
	vzeroupper
.L1155:
	movq	%r12, %rcx
.LEHB28:
	call	_Unwind_Resume
	nop
.LEHE28:
	.p2align 4,,10
	.p2align 3
.L1160:
	addq	$40, %rsp
	popq	%rbx
	popq	%r12
	ret
	.seh_handler	__gxx_personality_seh0, @unwind, @except
	.seh_handlerdata
.LLSDA9842:
	.byte	0xff
	.byte	0xff
	.byte	0x1
	.uleb128 .LLSDACSE9842-.LLSDACSB9842
.LLSDACSB9842:
	.uleb128 .LEHB26-.LFB9842
	.uleb128 .LEHE26-.LEHB26
	.uleb128 0
	.uleb128 0
	.uleb128 .LEHB27-.LFB9842
	.uleb128 .LEHE27-.LEHB27
	.uleb128 .L1157-.LFB9842
	.uleb128 0
	.uleb128 .LEHB28-.LFB9842
	.uleb128 .LEHE28-.LEHB28
	.uleb128 0
	.uleb128 0
.LLSDACSE9842:
	.section	.text$_ZN8pybind115tupleC1Ey,"x"
	.linkonce discard
	.seh_endproc
	.section .rdata,"dr"
.LC15:
	.ascii "basic_string::erase\0"
	.align 8
.LC16:
	.ascii "%s: __pos (which is %zu) > this->size() (which is %zu)\0"
	.section	.text$_ZN8pybind116detail13clean_type_idERNSt7__cxx1112basic_stringIcSt11char_traitsIcESaIcEEE,"x"
	.linkonce discard
	.p2align 4
	.globl	_ZN8pybind116detail13clean_type_idERNSt7__cxx1112basic_stringIcSt11char_traitsIcESaIcEEE
	.def	_ZN8pybind116detail13clean_type_idERNSt7__cxx1112basic_stringIcSt11char_traitsIcESaIcEEE;	.scl	2;	.type	32;	.endef
	.seh_proc	_ZN8pybind116detail13clean_type_idERNSt7__cxx1112basic_stringIcSt11char_traitsIcESaIcEEE
_ZN8pybind116detail13clean_type_idERNSt7__cxx1112basic_stringIcSt11char_traitsIcESaIcEEE:
.LFB10132:
	pushq	%r12
	.seh_pushreg	%r12
	pushq	%rdi
	.seh_pushreg	%rdi
	pushq	%rsi
	.seh_pushreg	%rsi
	pushq	%rbx
	.seh_pushreg	%rbx
	subq	$104, %rsp
	.seh_stackalloc	104
	.seh_endprologue
	movq	%rcx, %rsi
	movq	(%rcx), %rcx
	xorl	%edx, %edx
	leaq	60(%rsp), %r9
	xorl	%r8d, %r8d
	movl	$0, 60(%rsp)
.LEHB29:
	call	__cxa_demangle
.LEHE29:
	movl	60(%rsp), %edx
	movq	%rax, %r12
	testl	%edx, %edx
	je	.L1162
.L1164:
	leaq	80(%rsp), %rdi
	movb	$0, 90(%rsp)
	movl	$10, %r9d
	xorl	%ebx, %ebx
	movabsq	$3544724807094532464, %rax
	movq	%rdi, 64(%rsp)
	movq	%rdi, %rdx
	movq	%rax, 80(%rsp)
	movl	$14906, %eax
	movw	%ax, 88(%rsp)
	movq	$10, 72(%rsp)
	jmp	.L1163
	.p2align 4,,10
	.p2align 3
.L1162:
	movq	%rax, %rcx
	call	strlen
	movq	8(%rsi), %r8
	movq	%r12, %r9
	xorl	%edx, %edx
	movq	%rax, 32(%rsp)
	movq	%rsi, %rcx
.LEHB30:
	call	_ZNSt7__cxx1112basic_stringIcSt11char_traitsIcESaIcEE10_M_replaceEyyPKcy
.LEHE30:
	jmp	.L1164
	.p2align 4,,10
	.p2align 3
.L1168:
	movq	64(%rsp), %rdx
.L1163:
	movq	%rbx, %r8
	movq	%rsi, %rcx
	call	_ZNKSt7__cxx1112basic_stringIcSt11char_traitsIcESaIcEE4findEPKcyy
	movq	%rax, %rbx
	cmpq	$-1, %rax
	je	.L1165
	movq	8(%rsi), %r8
	movq	72(%rsp), %r9
	cmpq	%r8, %rax
	jbe	.L1166
	movq	%r8, %r9
	leaq	.LC15(%rip), %rdx
	movq	%rax, %r8
	leaq	.LC16(%rip), %rcx
.LEHB31:
	call	_ZSt24__throw_out_of_range_fmtPKcz
	.p2align 4,,10
	.p2align 3
.L1166:
	cmpq	$-1, %r9
	jne	.L1167
	movq	%rax, 8(%rsi)
	movq	(%rsi), %rax
	movb	$0, (%rax,%rbx)
	movq	72(%rsp), %r9
	jmp	.L1168
	.p2align 4,,10
	.p2align 3
.L1167:
	testq	%r9, %r9
	je	.L1168
	subq	%rax, %r8
	movq	%rax, %rdx
	movq	%rsi, %rcx
	cmpq	%r9, %r8
	cmova	%r9, %r8
	call	_ZNSt7__cxx1112basic_stringIcSt11char_traitsIcESaIcEE8_M_eraseEyy
.LEHE31:
	movq	72(%rsp), %r9
	jmp	.L1168
	.p2align 4,,10
	.p2align 3
.L1165:
	movq	64(%rsp), %rcx
	cmpq	%rdi, %rcx
	je	.L1169
	call	_ZdlPv
.L1169:
	testq	%r12, %r12
	je	.L1161
	movq	%r12, %rcx
	call	free
	jmp	.L1161
.L1176:
	movq	64(%rsp), %rcx
	movq	%rax, %rbx
	cmpq	%rdi, %rcx
	je	.L1184
	vzeroupper
	call	_ZdlPv
	jmp	.L1172
.L1184:
	vzeroupper
.L1172:
	testq	%r12, %r12
	je	.L1174
	jmp	.L1173
.L1177:
	movq	%rax, %rbx
	vzeroupper
.L1173:
	movq	%r12, %rcx
	call	free
.L1174:
	movq	%rbx, %rcx
.LEHB32:
	call	_Unwind_Resume
	nop
.LEHE32:
	.p2align 4,,10
	.p2align 3
.L1161:
	addq	$104, %rsp
	popq	%rbx
	popq	%rsi
	popq	%rdi
	popq	%r12
	ret
	.seh_handler	__gxx_personality_seh0, @unwind, @except
	.seh_handlerdata
.LLSDA10132:
	.byte	0xff
	.byte	0xff
	.byte	0x1
	.uleb128 .LLSDACSE10132-.LLSDACSB10132
.LLSDACSB10132:
	.uleb128 .LEHB29-.LFB10132
	.uleb128 .LEHE29-.LEHB29
	.uleb128 0
	.uleb128 0
	.uleb128 .LEHB30-.LFB10132
	.uleb128 .LEHE30-.LEHB30
	.uleb128 .L1177-.LFB10132
	.uleb128 0
	.uleb128 .LEHB31-.LFB10132
	.uleb128 .LEHE31-.LEHB31
	.uleb128 .L1176-.LFB10132
	.uleb128 0
	.uleb128 .LEHB32-.LFB10132
	.uleb128 .LEHE32-.LEHB32
	.uleb128 0
	.uleb128 0
.LLSDACSE10132:
	.section	.text$_ZN8pybind116detail13clean_type_idERNSt7__cxx1112basic_stringIcSt11char_traitsIcESaIcEEE,"x"
	.linkonce discard
	.seh_endproc
	.section	.text.unlikely,"x"
	.def	_ZN8pybind11L7type_idIbEENSt7__cxx1112basic_stringIcSt11char_traitsIcESaIcEEEv;	.scl	3;	.type	32;	.endef
	.seh_proc	_ZN8pybind11L7type_idIbEENSt7__cxx1112basic_stringIcSt11char_traitsIcESaIcEEEv
_ZN8pybind11L7type_idIbEENSt7__cxx1112basic_stringIcSt11char_traitsIcESaIcEEEv:
.LFB16882:
	pushq	%r13
	.seh_pushreg	%r13
	pushq	%r12
	.seh_pushreg	%r12
	subq	$40, %rsp
	.seh_stackalloc	40
	.seh_endprologue
	movq	.refptr._ZTIb(%rip), %rax
	movq	%rcx, %r12
	movq	8(%rax), %rdx
	cmpb	$42, (%rdx)
	jne	.L1186
	incq	%rdx
.L1186:
	movq	%r12, %rcx
.LEHB33:
	call	_ZNSt7__cxx1112basic_stringIcSt11char_traitsIcESaIcEEC2EPKcRKS3_.isra.0
.LEHE33:
	movq	%r12, %rcx
.LEHB34:
	call	_ZN8pybind116detail13clean_type_idERNSt7__cxx1112basic_stringIcSt11char_traitsIcESaIcEEE
.LEHE34:
	jmp	.L1190
.L1189:
	movq	(%r12), %rcx
	addq	$16, %r12
	movq	%rax, %r13
	cmpq	%r12, %rcx
	je	.L1191
	vzeroupper
	call	_ZdlPv
	jmp	.L1188
.L1191:
	vzeroupper
.L1188:
	movq	%r13, %rcx
.LEHB35:
	call	_Unwind_Resume
.LEHE35:
.L1190:
	movq	%r12, %rax
	addq	$40, %rsp
	popq	%r12
	popq	%r13
	ret
	.seh_handler	__gxx_personality_seh0, @unwind, @except
	.seh_handlerdata
.LLSDA16882:
	.byte	0xff
	.byte	0xff
	.byte	0x1
	.uleb128 .LLSDACSE16882-.LLSDACSB16882
.LLSDACSB16882:
	.uleb128 .LEHB33-.LFB16882
	.uleb128 .LEHE33-.LEHB33
	.uleb128 0
	.uleb128 0
	.uleb128 .LEHB34-.LFB16882
	.uleb128 .LEHE34-.LEHB34
	.uleb128 .L1189-.LFB16882
	.uleb128 0
	.uleb128 .LEHB35-.LFB16882
	.uleb128 .LEHE35-.LEHB35
	.uleb128 0
	.uleb128 0
.LLSDACSE16882:
	.section	.text.unlikely,"x"
	.seh_endproc
	.def	_ZN8pybind11L7type_idINSt7__cxx1112basic_stringIcSt11char_traitsIcESaIcEEEEES6_v;	.scl	3;	.type	32;	.endef
	.seh_proc	_ZN8pybind11L7type_idINSt7__cxx1112basic_stringIcSt11char_traitsIcESaIcEEEEES6_v
_ZN8pybind11L7type_idINSt7__cxx1112basic_stringIcSt11char_traitsIcESaIcEEEEES6_v:
.LFB16448:
	pushq	%r13
	.seh_pushreg	%r13
	pushq	%r12
	.seh_pushreg	%r12
	subq	$40, %rsp
	.seh_stackalloc	40
	.seh_endprologue
	movq	%rcx, %r12
	leaq	_ZTSNSt7__cxx1112basic_stringIcSt11char_traitsIcESaIcEEE(%rip), %rdx
.LEHB36:
	call	_ZNSt7__cxx1112basic_stringIcSt11char_traitsIcESaIcEEC2EPKcRKS3_.isra.0
.LEHE36:
	movq	%r12, %rcx
.LEHB37:
	call	_ZN8pybind116detail13clean_type_idERNSt7__cxx1112basic_stringIcSt11char_traitsIcESaIcEEE
.LEHE37:
	jmp	.L1196
.L1195:
	movq	(%r12), %rcx
	addq	$16, %r12
	movq	%rax, %r13
	cmpq	%r12, %rcx
	je	.L1197
	vzeroupper
	call	_ZdlPv
	jmp	.L1194
.L1197:
	vzeroupper
.L1194:
	movq	%r13, %rcx
.LEHB38:
	call	_Unwind_Resume
.LEHE38:
.L1196:
	movq	%r12, %rax
	addq	$40, %rsp
	popq	%r12
	popq	%r13
	ret
	.seh_handler	__gxx_personality_seh0, @unwind, @except
	.seh_handlerdata
.LLSDA16448:
	.byte	0xff
	.byte	0xff
	.byte	0x1
	.uleb128 .LLSDACSE16448-.LLSDACSB16448
.LLSDACSB16448:
	.uleb128 .LEHB36-.LFB16448
	.uleb128 .LEHE36-.LEHB36
	.uleb128 0
	.uleb128 0
	.uleb128 .LEHB37-.LFB16448
	.uleb128 .LEHE37-.LEHB37
	.uleb128 .L1195-.LFB16448
	.uleb128 0
	.uleb128 .LEHB38-.LFB16448
	.uleb128 .LEHE38-.LEHB38
	.uleb128 0
	.uleb128 0
.LLSDACSE16448:
	.section	.text.unlikely,"x"
	.seh_endproc
	.section	.text$_ZN8pybind116detail8accessorINS0_17accessor_policies12generic_itemEED1Ev,"x"
	.linkonce discard
	.align 2
	.p2align 4
	.globl	_ZN8pybind116detail8accessorINS0_17accessor_policies12generic_itemEED1Ev
	.def	_ZN8pybind116detail8accessorINS0_17accessor_policies12generic_itemEED1Ev;	.scl	2;	.type	32;	.endef
	.seh_proc	_ZN8pybind116detail8accessorINS0_17accessor_policies12generic_itemEED1Ev
_ZN8pybind116detail8accessorINS0_17accessor_policies12generic_itemEED1Ev:
.LFB10172:
	pushq	%rbx
	.seh_pushreg	%rbx
	subq	$32, %rsp
	.seh_stackalloc	32
	.seh_endprologue
	movq	%rcx, %rbx
	movq	24(%rcx), %rcx
	testq	%rcx, %rcx
	je	.L1200
	decq	(%rcx)
	jne	.L1200
	movq	8(%rcx), %rax
	call	*48(%rax)
.L1200:
	movq	16(%rbx), %rcx
	testq	%rcx, %rcx
	je	.L1198
	decq	(%rcx)
	jne	.L1198
	movq	8(%rcx), %rax
	call	*48(%rax)
	nop
.L1198:
	addq	$32, %rsp
	popq	%rbx
	ret
	.seh_handler	__gxx_personality_seh0, @unwind, @except
	.seh_handlerdata
.LLSDA10172:
	.byte	0xff
	.byte	0xff
	.byte	0x1
	.uleb128 .LLSDACSE10172-.LLSDACSB10172
.LLSDACSB10172:
.LLSDACSE10172:
	.section	.text$_ZN8pybind116detail8accessorINS0_17accessor_policies12generic_itemEED1Ev,"x"
	.linkonce discard
	.seh_endproc
	.section	.text$_ZN8pybind116detail8instance17deallocate_layoutEv,"x"
	.linkonce discard
	.align 2
	.p2align 4
	.globl	_ZN8pybind116detail8instance17deallocate_layoutEv
	.def	_ZN8pybind116detail8instance17deallocate_layoutEv;	.scl	2;	.type	32;	.endef
	.seh_proc	_ZN8pybind116detail8instance17deallocate_layoutEv
_ZN8pybind116detail8instance17deallocate_layoutEv:
.LFB10434:
	.seh_endprologue
	testb	$2, 48(%rcx)
	je	.L1208
	ret
	.p2align 4,,10
	.p2align 3
.L1208:
	movq	16(%rcx), %rcx
	rex.W jmp	*__imp_PyMem_Free(%rip)
	.seh_endproc
	.section .rdata,"dr"
	.align 8
.LC17:
	.ascii "Could not allocate list object!\0"
	.section	.text$_ZN8pybind116detail11type_recordC1Ev,"x"
	.linkonce discard
	.align 2
	.p2align 4
	.globl	_ZN8pybind116detail11type_recordC1Ev
	.def	_ZN8pybind116detail11type_recordC1Ev;	.scl	2;	.type	32;	.endef
	.seh_proc	_ZN8pybind116detail11type_recordC1Ev
_ZN8pybind116detail11type_recordC1Ev:
.LFB10761:
	pushq	%r12
	.seh_pushreg	%r12
	pushq	%rbx
	.seh_pushreg	%rbx
	subq	$56, %rsp
	.seh_stackalloc	56
	vmovaps	%xmm6, 32(%rsp)
	.seh_savexmm	%xmm6, 32
	.seh_endprologue
	movq	.refptr._Znwy(%rip), %rax
	vpxor	%xmm6, %xmm6, %xmm6
	movq	$0, 16(%rcx)
	movq	%rcx, %rbx
	movq	$0, 48(%rcx)
	movq	%rax, 40(%rcx)
	movq	$0, 56(%rcx)
	vmovups	%xmm6, (%rcx)
	vmovups	%xmm6, 24(%rcx)
	xorl	%ecx, %ecx
.LEHB39:
	call	*__imp_PyList_New(%rip)
.LEHE39:
	movq	%rax, 64(%rbx)
	testq	%rax, %rax
	jne	.L1210
	leaq	.LC17(%rip), %rcx
.LEHB40:
	call	_ZN8pybind1113pybind11_failEPKc
.LEHE40:
.L1215:
	movq	64(%rbx), %rcx
	movq	%rax, %r12
	testq	%rcx, %rcx
	je	.L1216
	decq	(%rcx)
	jne	.L1217
	movq	8(%rcx), %rax
	vzeroupper
	call	*48(%rax)
	jmp	.L1213
.L1216:
	vzeroupper
	jmp	.L1213
.L1217:
	vzeroupper
.L1213:
	movq	%r12, %rcx
.LEHB41:
	call	_Unwind_Resume
.LEHE41:
	.p2align 4,,10
	.p2align 3
.L1210:
	andb	$-24, 88(%rbx)
	vmovups	%xmm6, 72(%rbx)
	vmovaps	32(%rsp), %xmm6
	addq	$56, %rsp
	popq	%rbx
	popq	%r12
	ret
	.seh_handler	__gxx_personality_seh0, @unwind, @except
	.seh_handlerdata
.LLSDA10761:
	.byte	0xff
	.byte	0xff
	.byte	0x1
	.uleb128 .LLSDACSE10761-.LLSDACSB10761
.LLSDACSB10761:
	.uleb128 .LEHB39-.LFB10761
	.uleb128 .LEHE39-.LEHB39
	.uleb128 0
	.uleb128 0
	.uleb128 .LEHB40-.LFB10761
	.uleb128 .LEHE40-.LEHB40
	.uleb128 .L1215-.LFB10761
	.uleb128 0
	.uleb128 .LEHB41-.LFB10761
	.uleb128 .LEHE41-.LEHB41
	.uleb128 0
	.uleb128 0
.LLSDACSE10761:
	.section	.text$_ZN8pybind116detail11type_recordC1Ev,"x"
	.linkonce discard
	.seh_endproc
	.section	.text$_ZN8pybind116detail13function_callD1Ev,"x"
	.linkonce discard
	.align 2
	.p2align 4
	.globl	_ZN8pybind116detail13function_callD1Ev
	.def	_ZN8pybind116detail13function_callD1Ev;	.scl	2;	.type	32;	.endef
	.seh_proc	_ZN8pybind116detail13function_callD1Ev
_ZN8pybind116detail13function_callD1Ev:
.LFB10969:
	pushq	%rbx
	.seh_pushreg	%rbx
	subq	$32, %rsp
	.seh_stackalloc	32
	.seh_endprologue
	movq	%rcx, %rbx
	movq	80(%rcx), %rcx
	testq	%rcx, %rcx
	je	.L1220
	decq	(%rcx)
	jne	.L1220
	movq	8(%rcx), %rax
	call	*48(%rax)
.L1220:
	movq	72(%rbx), %rcx
	testq	%rcx, %rcx
	je	.L1223
	decq	(%rcx)
	jne	.L1223
	movq	8(%rcx), %rax
	call	*48(%rax)
.L1223:
	movq	32(%rbx), %rcx
	testq	%rcx, %rcx
	je	.L1225
	call	_ZdlPv
.L1225:
	movq	8(%rbx), %rcx
	testq	%rcx, %rcx
	je	.L1218
	addq	$32, %rsp
	popq	%rbx
	jmp	_ZdlPv
	.p2align 4,,10
	.p2align 3
.L1218:
	addq	$32, %rsp
	popq	%rbx
	ret
	.seh_handler	__gxx_personality_seh0, @unwind, @except
	.seh_handlerdata
.LLSDA10969:
	.byte	0xff
	.byte	0xff
	.byte	0x1
	.uleb128 .LLSDACSE10969-.LLSDACSB10969
.LLSDACSB10969:
.LLSDACSE10969:
	.section	.text$_ZN8pybind116detail13function_callD1Ev,"x"
	.linkonce discard
	.seh_endproc
	.text
	.align 2
	.p2align 4
	.globl	_ZN9HistogramIydE10accumulateIdEEvPT_y
	.def	_ZN9HistogramIydE10accumulateIdEEvPT_y;	.scl	2;	.type	32;	.endef
	.seh_proc	_ZN9HistogramIydE10accumulateIdEEvPT_y
_ZN9HistogramIydE10accumulateIdEEvPT_y:
.LFB12812:
	subq	$88, %rsp
	.seh_stackalloc	88
	.seh_endprologue
	xorl	%r9d, %r9d
	vmovsd	48(%rcx), %xmm0
	movl	(%rcx), %eax
	vaddsd	%xmm0, %xmm0, %xmm1
	vxorps	%xmm0, %xmm0, %xmm0
	vcvtsi2sdq	%rax, %xmm0, %xmm0
	movq	24(%rcx), %rax
	movq	%rcx, 48(%rsp)
	leaq	_ZN9HistogramIydE10accumulateIdEEvPT_y._omp_fn.0(%rip), %rcx
	movq	%r8, 40(%rsp)
	xorl	%r8d, %r8d
	movq	%rdx, 32(%rsp)
	leaq	32(%rsp), %rdx
	vdivsd	%xmm0, %xmm1, %xmm0
	movq	%rax, 64(%rsp)
	vmovsd	%xmm0, 56(%rsp)
	call	GOMP_parallel
	nop
	addq	$88, %rsp
	ret
	.seh_endproc
	.align 2
	.p2align 4
	.globl	_ZN9HistogramIyfE10accumulateIfEEvPT_y
	.def	_ZN9HistogramIyfE10accumulateIfEEvPT_y;	.scl	2;	.type	32;	.endef
	.seh_proc	_ZN9HistogramIyfE10accumulateIfEEvPT_y
_ZN9HistogramIyfE10accumulateIfEEvPT_y:
.LFB12813:
	subq	$88, %rsp
	.seh_stackalloc	88
	.seh_endprologue
	vxorps	%xmm2, %xmm2, %xmm2
	xorl	%r9d, %r9d
	movl	(%rcx), %eax
	vcvtss2sd	48(%rcx), %xmm2, %xmm0
	vaddsd	%xmm0, %xmm0, %xmm1
	movq	%rcx, 48(%rsp)
	vcvtsi2sdq	%rax, %xmm2, %xmm0
	movq	24(%rcx), %rax
	movq	%r8, 40(%rsp)
	leaq	_ZN9HistogramIyfE10accumulateIfEEvPT_y._omp_fn.0(%rip), %rcx
	movq	%rdx, 32(%rsp)
	xorl	%r8d, %r8d
	leaq	32(%rsp), %rdx
	movq	%rax, 56(%rsp)
	vdivsd	%xmm0, %xmm1, %xmm0
	vcvtsd2ss	%xmm0, %xmm0, %xmm0
	vmovss	%xmm0, 64(%rsp)
	call	GOMP_parallel
	nop
	addq	$88, %rsp
	ret
	.seh_endproc
	.align 2
	.p2align 4
	.globl	_ZN9HistogramIyhE10accumulateIhEEvPT_y
	.def	_ZN9HistogramIyhE10accumulateIhEEvPT_y;	.scl	2;	.type	32;	.endef
	.seh_proc	_ZN9HistogramIyhE10accumulateIhEEvPT_y
_ZN9HistogramIyhE10accumulateIhEEvPT_y:
.LFB12814:
	subq	$72, %rsp
	.seh_stackalloc	72
	.seh_endprologue
	xorl	%r9d, %r9d
	movq	24(%rcx), %rax
	leaq	_ZN9HistogramIyhE10accumulateIhEEvPT_y._omp_fn.0(%rip), %rcx
	movq	%r8, 40(%rsp)
	xorl	%r8d, %r8d
	movq	%rdx, 32(%rsp)
	leaq	32(%rsp), %rdx
	movq	%rax, 48(%rsp)
	call	GOMP_parallel
	nop
	addq	$72, %rsp
	ret
	.seh_endproc
	.align 2
	.p2align 4
	.globl	_ZN9HistogramIytE10accumulateItEEvPT_y
	.def	_ZN9HistogramIytE10accumulateItEEvPT_y;	.scl	2;	.type	32;	.endef
	.seh_proc	_ZN9HistogramIytE10accumulateItEEvPT_y
_ZN9HistogramIytE10accumulateItEEvPT_y:
.LFB12815:
	subq	$72, %rsp
	.seh_stackalloc	72
	.seh_endprologue
	movq	24(%rcx), %rax
	movq	%rdx, %r9
	movl	52(%rcx), %edx
	movq	%rax, 48(%rsp)
	movl	$16, %eax
	movq	%r8, 40(%rsp)
	leaq	_ZN9HistogramIytE10accumulateItEEvPT_y._omp_fn.0(%rip), %rcx
	xorl	%r8d, %r8d
	subl	%edx, %eax
	movl	%edx, 56(%rsp)
	leaq	32(%rsp), %rdx
	movq	%r9, 32(%rsp)
	xorl	%r9d, %r9d
	movl	%eax, 60(%rsp)
	call	GOMP_parallel
	nop
	addq	$72, %rsp
	ret
	.seh_endproc
	.align 2
	.p2align 4
	.globl	_ZN9HistogramIyaE10accumulateIaEEvPT_y
	.def	_ZN9HistogramIyaE10accumulateIaEEvPT_y;	.scl	2;	.type	32;	.endef
	.seh_proc	_ZN9HistogramIyaE10accumulateIaEEvPT_y
_ZN9HistogramIyaE10accumulateIaEEvPT_y:
.LFB12816:
	subq	$72, %rsp
	.seh_stackalloc	72
	.seh_endprologue
	xorl	%r9d, %r9d
	movq	24(%rcx), %rax
	leaq	_ZN9HistogramIyaE10accumulateIaEEvPT_y._omp_fn.0(%rip), %rcx
	movq	%rdx, 48(%rsp)
	leaq	32(%rsp), %rdx
	movq	%r8, 32(%rsp)
	xorl	%r8d, %r8d
	movq	%rax, 40(%rsp)
	call	GOMP_parallel
	nop
	addq	$72, %rsp
	ret
	.seh_endproc
	.align 2
	.p2align 4
	.globl	_ZN9HistogramIysE10accumulateIsEEvPT_y
	.def	_ZN9HistogramIysE10accumulateIsEEvPT_y;	.scl	2;	.type	32;	.endef
	.seh_proc	_ZN9HistogramIysE10accumulateIsEEvPT_y
_ZN9HistogramIysE10accumulateIsEEvPT_y:
.LFB12817:
	subq	$72, %rsp
	.seh_stackalloc	72
	.seh_endprologue
	movq	24(%rcx), %rax
	movq	%rdx, %r9
	movl	52(%rcx), %edx
	movq	%rax, 40(%rsp)
	movl	$16, %eax
	movq	%r9, 48(%rsp)
	leaq	_ZN9HistogramIysE10accumulateIsEEvPT_y._omp_fn.0(%rip), %rcx
	xorl	%r9d, %r9d
	subl	%edx, %eax
	movl	%edx, 56(%rsp)
	leaq	32(%rsp), %rdx
	movq	%r8, 32(%rsp)
	xorl	%r8d, %r8d
	movl	%eax, 60(%rsp)
	call	GOMP_parallel
	nop
	addq	$72, %rsp
	ret
	.seh_endproc
	.align 2
	.p2align 4
	.globl	_ZN9HistogramIjdE10accumulateIdEEvPT_y
	.def	_ZN9HistogramIjdE10accumulateIdEEvPT_y;	.scl	2;	.type	32;	.endef
	.seh_proc	_ZN9HistogramIjdE10accumulateIdEEvPT_y
_ZN9HistogramIjdE10accumulateIdEEvPT_y:
.LFB12818:
	subq	$88, %rsp
	.seh_stackalloc	88
	.seh_endprologue
	xorl	%r9d, %r9d
	vmovsd	48(%rcx), %xmm0
	movl	(%rcx), %eax
	vaddsd	%xmm0, %xmm0, %xmm1
	vxorps	%xmm0, %xmm0, %xmm0
	vcvtsi2sdq	%rax, %xmm0, %xmm0
	movq	24(%rcx), %rax
	movq	%rcx, 48(%rsp)
	leaq	_ZN9HistogramIjdE10accumulateIdEEvPT_y._omp_fn.0(%rip), %rcx
	movq	%r8, 40(%rsp)
	xorl	%r8d, %r8d
	movq	%rdx, 32(%rsp)
	leaq	32(%rsp), %rdx
	vdivsd	%xmm0, %xmm1, %xmm0
	movq	%rax, 64(%rsp)
	vmovsd	%xmm0, 56(%rsp)
	call	GOMP_parallel
	nop
	addq	$88, %rsp
	ret
	.seh_endproc
	.align 2
	.p2align 4
	.globl	_ZN9HistogramIjfE10accumulateIfEEvPT_y
	.def	_ZN9HistogramIjfE10accumulateIfEEvPT_y;	.scl	2;	.type	32;	.endef
	.seh_proc	_ZN9HistogramIjfE10accumulateIfEEvPT_y
_ZN9HistogramIjfE10accumulateIfEEvPT_y:
.LFB12819:
	subq	$88, %rsp
	.seh_stackalloc	88
	.seh_endprologue
	vxorps	%xmm2, %xmm2, %xmm2
	xorl	%r9d, %r9d
	movl	(%rcx), %eax
	vcvtss2sd	48(%rcx), %xmm2, %xmm0
	vaddsd	%xmm0, %xmm0, %xmm1
	movq	%rcx, 48(%rsp)
	vcvtsi2sdq	%rax, %xmm2, %xmm0
	movq	24(%rcx), %rax
	movq	%r8, 40(%rsp)
	leaq	_ZN9HistogramIjfE10accumulateIfEEvPT_y._omp_fn.0(%rip), %rcx
	movq	%rdx, 32(%rsp)
	xorl	%r8d, %r8d
	leaq	32(%rsp), %rdx
	movq	%rax, 56(%rsp)
	vdivsd	%xmm0, %xmm1, %xmm0
	vcvtsd2ss	%xmm0, %xmm0, %xmm0
	vmovss	%xmm0, 64(%rsp)
	call	GOMP_parallel
	nop
	addq	$88, %rsp
	ret
	.seh_endproc
	.align 2
	.p2align 4
	.globl	_ZN9HistogramIjhE10accumulateIhEEvPT_y
	.def	_ZN9HistogramIjhE10accumulateIhEEvPT_y;	.scl	2;	.type	32;	.endef
	.seh_proc	_ZN9HistogramIjhE10accumulateIhEEvPT_y
_ZN9HistogramIjhE10accumulateIhEEvPT_y:
.LFB12820:
	subq	$72, %rsp
	.seh_stackalloc	72
	.seh_endprologue
	xorl	%r9d, %r9d
	movq	24(%rcx), %rax
	leaq	_ZN9HistogramIjhE10accumulateIhEEvPT_y._omp_fn.0(%rip), %rcx
	movq	%r8, 40(%rsp)
	xorl	%r8d, %r8d
	movq	%rdx, 32(%rsp)
	leaq	32(%rsp), %rdx
	movq	%rax, 48(%rsp)
	call	GOMP_parallel
	nop
	addq	$72, %rsp
	ret
	.seh_endproc
	.align 2
	.p2align 4
	.globl	_ZN9HistogramIjtE10accumulateItEEvPT_y
	.def	_ZN9HistogramIjtE10accumulateItEEvPT_y;	.scl	2;	.type	32;	.endef
	.seh_proc	_ZN9HistogramIjtE10accumulateItEEvPT_y
_ZN9HistogramIjtE10accumulateItEEvPT_y:
.LFB12821:
	subq	$72, %rsp
	.seh_stackalloc	72
	.seh_endprologue
	movq	24(%rcx), %rax
	movq	%rdx, %r9
	movl	52(%rcx), %edx
	movq	%rax, 48(%rsp)
	movl	$16, %eax
	movq	%r8, 40(%rsp)
	leaq	_ZN9HistogramIjtE10accumulateItEEvPT_y._omp_fn.0(%rip), %rcx
	xorl	%r8d, %r8d
	subl	%edx, %eax
	movl	%edx, 56(%rsp)
	leaq	32(%rsp), %rdx
	movq	%r9, 32(%rsp)
	xorl	%r9d, %r9d
	movl	%eax, 60(%rsp)
	call	GOMP_parallel
	nop
	addq	$72, %rsp
	ret
	.seh_endproc
	.align 2
	.p2align 4
	.globl	_ZN9HistogramIjaE10accumulateIaEEvPT_y
	.def	_ZN9HistogramIjaE10accumulateIaEEvPT_y;	.scl	2;	.type	32;	.endef
	.seh_proc	_ZN9HistogramIjaE10accumulateIaEEvPT_y
_ZN9HistogramIjaE10accumulateIaEEvPT_y:
.LFB12822:
	subq	$72, %rsp
	.seh_stackalloc	72
	.seh_endprologue
	xorl	%r9d, %r9d
	movq	24(%rcx), %rax
	leaq	_ZN9HistogramIjaE10accumulateIaEEvPT_y._omp_fn.0(%rip), %rcx
	movq	%rdx, 48(%rsp)
	leaq	32(%rsp), %rdx
	movq	%r8, 32(%rsp)
	xorl	%r8d, %r8d
	movq	%rax, 40(%rsp)
	call	GOMP_parallel
	nop
	addq	$72, %rsp
	ret
	.seh_endproc
	.align 2
	.p2align 4
	.globl	_ZN9HistogramIjsE10accumulateIsEEvPT_y
	.def	_ZN9HistogramIjsE10accumulateIsEEvPT_y;	.scl	2;	.type	32;	.endef
	.seh_proc	_ZN9HistogramIjsE10accumulateIsEEvPT_y
_ZN9HistogramIjsE10accumulateIsEEvPT_y:
.LFB12823:
	subq	$72, %rsp
	.seh_stackalloc	72
	.seh_endprologue
	movq	24(%rcx), %rax
	movq	%rdx, %r9
	movl	52(%rcx), %edx
	movq	%rax, 40(%rsp)
	movl	$16, %eax
	movq	%r9, 48(%rsp)
	leaq	_ZN9HistogramIjsE10accumulateIsEEvPT_y._omp_fn.0(%rip), %rcx
	xorl	%r9d, %r9d
	subl	%edx, %eax
	movl	%edx, 56(%rsp)
	leaq	32(%rsp), %rdx
	movq	%r8, 32(%rsp)
	xorl	%r8d, %r8d
	movl	%eax, 60(%rsp)
	call	GOMP_parallel
	nop
	addq	$72, %rsp
	ret
	.seh_endproc
	.align 2
	.p2align 4
	.globl	_ZN9HistogramItdE10accumulateIdEEvPT_y
	.def	_ZN9HistogramItdE10accumulateIdEEvPT_y;	.scl	2;	.type	32;	.endef
	.seh_proc	_ZN9HistogramItdE10accumulateIdEEvPT_y
_ZN9HistogramItdE10accumulateIdEEvPT_y:
.LFB12824:
	subq	$88, %rsp
	.seh_stackalloc	88
	.seh_endprologue
	xorl	%r9d, %r9d
	vmovsd	48(%rcx), %xmm0
	movl	(%rcx), %eax
	vaddsd	%xmm0, %xmm0, %xmm1
	vxorps	%xmm0, %xmm0, %xmm0
	vcvtsi2sdq	%rax, %xmm0, %xmm0
	movq	24(%rcx), %rax
	movq	%rcx, 48(%rsp)
	leaq	_ZN9HistogramItdE10accumulateIdEEvPT_y._omp_fn.0(%rip), %rcx
	movq	%r8, 40(%rsp)
	xorl	%r8d, %r8d
	movq	%rdx, 32(%rsp)
	leaq	32(%rsp), %rdx
	vdivsd	%xmm0, %xmm1, %xmm0
	movq	%rax, 64(%rsp)
	vmovsd	%xmm0, 56(%rsp)
	call	GOMP_parallel
	nop
	addq	$88, %rsp
	ret
	.seh_endproc
	.align 2
	.p2align 4
	.globl	_ZN9HistogramItfE10accumulateIfEEvPT_y
	.def	_ZN9HistogramItfE10accumulateIfEEvPT_y;	.scl	2;	.type	32;	.endef
	.seh_proc	_ZN9HistogramItfE10accumulateIfEEvPT_y
_ZN9HistogramItfE10accumulateIfEEvPT_y:
.LFB12825:
	subq	$88, %rsp
	.seh_stackalloc	88
	.seh_endprologue
	vxorps	%xmm2, %xmm2, %xmm2
	xorl	%r9d, %r9d
	movl	(%rcx), %eax
	vcvtss2sd	48(%rcx), %xmm2, %xmm0
	vaddsd	%xmm0, %xmm0, %xmm1
	movq	%rcx, 48(%rsp)
	vcvtsi2sdq	%rax, %xmm2, %xmm0
	movq	24(%rcx), %rax
	movq	%r8, 40(%rsp)
	leaq	_ZN9HistogramItfE10accumulateIfEEvPT_y._omp_fn.0(%rip), %rcx
	movq	%rdx, 32(%rsp)
	xorl	%r8d, %r8d
	leaq	32(%rsp), %rdx
	movq	%rax, 56(%rsp)
	vdivsd	%xmm0, %xmm1, %xmm0
	vcvtsd2ss	%xmm0, %xmm0, %xmm0
	vmovss	%xmm0, 64(%rsp)
	call	GOMP_parallel
	nop
	addq	$88, %rsp
	ret
	.seh_endproc
	.align 2
	.p2align 4
	.globl	_ZN9HistogramIthE10accumulateIhEEvPT_y
	.def	_ZN9HistogramIthE10accumulateIhEEvPT_y;	.scl	2;	.type	32;	.endef
	.seh_proc	_ZN9HistogramIthE10accumulateIhEEvPT_y
_ZN9HistogramIthE10accumulateIhEEvPT_y:
.LFB12826:
	subq	$72, %rsp
	.seh_stackalloc	72
	.seh_endprologue
	xorl	%r9d, %r9d
	movq	24(%rcx), %rax
	leaq	_ZN9HistogramIthE10accumulateIhEEvPT_y._omp_fn.0(%rip), %rcx
	movq	%r8, 40(%rsp)
	xorl	%r8d, %r8d
	movq	%rdx, 32(%rsp)
	leaq	32(%rsp), %rdx
	movq	%rax, 48(%rsp)
	call	GOMP_parallel
	nop
	addq	$72, %rsp
	ret
	.seh_endproc
	.align 2
	.p2align 4
	.globl	_ZN9HistogramIttE10accumulateItEEvPT_y
	.def	_ZN9HistogramIttE10accumulateItEEvPT_y;	.scl	2;	.type	32;	.endef
	.seh_proc	_ZN9HistogramIttE10accumulateItEEvPT_y
_ZN9HistogramIttE10accumulateItEEvPT_y:
.LFB12827:
	subq	$72, %rsp
	.seh_stackalloc	72
	.seh_endprologue
	movq	24(%rcx), %rax
	movq	%rdx, %r9
	movl	52(%rcx), %edx
	movq	%rax, 48(%rsp)
	movl	$16, %eax
	movq	%r8, 40(%rsp)
	leaq	_ZN9HistogramIttE10accumulateItEEvPT_y._omp_fn.0(%rip), %rcx
	xorl	%r8d, %r8d
	subl	%edx, %eax
	movl	%edx, 56(%rsp)
	leaq	32(%rsp), %rdx
	movq	%r9, 32(%rsp)
	xorl	%r9d, %r9d
	movl	%eax, 60(%rsp)
	call	GOMP_parallel
	nop
	addq	$72, %rsp
	ret
	.seh_endproc
	.align 2
	.p2align 4
	.globl	_ZN9HistogramItaE10accumulateIaEEvPT_y
	.def	_ZN9HistogramItaE10accumulateIaEEvPT_y;	.scl	2;	.type	32;	.endef
	.seh_proc	_ZN9HistogramItaE10accumulateIaEEvPT_y
_ZN9HistogramItaE10accumulateIaEEvPT_y:
.LFB12828:
	subq	$72, %rsp
	.seh_stackalloc	72
	.seh_endprologue
	xorl	%r9d, %r9d
	movq	24(%rcx), %rax
	leaq	_ZN9HistogramItaE10accumulateIaEEvPT_y._omp_fn.0(%rip), %rcx
	movq	%rdx, 48(%rsp)
	leaq	32(%rsp), %rdx
	movq	%r8, 32(%rsp)
	xorl	%r8d, %r8d
	movq	%rax, 40(%rsp)
	call	GOMP_parallel
	nop
	addq	$72, %rsp
	ret
	.seh_endproc
	.align 2
	.p2align 4
	.globl	_ZN9HistogramItsE10accumulateIsEEvPT_y
	.def	_ZN9HistogramItsE10accumulateIsEEvPT_y;	.scl	2;	.type	32;	.endef
	.seh_proc	_ZN9HistogramItsE10accumulateIsEEvPT_y
_ZN9HistogramItsE10accumulateIsEEvPT_y:
.LFB12829:
	subq	$72, %rsp
	.seh_stackalloc	72
	.seh_endprologue
	movq	24(%rcx), %rax
	movq	%rdx, %r9
	movl	52(%rcx), %edx
	movq	%rax, 40(%rsp)
	movl	$16, %eax
	movq	%r9, 48(%rsp)
	leaq	_ZN9HistogramItsE10accumulateIsEEvPT_y._omp_fn.0(%rip), %rcx
	xorl	%r9d, %r9d
	subl	%edx, %eax
	movl	%edx, 56(%rsp)
	leaq	32(%rsp), %rdx
	movq	%r8, 32(%rsp)
	xorl	%r8d, %r8d
	movl	%eax, 60(%rsp)
	call	GOMP_parallel
	nop
	addq	$72, %rsp
	ret
	.seh_endproc
	.align 2
	.p2align 4
	.globl	_ZN9HistogramIhdE10accumulateIdEEvPT_y
	.def	_ZN9HistogramIhdE10accumulateIdEEvPT_y;	.scl	2;	.type	32;	.endef
	.seh_proc	_ZN9HistogramIhdE10accumulateIdEEvPT_y
_ZN9HistogramIhdE10accumulateIdEEvPT_y:
.LFB12830:
	subq	$88, %rsp
	.seh_stackalloc	88
	.seh_endprologue
	xorl	%r9d, %r9d
	vmovsd	48(%rcx), %xmm0
	movl	(%rcx), %eax
	vaddsd	%xmm0, %xmm0, %xmm1
	vxorps	%xmm0, %xmm0, %xmm0
	vcvtsi2sdq	%rax, %xmm0, %xmm0
	movq	24(%rcx), %rax
	movq	%rcx, 48(%rsp)
	leaq	_ZN9HistogramIhdE10accumulateIdEEvPT_y._omp_fn.0(%rip), %rcx
	movq	%r8, 40(%rsp)
	xorl	%r8d, %r8d
	movq	%rdx, 32(%rsp)
	leaq	32(%rsp), %rdx
	vdivsd	%xmm0, %xmm1, %xmm0
	movq	%rax, 64(%rsp)
	vmovsd	%xmm0, 56(%rsp)
	call	GOMP_parallel
	nop
	addq	$88, %rsp
	ret
	.seh_endproc
	.align 2
	.p2align 4
	.globl	_ZN9HistogramIhfE10accumulateIfEEvPT_y
	.def	_ZN9HistogramIhfE10accumulateIfEEvPT_y;	.scl	2;	.type	32;	.endef
	.seh_proc	_ZN9HistogramIhfE10accumulateIfEEvPT_y
_ZN9HistogramIhfE10accumulateIfEEvPT_y:
.LFB12831:
	subq	$88, %rsp
	.seh_stackalloc	88
	.seh_endprologue
	vxorps	%xmm2, %xmm2, %xmm2
	xorl	%r9d, %r9d
	movl	(%rcx), %eax
	vcvtss2sd	48(%rcx), %xmm2, %xmm0
	vaddsd	%xmm0, %xmm0, %xmm1
	movq	%rcx, 48(%rsp)
	vcvtsi2sdq	%rax, %xmm2, %xmm0
	movq	24(%rcx), %rax
	movq	%r8, 40(%rsp)
	leaq	_ZN9HistogramIhfE10accumulateIfEEvPT_y._omp_fn.0(%rip), %rcx
	movq	%rdx, 32(%rsp)
	xorl	%r8d, %r8d
	leaq	32(%rsp), %rdx
	movq	%rax, 56(%rsp)
	vdivsd	%xmm0, %xmm1, %xmm0
	vcvtsd2ss	%xmm0, %xmm0, %xmm0
	vmovss	%xmm0, 64(%rsp)
	call	GOMP_parallel
	nop
	addq	$88, %rsp
	ret
	.seh_endproc
	.align 2
	.p2align 4
	.globl	_ZN9HistogramIhhE10accumulateIhEEvPT_y
	.def	_ZN9HistogramIhhE10accumulateIhEEvPT_y;	.scl	2;	.type	32;	.endef
	.seh_proc	_ZN9HistogramIhhE10accumulateIhEEvPT_y
_ZN9HistogramIhhE10accumulateIhEEvPT_y:
.LFB12832:
	subq	$72, %rsp
	.seh_stackalloc	72
	.seh_endprologue
	xorl	%r9d, %r9d
	movq	24(%rcx), %rax
	leaq	_ZN9HistogramIhhE10accumulateIhEEvPT_y._omp_fn.0(%rip), %rcx
	movq	%r8, 40(%rsp)
	xorl	%r8d, %r8d
	movq	%rdx, 32(%rsp)
	leaq	32(%rsp), %rdx
	movq	%rax, 48(%rsp)
	call	GOMP_parallel
	nop
	addq	$72, %rsp
	ret
	.seh_endproc
	.align 2
	.p2align 4
	.globl	_ZN9HistogramIhtE10accumulateItEEvPT_y
	.def	_ZN9HistogramIhtE10accumulateItEEvPT_y;	.scl	2;	.type	32;	.endef
	.seh_proc	_ZN9HistogramIhtE10accumulateItEEvPT_y
_ZN9HistogramIhtE10accumulateItEEvPT_y:
.LFB12833:
	subq	$72, %rsp
	.seh_stackalloc	72
	.seh_endprologue
	movq	24(%rcx), %rax
	movq	%rdx, %r9
	movl	52(%rcx), %edx
	movq	%rax, 48(%rsp)
	movl	$16, %eax
	movq	%r8, 40(%rsp)
	leaq	_ZN9HistogramIhtE10accumulateItEEvPT_y._omp_fn.0(%rip), %rcx
	xorl	%r8d, %r8d
	subl	%edx, %eax
	movl	%edx, 56(%rsp)
	leaq	32(%rsp), %rdx
	movq	%r9, 32(%rsp)
	xorl	%r9d, %r9d
	movl	%eax, 60(%rsp)
	call	GOMP_parallel
	nop
	addq	$72, %rsp
	ret
	.seh_endproc
	.align 2
	.p2align 4
	.globl	_ZN9HistogramIhaE10accumulateIaEEvPT_y
	.def	_ZN9HistogramIhaE10accumulateIaEEvPT_y;	.scl	2;	.type	32;	.endef
	.seh_proc	_ZN9HistogramIhaE10accumulateIaEEvPT_y
_ZN9HistogramIhaE10accumulateIaEEvPT_y:
.LFB12834:
	subq	$72, %rsp
	.seh_stackalloc	72
	.seh_endprologue
	xorl	%r9d, %r9d
	movq	24(%rcx), %rax
	leaq	_ZN9HistogramIhaE10accumulateIaEEvPT_y._omp_fn.0(%rip), %rcx
	movq	%rdx, 48(%rsp)
	leaq	32(%rsp), %rdx
	movq	%r8, 32(%rsp)
	xorl	%r8d, %r8d
	movq	%rax, 40(%rsp)
	call	GOMP_parallel
	nop
	addq	$72, %rsp
	ret
	.seh_endproc
	.align 2
	.p2align 4
	.globl	_ZN9HistogramIhsE10accumulateIsEEvPT_y
	.def	_ZN9HistogramIhsE10accumulateIsEEvPT_y;	.scl	2;	.type	32;	.endef
	.seh_proc	_ZN9HistogramIhsE10accumulateIsEEvPT_y
_ZN9HistogramIhsE10accumulateIsEEvPT_y:
.LFB12835:
	subq	$72, %rsp
	.seh_stackalloc	72
	.seh_endprologue
	movq	24(%rcx), %rax
	movq	%rdx, %r9
	movl	52(%rcx), %edx
	movq	%rax, 40(%rsp)
	movl	$16, %eax
	movq	%r9, 48(%rsp)
	leaq	_ZN9HistogramIhsE10accumulateIsEEvPT_y._omp_fn.0(%rip), %rcx
	xorl	%r9d, %r9d
	subl	%edx, %eax
	movl	%edx, 56(%rsp)
	leaq	32(%rsp), %rdx
	movq	%r8, 32(%rsp)
	xorl	%r8d, %r8d
	movl	%eax, 60(%rsp)
	call	GOMP_parallel
	nop
	addq	$72, %rsp
	ret
	.seh_endproc
	.align 2
	.p2align 4
	.globl	_ZN11Histogram2DIydE10accumulateIdEEvPT_S3_y
	.def	_ZN11Histogram2DIydE10accumulateIdEEvPT_S3_y;	.scl	2;	.type	32;	.endef
	.seh_proc	_ZN11Histogram2DIydE10accumulateIdEEvPT_S3_y
_ZN11Histogram2DIydE10accumulateIdEEvPT_S3_y:
.LFB12857:
	pushq	%r12
	.seh_pushreg	%r12
	pushq	%rbx
	.seh_pushreg	%rbx
	subq	$88, %rsp
	.seh_stackalloc	88
	.seh_endprologue
	vmovsd	64(%rcx), %xmm0
	movl	(%rcx), %eax
	vaddsd	%xmm0, %xmm0, %xmm1
	vxorps	%xmm0, %xmm0, %xmm0
	vcvtsi2sdq	%rax, %xmm0, %xmm0
	vmovq	%rdx, %xmm2
	leaq	32(%rsp), %r12
	movq	%rcx, 56(%rsp)
	movq	%rcx, %rbx
	movq	%r9, 48(%rsp)
	movq	%r12, %rdx
	xorl	%r9d, %r9d
	leaq	_ZN11Histogram2DIydE10accumulateIdEEvPT_S3_y._omp_fn.0(%rip), %rcx
	vdivsd	%xmm0, %xmm1, %xmm0
	vmovsd	%xmm0, 64(%rsp)
	vpinsrq	$1, %r8, %xmm2, %xmm0
	xorl	%r8d, %r8d
	vmovaps	%xmm0, 32(%rsp)
	call	GOMP_parallel
	xorl	%r9d, %r9d
	xorl	%r8d, %r8d
	movq	%r12, %rdx
	leaq	_ZN11Histogram2DIydE19reduction_and_resetEv._omp_fn.0(%rip), %rcx
	movq	%rbx, 32(%rsp)
	call	GOMP_parallel
	nop
	addq	$88, %rsp
	popq	%rbx
	popq	%r12
	ret
	.seh_endproc
	.align 2
	.p2align 4
	.globl	_ZN11Histogram2DIyfE10accumulateIfEEvPT_S3_y
	.def	_ZN11Histogram2DIyfE10accumulateIfEEvPT_S3_y;	.scl	2;	.type	32;	.endef
	.seh_proc	_ZN11Histogram2DIyfE10accumulateIfEEvPT_S3_y
_ZN11Histogram2DIyfE10accumulateIfEEvPT_S3_y:
.LFB12858:
	pushq	%r12
	.seh_pushreg	%r12
	pushq	%rbx
	.seh_pushreg	%rbx
	subq	$88, %rsp
	.seh_stackalloc	88
	.seh_endprologue
	vxorps	%xmm2, %xmm2, %xmm2
	movl	(%rcx), %eax
	vcvtss2sd	64(%rcx), %xmm2, %xmm0
	vaddsd	%xmm0, %xmm0, %xmm1
	vmovq	%rdx, %xmm3
	leaq	32(%rsp), %r12
	vcvtsi2sdq	%rax, %xmm2, %xmm0
	movq	%rcx, 56(%rsp)
	movq	%rcx, %rbx
	movq	%r12, %rdx
	movq	%r9, 48(%rsp)
	leaq	_ZN11Histogram2DIyfE10accumulateIfEEvPT_S3_y._omp_fn.0(%rip), %rcx
	xorl	%r9d, %r9d
	vdivsd	%xmm0, %xmm1, %xmm0
	vcvtsd2ss	%xmm0, %xmm0, %xmm0
	vmovss	%xmm0, 64(%rsp)
	vpinsrq	$1, %r8, %xmm3, %xmm0
	xorl	%r8d, %r8d
	vmovaps	%xmm0, 32(%rsp)
	call	GOMP_parallel
	xorl	%r9d, %r9d
	xorl	%r8d, %r8d
	movq	%r12, %rdx
	leaq	_ZN11Histogram2DIyfE19reduction_and_resetEv._omp_fn.0(%rip), %rcx
	movq	%rbx, 32(%rsp)
	call	GOMP_parallel
	nop
	addq	$88, %rsp
	popq	%rbx
	popq	%r12
	ret
	.seh_endproc
	.align 2
	.p2align 4
	.globl	_ZN11Histogram2DIyhE10accumulateIhEEvPT_S3_y
	.def	_ZN11Histogram2DIyhE10accumulateIhEEvPT_S3_y;	.scl	2;	.type	32;	.endef
	.seh_proc	_ZN11Histogram2DIyhE10accumulateIhEEvPT_S3_y
_ZN11Histogram2DIyhE10accumulateIhEEvPT_S3_y:
.LFB12859:
	pushq	%r12
	.seh_pushreg	%r12
	pushq	%rbx
	.seh_pushreg	%rbx
	subq	$72, %rsp
	.seh_stackalloc	72
	.seh_endprologue
	vmovq	%rdx, %xmm1
	leaq	32(%rsp), %r12
	movq	%rcx, 56(%rsp)
	movq	%rcx, %rbx
	vpinsrq	$1, %r8, %xmm1, %xmm0
	movq	%r9, 48(%rsp)
	xorl	%r8d, %r8d
	xorl	%r9d, %r9d
	movq	%r12, %rdx
	leaq	_ZN11Histogram2DIyhE10accumulateIhEEvPT_S3_y._omp_fn.0(%rip), %rcx
	vmovaps	%xmm0, 32(%rsp)
	call	GOMP_parallel
	xorl	%r9d, %r9d
	xorl	%r8d, %r8d
	movq	%r12, %rdx
	leaq	_ZN11Histogram2DIyhE19reduction_and_resetEv._omp_fn.0(%rip), %rcx
	movq	%rbx, 32(%rsp)
	call	GOMP_parallel
	nop
	addq	$72, %rsp
	popq	%rbx
	popq	%r12
	ret
	.seh_endproc
	.align 2
	.p2align 4
	.globl	_ZN11Histogram2DIytE10accumulateItEEvPT_S3_y
	.def	_ZN11Histogram2DIytE10accumulateItEEvPT_S3_y;	.scl	2;	.type	32;	.endef
	.seh_proc	_ZN11Histogram2DIytE10accumulateItEEvPT_S3_y
_ZN11Histogram2DIytE10accumulateItEEvPT_S3_y:
.LFB12860:
	pushq	%r12
	.seh_pushreg	%r12
	pushq	%rbx
	.seh_pushreg	%rbx
	subq	$88, %rsp
	.seh_stackalloc	88
	.seh_endprologue
	movl	$16, %eax
	movq	%rcx, %rbx
	movl	68(%rcx), %ecx
	vmovq	%rdx, %xmm1
	leaq	32(%rsp), %r12
	vpinsrq	$1, %r8, %xmm1, %xmm0
	movq	%r9, 48(%rsp)
	xorl	%r8d, %r8d
	xorl	%r9d, %r9d
	subl	%ecx, %eax
	movl	%ecx, 64(%rsp)
	movq	%r12, %rdx
	leaq	_ZN11Histogram2DIytE10accumulateItEEvPT_S3_y._omp_fn.0(%rip), %rcx
	movl	%eax, 68(%rsp)
	vmovaps	%xmm0, 32(%rsp)
	movq	%rbx, 56(%rsp)
	call	GOMP_parallel
	xorl	%r9d, %r9d
	xorl	%r8d, %r8d
	movq	%r12, %rdx
	leaq	_ZN11Histogram2DIytE19reduction_and_resetEv._omp_fn.0(%rip), %rcx
	movq	%rbx, 32(%rsp)
	call	GOMP_parallel
	nop
	addq	$88, %rsp
	popq	%rbx
	popq	%r12
	ret
	.seh_endproc
	.align 2
	.p2align 4
	.globl	_ZN11Histogram2DIyaE10accumulateIaEEvPT_S3_y
	.def	_ZN11Histogram2DIyaE10accumulateIaEEvPT_S3_y;	.scl	2;	.type	32;	.endef
	.seh_proc	_ZN11Histogram2DIyaE10accumulateIaEEvPT_S3_y
_ZN11Histogram2DIyaE10accumulateIaEEvPT_S3_y:
.LFB12861:
	pushq	%r12
	.seh_pushreg	%r12
	pushq	%rbx
	.seh_pushreg	%rbx
	subq	$72, %rsp
	.seh_stackalloc	72
	.seh_endprologue
	vmovq	%rcx, %xmm1
	leaq	32(%rsp), %r12
	movq	%r8, 56(%rsp)
	movq	%rcx, %rbx
	vpinsrq	$1, %rdx, %xmm1, %xmm0
	movq	%r9, 32(%rsp)
	xorl	%r8d, %r8d
	xorl	%r9d, %r9d
	movq	%r12, %rdx
	leaq	_ZN11Histogram2DIyaE10accumulateIaEEvPT_S3_y._omp_fn.0(%rip), %rcx
	vmovups	%xmm0, 40(%rsp)
	call	GOMP_parallel
	xorl	%r9d, %r9d
	xorl	%r8d, %r8d
	movq	%r12, %rdx
	leaq	_ZN11Histogram2DIyaE19reduction_and_resetEv._omp_fn.0(%rip), %rcx
	movq	%rbx, 32(%rsp)
	call	GOMP_parallel
	nop
	addq	$72, %rsp
	popq	%rbx
	popq	%r12
	ret
	.seh_endproc
	.align 2
	.p2align 4
	.globl	_ZN11Histogram2DIysE10accumulateIsEEvPT_S3_y
	.def	_ZN11Histogram2DIysE10accumulateIsEEvPT_S3_y;	.scl	2;	.type	32;	.endef
	.seh_proc	_ZN11Histogram2DIysE10accumulateIsEEvPT_S3_y
_ZN11Histogram2DIysE10accumulateIsEEvPT_S3_y:
.LFB12862:
	pushq	%r12
	.seh_pushreg	%r12
	pushq	%rbx
	.seh_pushreg	%rbx
	subq	$88, %rsp
	.seh_stackalloc	88
	.seh_endprologue
	movl	$16, %eax
	movq	%rcx, %rbx
	movl	68(%rcx), %ecx
	leaq	32(%rsp), %r12
	movq	%r8, 56(%rsp)
	vmovq	%rbx, %xmm1
	movq	%r9, 32(%rsp)
	xorl	%r8d, %r8d
	xorl	%r9d, %r9d
	subl	%ecx, %eax
	vpinsrq	$1, %rdx, %xmm1, %xmm0
	movl	%ecx, 64(%rsp)
	movq	%r12, %rdx
	leaq	_ZN11Histogram2DIysE10accumulateIsEEvPT_S3_y._omp_fn.0(%rip), %rcx
	movl	%eax, 68(%rsp)
	vmovups	%xmm0, 40(%rsp)
	call	GOMP_parallel
	xorl	%r9d, %r9d
	xorl	%r8d, %r8d
	movq	%r12, %rdx
	leaq	_ZN11Histogram2DIysE19reduction_and_resetEv._omp_fn.0(%rip), %rcx
	movq	%rbx, 32(%rsp)
	call	GOMP_parallel
	nop
	addq	$88, %rsp
	popq	%rbx
	popq	%r12
	ret
	.seh_endproc
	.align 2
	.p2align 4
	.globl	_ZN11Histogram2DIjdE10accumulateIdEEvPT_S3_y
	.def	_ZN11Histogram2DIjdE10accumulateIdEEvPT_S3_y;	.scl	2;	.type	32;	.endef
	.seh_proc	_ZN11Histogram2DIjdE10accumulateIdEEvPT_S3_y
_ZN11Histogram2DIjdE10accumulateIdEEvPT_S3_y:
.LFB12863:
	pushq	%r12
	.seh_pushreg	%r12
	pushq	%rbx
	.seh_pushreg	%rbx
	subq	$88, %rsp
	.seh_stackalloc	88
	.seh_endprologue
	vmovsd	64(%rcx), %xmm0
	movl	(%rcx), %eax
	vaddsd	%xmm0, %xmm0, %xmm1
	vxorps	%xmm0, %xmm0, %xmm0
	vcvtsi2sdq	%rax, %xmm0, %xmm0
	vmovq	%rdx, %xmm2
	leaq	32(%rsp), %r12
	movq	%rcx, 56(%rsp)
	movq	%rcx, %rbx
	movq	%r9, 48(%rsp)
	movq	%r12, %rdx
	xorl	%r9d, %r9d
	leaq	_ZN11Histogram2DIjdE10accumulateIdEEvPT_S3_y._omp_fn.0(%rip), %rcx
	vdivsd	%xmm0, %xmm1, %xmm0
	vmovsd	%xmm0, 64(%rsp)
	vpinsrq	$1, %r8, %xmm2, %xmm0
	xorl	%r8d, %r8d
	vmovaps	%xmm0, 32(%rsp)
	call	GOMP_parallel
	xorl	%r9d, %r9d
	xorl	%r8d, %r8d
	movq	%r12, %rdx
	leaq	_ZN11Histogram2DIjdE19reduction_and_resetEv._omp_fn.0(%rip), %rcx
	movq	%rbx, 32(%rsp)
	call	GOMP_parallel
	nop
	addq	$88, %rsp
	popq	%rbx
	popq	%r12
	ret
	.seh_endproc
	.align 2
	.p2align 4
	.globl	_ZN11Histogram2DIjfE10accumulateIfEEvPT_S3_y
	.def	_ZN11Histogram2DIjfE10accumulateIfEEvPT_S3_y;	.scl	2;	.type	32;	.endef
	.seh_proc	_ZN11Histogram2DIjfE10accumulateIfEEvPT_S3_y
_ZN11Histogram2DIjfE10accumulateIfEEvPT_S3_y:
.LFB12864:
	pushq	%r12
	.seh_pushreg	%r12
	pushq	%rbx
	.seh_pushreg	%rbx
	subq	$88, %rsp
	.seh_stackalloc	88
	.seh_endprologue
	vxorps	%xmm2, %xmm2, %xmm2
	movl	(%rcx), %eax
	vcvtss2sd	64(%rcx), %xmm2, %xmm0
	vaddsd	%xmm0, %xmm0, %xmm1
	vmovq	%rdx, %xmm3
	leaq	32(%rsp), %r12
	vcvtsi2sdq	%rax, %xmm2, %xmm0
	movq	%rcx, 56(%rsp)
	movq	%rcx, %rbx
	movq	%r12, %rdx
	movq	%r9, 48(%rsp)
	leaq	_ZN11Histogram2DIjfE10accumulateIfEEvPT_S3_y._omp_fn.0(%rip), %rcx
	xorl	%r9d, %r9d
	vdivsd	%xmm0, %xmm1, %xmm0
	vcvtsd2ss	%xmm0, %xmm0, %xmm0
	vmovss	%xmm0, 64(%rsp)
	vpinsrq	$1, %r8, %xmm3, %xmm0
	xorl	%r8d, %r8d
	vmovaps	%xmm0, 32(%rsp)
	call	GOMP_parallel
	xorl	%r9d, %r9d
	xorl	%r8d, %r8d
	movq	%r12, %rdx
	leaq	_ZN11Histogram2DIjfE19reduction_and_resetEv._omp_fn.0(%rip), %rcx
	movq	%rbx, 32(%rsp)
	call	GOMP_parallel
	nop
	addq	$88, %rsp
	popq	%rbx
	popq	%r12
	ret
	.seh_endproc
	.align 2
	.p2align 4
	.globl	_ZN11Histogram2DIjhE10accumulateIhEEvPT_S3_y
	.def	_ZN11Histogram2DIjhE10accumulateIhEEvPT_S3_y;	.scl	2;	.type	32;	.endef
	.seh_proc	_ZN11Histogram2DIjhE10accumulateIhEEvPT_S3_y
_ZN11Histogram2DIjhE10accumulateIhEEvPT_S3_y:
.LFB12865:
	pushq	%r12
	.seh_pushreg	%r12
	pushq	%rbx
	.seh_pushreg	%rbx
	subq	$72, %rsp
	.seh_stackalloc	72
	.seh_endprologue
	vmovq	%rdx, %xmm1
	leaq	32(%rsp), %r12
	movq	%rcx, 56(%rsp)
	movq	%rcx, %rbx
	vpinsrq	$1, %r8, %xmm1, %xmm0
	movq	%r9, 48(%rsp)
	xorl	%r8d, %r8d
	xorl	%r9d, %r9d
	movq	%r12, %rdx
	leaq	_ZN11Histogram2DIjhE10accumulateIhEEvPT_S3_y._omp_fn.0(%rip), %rcx
	vmovaps	%xmm0, 32(%rsp)
	call	GOMP_parallel
	xorl	%r9d, %r9d
	xorl	%r8d, %r8d
	movq	%r12, %rdx
	leaq	_ZN11Histogram2DIjhE19reduction_and_resetEv._omp_fn.0(%rip), %rcx
	movq	%rbx, 32(%rsp)
	call	GOMP_parallel
	nop
	addq	$72, %rsp
	popq	%rbx
	popq	%r12
	ret
	.seh_endproc
	.align 2
	.p2align 4
	.globl	_ZN11Histogram2DIjtE10accumulateItEEvPT_S3_y
	.def	_ZN11Histogram2DIjtE10accumulateItEEvPT_S3_y;	.scl	2;	.type	32;	.endef
	.seh_proc	_ZN11Histogram2DIjtE10accumulateItEEvPT_S3_y
_ZN11Histogram2DIjtE10accumulateItEEvPT_S3_y:
.LFB12866:
	pushq	%r12
	.seh_pushreg	%r12
	pushq	%rbx
	.seh_pushreg	%rbx
	subq	$88, %rsp
	.seh_stackalloc	88
	.seh_endprologue
	movl	$16, %eax
	movq	%rcx, %rbx
	movl	68(%rcx), %ecx
	vmovq	%rdx, %xmm1
	leaq	32(%rsp), %r12
	vpinsrq	$1, %r8, %xmm1, %xmm0
	movq	%r9, 48(%rsp)
	xorl	%r8d, %r8d
	xorl	%r9d, %r9d
	subl	%ecx, %eax
	movl	%ecx, 64(%rsp)
	movq	%r12, %rdx
	leaq	_ZN11Histogram2DIjtE10accumulateItEEvPT_S3_y._omp_fn.0(%rip), %rcx
	movl	%eax, 68(%rsp)
	vmovaps	%xmm0, 32(%rsp)
	movq	%rbx, 56(%rsp)
	call	GOMP_parallel
	xorl	%r9d, %r9d
	xorl	%r8d, %r8d
	movq	%r12, %rdx
	leaq	_ZN11Histogram2DIjtE19reduction_and_resetEv._omp_fn.0(%rip), %rcx
	movq	%rbx, 32(%rsp)
	call	GOMP_parallel
	nop
	addq	$88, %rsp
	popq	%rbx
	popq	%r12
	ret
	.seh_endproc
	.align 2
	.p2align 4
	.globl	_ZN11Histogram2DIjaE10accumulateIaEEvPT_S3_y
	.def	_ZN11Histogram2DIjaE10accumulateIaEEvPT_S3_y;	.scl	2;	.type	32;	.endef
	.seh_proc	_ZN11Histogram2DIjaE10accumulateIaEEvPT_S3_y
_ZN11Histogram2DIjaE10accumulateIaEEvPT_S3_y:
.LFB12867:
	pushq	%r12
	.seh_pushreg	%r12
	pushq	%rbx
	.seh_pushreg	%rbx
	subq	$72, %rsp
	.seh_stackalloc	72
	.seh_endprologue
	vmovq	%rcx, %xmm1
	leaq	32(%rsp), %r12
	movq	%r8, 56(%rsp)
	movq	%rcx, %rbx
	vpinsrq	$1, %rdx, %xmm1, %xmm0
	movq	%r9, 32(%rsp)
	xorl	%r8d, %r8d
	xorl	%r9d, %r9d
	movq	%r12, %rdx
	leaq	_ZN11Histogram2DIjaE10accumulateIaEEvPT_S3_y._omp_fn.0(%rip), %rcx
	vmovups	%xmm0, 40(%rsp)
	call	GOMP_parallel
	xorl	%r9d, %r9d
	xorl	%r8d, %r8d
	movq	%r12, %rdx
	leaq	_ZN11Histogram2DIjaE19reduction_and_resetEv._omp_fn.0(%rip), %rcx
	movq	%rbx, 32(%rsp)
	call	GOMP_parallel
	nop
	addq	$72, %rsp
	popq	%rbx
	popq	%r12
	ret
	.seh_endproc
	.align 2
	.p2align 4
	.globl	_ZN11Histogram2DIjsE10accumulateIsEEvPT_S3_y
	.def	_ZN11Histogram2DIjsE10accumulateIsEEvPT_S3_y;	.scl	2;	.type	32;	.endef
	.seh_proc	_ZN11Histogram2DIjsE10accumulateIsEEvPT_S3_y
_ZN11Histogram2DIjsE10accumulateIsEEvPT_S3_y:
.LFB12868:
	pushq	%r12
	.seh_pushreg	%r12
	pushq	%rbx
	.seh_pushreg	%rbx
	subq	$88, %rsp
	.seh_stackalloc	88
	.seh_endprologue
	movl	$16, %eax
	movq	%rcx, %rbx
	movl	68(%rcx), %ecx
	leaq	32(%rsp), %r12
	movq	%r8, 56(%rsp)
	vmovq	%rbx, %xmm1
	movq	%r9, 32(%rsp)
	xorl	%r8d, %r8d
	xorl	%r9d, %r9d
	subl	%ecx, %eax
	vpinsrq	$1, %rdx, %xmm1, %xmm0
	movl	%ecx, 64(%rsp)
	movq	%r12, %rdx
	leaq	_ZN11Histogram2DIjsE10accumulateIsEEvPT_S3_y._omp_fn.0(%rip), %rcx
	movl	%eax, 68(%rsp)
	vmovups	%xmm0, 40(%rsp)
	call	GOMP_parallel
	xorl	%r9d, %r9d
	xorl	%r8d, %r8d
	movq	%r12, %rdx
	leaq	_ZN11Histogram2DIjsE19reduction_and_resetEv._omp_fn.0(%rip), %rcx
	movq	%rbx, 32(%rsp)
	call	GOMP_parallel
	nop
	addq	$88, %rsp
	popq	%rbx
	popq	%r12
	ret
	.seh_endproc
	.section	.text$_ZN8pybind115arg_vD1Ev,"x"
	.linkonce discard
	.align 2
	.p2align 4
	.globl	_ZN8pybind115arg_vD1Ev
	.def	_ZN8pybind115arg_vD1Ev;	.scl	2;	.type	32;	.endef
	.seh_proc	_ZN8pybind115arg_vD1Ev
_ZN8pybind115arg_vD1Ev:
.LFB12885:
	pushq	%rbx
	.seh_pushreg	%rbx
	subq	$32, %rsp
	.seh_stackalloc	32
	.seh_endprologue
	movq	%rcx, %rbx
	movq	32(%rcx), %rcx
	leaq	48(%rbx), %rax
	cmpq	%rax, %rcx
	je	.L1292
	call	_ZdlPv
.L1292:
	movq	16(%rbx), %rcx
	testq	%rcx, %rcx
	je	.L1291
	decq	(%rcx)
	jne	.L1291
	movq	8(%rcx), %rax
	call	*48(%rax)
	nop
.L1291:
	addq	$32, %rsp
	popq	%rbx
	ret
	.seh_handler	__gxx_personality_seh0, @unwind, @except
	.seh_handlerdata
.LLSDA12885:
	.byte	0xff
	.byte	0xff
	.byte	0x1
	.uleb128 .LLSDACSE12885-.LLSDACSB12885
.LLSDACSB12885:
.LLSDACSE12885:
	.section	.text$_ZN8pybind115arg_vD1Ev,"x"
	.linkonce discard
	.seh_endproc
	.section	.text$_ZStplIcSt11char_traitsIcESaIcEENSt7__cxx1112basic_stringIT_T0_T1_EEPKS5_RKS8_,"x"
	.linkonce discard
	.p2align 4
	.globl	_ZStplIcSt11char_traitsIcESaIcEENSt7__cxx1112basic_stringIT_T0_T1_EEPKS5_RKS8_
	.def	_ZStplIcSt11char_traitsIcESaIcEENSt7__cxx1112basic_stringIT_T0_T1_EEPKS5_RKS8_;	.scl	2;	.type	32;	.endef
	.seh_proc	_ZStplIcSt11char_traitsIcESaIcEENSt7__cxx1112basic_stringIT_T0_T1_EEPKS5_RKS8_
_ZStplIcSt11char_traitsIcESaIcEENSt7__cxx1112basic_stringIT_T0_T1_EEPKS5_RKS8_:
.LFB13424:
	pushq	%r13
	.seh_pushreg	%r13
	pushq	%r12
	.seh_pushreg	%r12
	pushq	%rdi
	.seh_pushreg	%rdi
	pushq	%rsi
	.seh_pushreg	%rsi
	pushq	%rbx
	.seh_pushreg	%rbx
	subq	$32, %rsp
	.seh_stackalloc	32
	.seh_endprologue
	movq	%rcx, %r12
	movq	%r8, %rsi
	movq	%rdx, %rcx
	movq	%rdx, %r13
	call	strlen
	leaq	16(%r12), %rdi
	movb	$0, 16(%r12)
	movq	%r12, %rcx
	movq	$0, 8(%r12)
	movq	8(%rsi), %rdx
	movq	%rax, %rbx
	movq	%rdi, (%r12)
	addq	%rax, %rdx
.LEHB42:
	call	_ZNSt7__cxx1112basic_stringIcSt11char_traitsIcESaIcEE7reserveEy
	movabsq	$4611686018427387903, %rax
	subq	8(%r12), %rax
	cmpq	%rax, %rbx
	jbe	.L1297
	leaq	.LC9(%rip), %rcx
	call	_ZSt20__throw_length_errorPKc
	.p2align 4,,10
	.p2align 3
.L1297:
	movq	%rbx, %r8
	movq	%r13, %rdx
	movq	%r12, %rcx
	call	_ZNSt7__cxx1112basic_stringIcSt11char_traitsIcESaIcEE9_M_appendEPKcy
	movq	8(%rsi), %r8
	movq	(%rsi), %rdx
	movq	%r12, %rcx
	call	_ZNSt7__cxx1112basic_stringIcSt11char_traitsIcESaIcEE9_M_appendEPKcy
.LEHE42:
	jmp	.L1301
.L1300:
	movq	(%r12), %rcx
	movq	%rax, %r13
	cmpq	%rcx, %rdi
	je	.L1302
	vzeroupper
	call	_ZdlPv
	jmp	.L1299
.L1302:
	vzeroupper
.L1299:
	movq	%r13, %rcx
.LEHB43:
	call	_Unwind_Resume
.LEHE43:
	.p2align 4,,10
	.p2align 3
.L1301:
	movq	%r12, %rax
	addq	$32, %rsp
	popq	%rbx
	popq	%rsi
	popq	%rdi
	popq	%r12
	popq	%r13
	ret
	.seh_handler	__gxx_personality_seh0, @unwind, @except
	.seh_handlerdata
.LLSDA13424:
	.byte	0xff
	.byte	0xff
	.byte	0x1
	.uleb128 .LLSDACSE13424-.LLSDACSB13424
.LLSDACSB13424:
	.uleb128 .LEHB42-.LFB13424
	.uleb128 .LEHE42-.LEHB42
	.uleb128 .L1300-.LFB13424
	.uleb128 0
	.uleb128 .LEHB43-.LFB13424
	.uleb128 .LEHE43-.LEHB43
	.uleb128 0
	.uleb128 0
.LLSDACSE13424:
	.section	.text$_ZStplIcSt11char_traitsIcESaIcEENSt7__cxx1112basic_stringIT_T0_T1_EEPKS5_RKS8_,"x"
	.linkonce discard
	.seh_endproc
	.section	.text$_ZStplIcSt11char_traitsIcESaIcEENSt7__cxx1112basic_stringIT_T0_T1_EEOS8_PKS5_,"x"
	.linkonce discard
	.p2align 4
	.globl	_ZStplIcSt11char_traitsIcESaIcEENSt7__cxx1112basic_stringIT_T0_T1_EEOS8_PKS5_
	.def	_ZStplIcSt11char_traitsIcESaIcEENSt7__cxx1112basic_stringIT_T0_T1_EEOS8_PKS5_;	.scl	2;	.type	32;	.endef
	.seh_proc	_ZStplIcSt11char_traitsIcESaIcEENSt7__cxx1112basic_stringIT_T0_T1_EEOS8_PKS5_
_ZStplIcSt11char_traitsIcESaIcEENSt7__cxx1112basic_stringIT_T0_T1_EEOS8_PKS5_:
.LFB13425:
	pushq	%r14
	.seh_pushreg	%r14
	pushq	%r13
	.seh_pushreg	%r13
	pushq	%r12
	.seh_pushreg	%r12
	subq	$32, %rsp
	.seh_stackalloc	32
	.seh_endprologue
	movq	%rcx, %r12
	movq	%r8, %rcx
	movq	%rdx, %r13
	movq	%r8, %r14
	call	strlen
	movq	%rax, %r8
	movabsq	$4611686018427387903, %rax
	subq	8(%r13), %rax
	cmpq	%rax, %r8
	ja	.L1307
	movq	%r14, %rdx
	movq	%r13, %rcx
	call	_ZNSt7__cxx1112basic_stringIcSt11char_traitsIcESaIcEE9_M_appendEPKcy
	leaq	16(%r12), %rdx
	movq	%rdx, (%r12)
	movq	(%rax), %rcx
	leaq	16(%rax), %rdx
	cmpq	%rdx, %rcx
	je	.L1308
	movq	%rcx, (%r12)
	movq	16(%rax), %rcx
	movq	%rcx, 16(%r12)
.L1306:
	movq	8(%rax), %rcx
	movq	%rdx, (%rax)
	movq	$0, 8(%rax)
	movq	%rcx, 8(%r12)
	movb	$0, 16(%rax)
	movq	%r12, %rax
	addq	$32, %rsp
	popq	%r12
	popq	%r13
	popq	%r14
	ret
	.p2align 4,,10
	.p2align 3
.L1308:
	vmovdqu	16(%rax), %xmm0
	vmovups	%xmm0, 16(%r12)
	jmp	.L1306
.L1307:
	leaq	.LC9(%rip), %rcx
	call	_ZSt20__throw_length_errorPKc
	nop
	.seh_endproc
	.section	.text$_ZStplIcSt11char_traitsIcESaIcEENSt7__cxx1112basic_stringIT_T0_T1_EEPKS5_OS8_,"x"
	.linkonce discard
	.p2align 4
	.globl	_ZStplIcSt11char_traitsIcESaIcEENSt7__cxx1112basic_stringIT_T0_T1_EEPKS5_OS8_
	.def	_ZStplIcSt11char_traitsIcESaIcEENSt7__cxx1112basic_stringIT_T0_T1_EEPKS5_OS8_;	.scl	2;	.type	32;	.endef
	.seh_proc	_ZStplIcSt11char_traitsIcESaIcEENSt7__cxx1112basic_stringIT_T0_T1_EEPKS5_OS8_
_ZStplIcSt11char_traitsIcESaIcEENSt7__cxx1112basic_stringIT_T0_T1_EEPKS5_OS8_:
.LFB13429:
	pushq	%r13
	.seh_pushreg	%r13
	pushq	%r12
	.seh_pushreg	%r12
	pushq	%rbx
	.seh_pushreg	%rbx
	subq	$48, %rsp
	.seh_stackalloc	48
	.seh_endprologue
	movq	%rcx, %r12
	movq	%rdx, %rcx
	movq	%rdx, %rbx
	movq	%r8, %r13
	call	strlen
	xorl	%edx, %edx
	movq	%r13, %rcx
	movq	%rbx, %r9
	movq	%rax, 32(%rsp)
	xorl	%r8d, %r8d
	call	_ZNSt7__cxx1112basic_stringIcSt11char_traitsIcESaIcEE10_M_replaceEyyPKcy
	leaq	16(%r12), %rdx
	movq	%rdx, (%r12)
	movq	(%rax), %rcx
	leaq	16(%rax), %rdx
	cmpq	%rdx, %rcx
	je	.L1312
	movq	%rcx, (%r12)
	movq	16(%rax), %rcx
	movq	%rcx, 16(%r12)
.L1311:
	movq	8(%rax), %rcx
	movq	%rdx, (%rax)
	movq	$0, 8(%rax)
	movq	%rcx, 8(%r12)
	movb	$0, 16(%rax)
	movq	%r12, %rax
	addq	$48, %rsp
	popq	%rbx
	popq	%r12
	popq	%r13
	ret
	.p2align 4,,10
	.p2align 3
.L1312:
	vmovdqu	16(%rax), %xmm0
	vmovups	%xmm0, 16(%r12)
	jmp	.L1311
	.seh_endproc
	.section	.text$_ZStplIcSt11char_traitsIcESaIcEENSt7__cxx1112basic_stringIT_T0_T1_EEOS8_S9_,"x"
	.linkonce discard
	.p2align 4
	.globl	_ZStplIcSt11char_traitsIcESaIcEENSt7__cxx1112basic_stringIT_T0_T1_EEOS8_S9_
	.def	_ZStplIcSt11char_traitsIcESaIcEENSt7__cxx1112basic_stringIT_T0_T1_EEOS8_S9_;	.scl	2;	.type	32;	.endef
	.seh_proc	_ZStplIcSt11char_traitsIcESaIcEENSt7__cxx1112basic_stringIT_T0_T1_EEOS8_S9_
_ZStplIcSt11char_traitsIcESaIcEENSt7__cxx1112basic_stringIT_T0_T1_EEOS8_S9_:
.LFB13430:
	pushq	%r12
	.seh_pushreg	%r12
	pushq	%rbx
	.seh_pushreg	%rbx
	subq	$56, %rsp
	.seh_stackalloc	56
	.seh_endprologue
	movq	8(%rdx), %r11
	movq	(%rdx), %r9
	movq	%r8, %r10
	movq	8(%r8), %r8
	movq	%rcx, %r12
	movq	%rdx, %rcx
	leaq	16(%rdx), %rdx
	leaq	(%r11,%r8), %rax
	cmpq	%rdx, %r9
	je	.L1320
	movq	16(%rcx), %rbx
.L1314:
	movq	(%r10), %rdx
	cmpq	%rbx, %rax
	jbe	.L1315
	leaq	16(%r10), %rbx
	cmpq	%rbx, %rdx
	je	.L1321
	movq	16(%r10), %rbx
.L1316:
	cmpq	%rbx, %rax
	jbe	.L1322
.L1315:
	call	_ZNSt7__cxx1112basic_stringIcSt11char_traitsIcESaIcEE9_M_appendEPKcy
.L1317:
	leaq	16(%r12), %rdx
	movq	%rdx, (%r12)
	movq	(%rax), %rcx
	leaq	16(%rax), %rdx
	cmpq	%rdx, %rcx
	je	.L1323
	movq	%rcx, (%r12)
	movq	16(%rax), %rcx
	movq	%rcx, 16(%r12)
.L1319:
	movq	8(%rax), %rcx
	movq	%rdx, (%rax)
	movq	$0, 8(%rax)
	movq	%rcx, 8(%r12)
	movb	$0, 16(%rax)
	movq	%r12, %rax
	addq	$56, %rsp
	popq	%rbx
	popq	%r12
	ret
	.p2align 4,,10
	.p2align 3
.L1322:
	movq	%r11, 32(%rsp)
	xorl	%r8d, %r8d
	xorl	%edx, %edx
	movq	%r10, %rcx
	call	_ZNSt7__cxx1112basic_stringIcSt11char_traitsIcESaIcEE10_M_replaceEyyPKcy
	jmp	.L1317
	.p2align 4,,10
	.p2align 3
.L1323:
	vmovdqu	16(%rax), %xmm0
	vmovups	%xmm0, 16(%r12)
	jmp	.L1319
	.p2align 4,,10
	.p2align 3
.L1320:
	movl	$15, %ebx
	jmp	.L1314
	.p2align 4,,10
	.p2align 3
.L1321:
	movl	$15, %ebx
	jmp	.L1316
	.seh_endproc
	.section .rdata,"dr"
.LC18:
	.ascii "vector::_M_realloc_insert\0"
	.section	.text$_ZNSt6vectorIN8pybind116detail15argument_recordESaIS2_EE12emplace_backIJRA5_KcDnNS0_6handleEbbEEEvDpOT_,"x"
	.linkonce discard
	.align 2
	.p2align 4
	.globl	_ZNSt6vectorIN8pybind116detail15argument_recordESaIS2_EE12emplace_backIJRA5_KcDnNS0_6handleEbbEEEvDpOT_
	.def	_ZNSt6vectorIN8pybind116detail15argument_recordESaIS2_EE12emplace_backIJRA5_KcDnNS0_6handleEbbEEEvDpOT_;	.scl	2;	.type	32;	.endef
	.seh_proc	_ZNSt6vectorIN8pybind116detail15argument_recordESaIS2_EE12emplace_backIJRA5_KcDnNS0_6handleEbbEEEvDpOT_
_ZNSt6vectorIN8pybind116detail15argument_recordESaIS2_EE12emplace_backIJRA5_KcDnNS0_6handleEbbEEEvDpOT_:
.LFB13523:
	pushq	%r14
	.seh_pushreg	%r14
	pushq	%r13
	.seh_pushreg	%r13
	pushq	%r12
	.seh_pushreg	%r12
	pushq	%rbp
	.seh_pushreg	%rbp
	pushq	%rdi
	.seh_pushreg	%rdi
	pushq	%rsi
	.seh_pushreg	%rsi
	pushq	%rbx
	.seh_pushreg	%rbx
	subq	$32, %rsp
	.seh_stackalloc	32
	.seh_endprologue
	movq	8(%rcx), %rbx
	movq	%rcx, %rsi
	cmpq	16(%rcx), %rbx
	je	.L1325
	movq	128(%rsp), %rax
	addq	$32, %rbx
	movzbl	(%rax), %r8d
	movq	136(%rsp), %rax
	movzbl	(%rax), %ecx
	movq	(%r9), %rax
	movq	%rdx, -32(%rbx)
	movzbl	-8(%rbx), %edx
	movq	$0, -24(%rbx)
	movq	%rax, -16(%rbx)
	leal	(%rcx,%rcx), %eax
	orl	%r8d, %eax
	andl	$-4, %edx
	andl	$3, %eax
	orl	%edx, %eax
	movb	%al, -8(%rbx)
	movq	%rbx, 8(%rsi)
	addq	$32, %rsp
	popq	%rbx
	popq	%rsi
	popq	%rdi
	popq	%rbp
	popq	%r12
	popq	%r13
	popq	%r14
	ret
	.p2align 4,,10
	.p2align 3
.L1325:
	movq	(%rcx), %r12
	movq	%rbx, %r14
	movabsq	$288230376151711743, %rcx
	subq	%r12, %r14
	movq	%r14, %rax
	sarq	$5, %rax
	cmpq	%rcx, %rax
	je	.L1341
	testq	%rax, %rax
	je	.L1333
	movabsq	$9223372036854775776, %rbp
	leaq	(%rax,%rax), %r8
	cmpq	%r8, %rax
	jbe	.L1342
.L1328:
	movq	%rbp, %rcx
	movq	%r9, 120(%rsp)
	movq	%rdx, 104(%rsp)
	call	_Znwy
	movq	104(%rsp), %rdx
	movq	120(%rsp), %r9
	movq	%rax, %rdi
	addq	%rax, %rbp
	leaq	32(%rax), %r13
.L1329:
	movq	136(%rsp), %rcx
	leaq	(%rdi,%r14), %rax
	movq	(%r9), %r8
	movq	%rdx, (%rax)
	movzbl	(%rcx), %ecx
	movq	$0, 8(%rax)
	movq	%r8, 16(%rax)
	leal	(%rcx,%rcx), %edx
	movq	128(%rsp), %rcx
	orb	(%rcx), %dl
	movzbl	24(%rax), %ecx
	andl	$3, %edx
	andl	$-4, %ecx
	orl	%ecx, %edx
	movb	%dl, 24(%rax)
	cmpq	%r12, %rbx
	je	.L1330
	movq	%rdi, %rcx
	movq	%r12, %rdx
	.p2align 4,,10
	.p2align 3
.L1331:
	vmovdqu	(%rdx), %xmm1
	addq	$32, %rdx
	addq	$32, %rcx
	vmovups	%xmm1, -32(%rcx)
	vmovdqu	-16(%rdx), %xmm2
	vmovups	%xmm2, -16(%rcx)
	cmpq	%rdx, %rbx
	jne	.L1331
	subq	%r12, %rbx
	leaq	32(%rdi,%rbx), %r13
.L1330:
	testq	%r12, %r12
	je	.L1332
	movq	%r12, %rcx
	call	_ZdlPv
.L1332:
	vmovq	%rdi, %xmm3
	movq	%rbp, 16(%rsi)
	vpinsrq	$1, %r13, %xmm3, %xmm0
	vmovups	%xmm0, (%rsi)
	addq	$32, %rsp
	popq	%rbx
	popq	%rsi
	popq	%rdi
	popq	%rbp
	popq	%r12
	popq	%r13
	popq	%r14
	ret
	.p2align 4,,10
	.p2align 3
.L1342:
	testq	%r8, %r8
	jne	.L1343
	movl	$32, %r13d
	xorl	%ebp, %ebp
	xorl	%edi, %edi
	jmp	.L1329
	.p2align 4,,10
	.p2align 3
.L1333:
	movl	$32, %ebp
	jmp	.L1328
.L1341:
	leaq	.LC18(%rip), %rcx
	call	_ZSt20__throw_length_errorPKc
.L1343:
	cmpq	%rcx, %r8
	cmovbe	%r8, %rcx
	movq	%rcx, %rbp
	salq	$5, %rbp
	jmp	.L1328
	.seh_endproc
	.section	.text$_ZNSt6vectorIN8pybind116detail13function_callESaIS2_EED1Ev,"x"
	.linkonce discard
	.align 2
	.p2align 4
	.globl	_ZNSt6vectorIN8pybind116detail13function_callESaIS2_EED1Ev
	.def	_ZNSt6vectorIN8pybind116detail13function_callESaIS2_EED1Ev;	.scl	2;	.type	32;	.endef
	.seh_proc	_ZNSt6vectorIN8pybind116detail13function_callESaIS2_EED1Ev
_ZNSt6vectorIN8pybind116detail13function_callESaIS2_EED1Ev:
.LFB13596:
	pushq	%r12
	.seh_pushreg	%r12
	pushq	%rsi
	.seh_pushreg	%rsi
	pushq	%rbx
	.seh_pushreg	%rbx
	subq	$32, %rsp
	.seh_stackalloc	32
	.seh_endprologue
	movq	8(%rcx), %rbx
	movq	(%rcx), %r12
	movq	%rcx, %rsi
	cmpq	%r12, %rbx
	je	.L1345
	.p2align 4,,10
	.p2align 3
.L1357:
	movq	80(%r12), %rcx
	testq	%rcx, %rcx
	je	.L1347
	decq	(%rcx)
	jne	.L1347
	movq	8(%rcx), %rax
	call	*48(%rax)
.L1347:
	movq	72(%r12), %rcx
	testq	%rcx, %rcx
	je	.L1350
	decq	(%rcx)
	jne	.L1350
	movq	8(%rcx), %rax
	call	*48(%rax)
.L1350:
	movq	32(%r12), %rcx
	testq	%rcx, %rcx
	je	.L1352
	call	_ZdlPv
.L1352:
	movq	8(%r12), %rcx
	testq	%rcx, %rcx
	je	.L1354
	call	_ZdlPv
	addq	$104, %r12
	cmpq	%r12, %rbx
	jne	.L1357
	jmp	.L1355
	.p2align 4,,10
	.p2align 3
.L1354:
	addq	$104, %r12
	cmpq	%r12, %rbx
	jne	.L1357
.L1355:
	movq	(%rsi), %r12
.L1345:
	testq	%r12, %r12
	je	.L1344
	movq	%r12, %rcx
	addq	$32, %rsp
	popq	%rbx
	popq	%rsi
	popq	%r12
	jmp	_ZdlPv
	.p2align 4,,10
	.p2align 3
.L1344:
	addq	$32, %rsp
	popq	%rbx
	popq	%rsi
	popq	%r12
	ret
	.seh_handler	__gxx_personality_seh0, @unwind, @except
	.seh_handlerdata
.LLSDA13596:
	.byte	0xff
	.byte	0xff
	.byte	0x1
	.uleb128 .LLSDACSE13596-.LLSDACSB13596
.LLSDACSB13596:
.LLSDACSE13596:
	.section	.text$_ZNSt6vectorIN8pybind116detail13function_callESaIS2_EED1Ev,"x"
	.linkonce discard
	.seh_endproc
	.section	.text$_ZN8pybind116detail8accessorINS0_17accessor_policies8obj_attrEED1Ev,"x"
	.linkonce discard
	.align 2
	.p2align 4
	.globl	_ZN8pybind116detail8accessorINS0_17accessor_policies8obj_attrEED1Ev
	.def	_ZN8pybind116detail8accessorINS0_17accessor_policies8obj_attrEED1Ev;	.scl	2;	.type	32;	.endef
	.seh_proc	_ZN8pybind116detail8accessorINS0_17accessor_policies8obj_attrEED1Ev
_ZN8pybind116detail8accessorINS0_17accessor_policies8obj_attrEED1Ev:
.LFB13949:
	pushq	%rbx
	.seh_pushreg	%rbx
	subq	$32, %rsp
	.seh_stackalloc	32
	.seh_endprologue
	movq	%rcx, %rbx
	movq	24(%rcx), %rcx
	testq	%rcx, %rcx
	je	.L1364
	decq	(%rcx)
	jne	.L1364
	movq	8(%rcx), %rax
	call	*48(%rax)
.L1364:
	movq	16(%rbx), %rcx
	testq	%rcx, %rcx
	je	.L1362
	decq	(%rcx)
	jne	.L1362
	movq	8(%rcx), %rax
	call	*48(%rax)
	nop
.L1362:
	addq	$32, %rsp
	popq	%rbx
	ret
	.seh_handler	__gxx_personality_seh0, @unwind, @except
	.seh_handlerdata
.LLSDA13949:
	.byte	0xff
	.byte	0xff
	.byte	0x1
	.uleb128 .LLSDACSE13949-.LLSDACSB13949
.LLSDACSB13949:
.LLSDACSE13949:
	.section	.text$_ZN8pybind116detail8accessorINS0_17accessor_policies8obj_attrEED1Ev,"x"
	.linkonce discard
	.seh_endproc
	.section	.text$_ZNSt6vectorIPN8pybind116detail9type_infoESaIS3_EE17_M_realloc_insertIJRKS3_EEEvN9__gnu_cxx17__normal_iteratorIPS3_S5_EEDpOT_,"x"
	.linkonce discard
	.align 2
	.p2align 4
	.globl	_ZNSt6vectorIPN8pybind116detail9type_infoESaIS3_EE17_M_realloc_insertIJRKS3_EEEvN9__gnu_cxx17__normal_iteratorIPS3_S5_EEDpOT_
	.def	_ZNSt6vectorIPN8pybind116detail9type_infoESaIS3_EE17_M_realloc_insertIJRKS3_EEEvN9__gnu_cxx17__normal_iteratorIPS3_S5_EEDpOT_;	.scl	2;	.type	32;	.endef
	.seh_proc	_ZNSt6vectorIPN8pybind116detail9type_infoESaIS3_EE17_M_realloc_insertIJRKS3_EEEvN9__gnu_cxx17__normal_iteratorIPS3_S5_EEDpOT_
_ZNSt6vectorIPN8pybind116detail9type_infoESaIS3_EE17_M_realloc_insertIJRKS3_EEEvN9__gnu_cxx17__normal_iteratorIPS3_S5_EEDpOT_:
.LFB14270:
	pushq	%r15
	.seh_pushreg	%r15
	pushq	%r14
	.seh_pushreg	%r14
	pushq	%r13
	.seh_pushreg	%r13
	pushq	%r12
	.seh_pushreg	%r12
	pushq	%rbp
	.seh_pushreg	%rbp
	pushq	%rdi
	.seh_pushreg	%rdi
	pushq	%rsi
	.seh_pushreg	%rsi
	pushq	%rbx
	.seh_pushreg	%rbx
	subq	$56, %rsp
	.seh_stackalloc	56
	.seh_endprologue
	movq	8(%rcx), %rdi
	movq	(%rcx), %r13
	movq	%rdi, %rax
	subq	%r13, %rax
	movq	%rdx, %r12
	sarq	$3, %rax
	movq	%rcx, %rbx
	movq	%r8, %r15
	movabsq	$1152921504606846975, %rdx
	cmpq	%rdx, %rax
	je	.L1383
	movq	%r12, %r14
	subq	%r13, %r14
	testq	%rax, %rax
	je	.L1379
	movabsq	$9223372036854775800, %rbp
	leaq	(%rax,%rax), %rcx
	cmpq	%rcx, %rax
	jbe	.L1384
.L1371:
	movq	%rbp, %rcx
	call	_Znwy
	movq	%rax, %rsi
	addq	%rax, %rbp
.L1378:
	movq	(%r15), %rax
	leaq	8(%rsi,%r14), %r9
	subq	%r12, %rdi
	leaq	(%r9,%rdi), %r15
	movq	%rax, (%rsi,%r14)
	testq	%r14, %r14
	jg	.L1385
	testq	%rdi, %rdi
	jg	.L1374
	testq	%r13, %r13
	jne	.L1377
.L1375:
	vmovq	%rsi, %xmm1
	movq	%rbp, 16(%rbx)
	vpinsrq	$1, %r15, %xmm1, %xmm0
	vmovups	%xmm0, (%rbx)
	addq	$56, %rsp
	popq	%rbx
	popq	%rsi
	popq	%rdi
	popq	%rbp
	popq	%r12
	popq	%r13
	popq	%r14
	popq	%r15
	ret
	.p2align 4,,10
	.p2align 3
.L1385:
	movq	%r14, %r8
	movq	%r13, %rdx
	movq	%rsi, %rcx
	movq	%r9, 40(%rsp)
	call	memmove
	testq	%rdi, %rdi
	movq	40(%rsp), %r9
	jg	.L1374
.L1377:
	movq	%r13, %rcx
	call	_ZdlPv
	jmp	.L1375
	.p2align 4,,10
	.p2align 3
.L1384:
	testq	%rcx, %rcx
	jne	.L1372
	xorl	%ebp, %ebp
	xorl	%esi, %esi
	jmp	.L1378
	.p2align 4,,10
	.p2align 3
.L1374:
	movq	%rdi, %r8
	movq	%r12, %rdx
	movq	%r9, %rcx
	call	memcpy
	testq	%r13, %r13
	je	.L1375
	jmp	.L1377
	.p2align 4,,10
	.p2align 3
.L1379:
	movl	$8, %ebp
	jmp	.L1371
.L1383:
	leaq	.LC18(%rip), %rcx
	call	_ZSt20__throw_length_errorPKc
.L1372:
	cmpq	%rdx, %rcx
	cmovbe	%rcx, %rdx
	movq	%rdx, %rbp
	salq	$3, %rbp
	jmp	.L1371
	.seh_endproc
	.section	.text$_ZNSt10_HashtableISt10type_indexSt4pairIKS0_PN8pybind116detail9type_infoEESaIS7_ENSt8__detail10_Select1stESt8equal_toIS0_ESt4hashIS0_ENS9_18_Mod_range_hashingENS9_20_Default_ranged_hashENS9_20_Prime_rehash_policyENS9_17_Hashtable_traitsILb0ELb0ELb1EEEE4findERS2_,"x"
	.linkonce discard
	.align 2
	.p2align 4
	.globl	_ZNSt10_HashtableISt10type_indexSt4pairIKS0_PN8pybind116detail9type_infoEESaIS7_ENSt8__detail10_Select1stESt8equal_toIS0_ESt4hashIS0_ENS9_18_Mod_range_hashingENS9_20_Default_ranged_hashENS9_20_Prime_rehash_policyENS9_17_Hashtable_traitsILb0ELb0ELb1EEEE4findERS2_
	.def	_ZNSt10_HashtableISt10type_indexSt4pairIKS0_PN8pybind116detail9type_infoEESaIS7_ENSt8__detail10_Select1stESt8equal_toIS0_ESt4hashIS0_ENS9_18_Mod_range_hashingENS9_20_Default_ranged_hashENS9_20_Prime_rehash_policyENS9_17_Hashtable_traitsILb0ELb0ELb1EEEE4findERS2_;	.scl	2;	.type	32;	.endef
	.seh_proc	_ZNSt10_HashtableISt10type_indexSt4pairIKS0_PN8pybind116detail9type_infoEESaIS7_ENSt8__detail10_Select1stESt8equal_toIS0_ESt4hashIS0_ENS9_18_Mod_range_hashingENS9_20_Default_ranged_hashENS9_20_Prime_rehash_policyENS9_17_Hashtable_traitsILb0ELb0ELb1EEEE4findERS2_
_ZNSt10_HashtableISt10type_indexSt4pairIKS0_PN8pybind116detail9type_infoEESaIS7_ENSt8__detail10_Select1stESt8equal_toIS0_ESt4hashIS0_ENS9_18_Mod_range_hashingENS9_20_Default_ranged_hashENS9_20_Prime_rehash_policyENS9_17_Hashtable_traitsILb0ELb0ELb1EEEE4findERS2_:
.LFB14274:
	pushq	%r14
	.seh_pushreg	%r14
	pushq	%r13
	.seh_pushreg	%r13
	pushq	%r12
	.seh_pushreg	%r12
	pushq	%rbp
	.seh_pushreg	%rbp
	pushq	%rdi
	.seh_pushreg	%rdi
	pushq	%rsi
	.seh_pushreg	%rsi
	pushq	%rbx
	.seh_pushreg	%rbx
	subq	$32, %rsp
	.seh_stackalloc	32
	.seh_endprologue
	movq	(%rdx), %rax
	movq	%rcx, %rbx
	movq	%rdx, %rdi
	movq	8(%rax), %r12
	xorl	%eax, %eax
	cmpb	$42, (%r12)
	sete	%al
	addq	%rax, %r12
	movq	%r12, %rcx
	call	strlen
	movq	%r12, %rcx
	movl	$3339675911, %r8d
	movq	%rax, %rdx
	call	_ZSt11_Hash_bytesPKvyy
	xorl	%edx, %edx
	divq	8(%rbx)
	movq	(%rbx), %rax
	movq	(%rax,%rdx,8), %r12
	movq	%rdx, %rbp
	testq	%r12, %r12
	je	.L1388
	movq	(%r12), %rsi
	movl	$3339675911, %r13d
	.p2align 4,,10
	.p2align 3
.L1391:
	movq	8(%rsi), %rdx
	movq	(%rdi), %rcx
	call	_ZNKSt9type_infoeqERKS_
	testb	%al, %al
	jne	.L1389
	movq	(%rsi), %rax
	testq	%rax, %rax
	je	.L1388
	movq	8(%rax), %rax
	movq	8(%rbx), %r14
	movq	8(%rax), %r12
	xorl	%eax, %eax
	cmpb	$42, (%r12)
	sete	%al
	addq	%rax, %r12
	movq	%r12, %rcx
	call	strlen
	movq	%r13, %r8
	movq	%r12, %rcx
	movq	%rax, %rdx
	call	_ZSt11_Hash_bytesPKvyy
	xorl	%edx, %edx
	divq	%r14
	cmpq	%rdx, %rbp
	jne	.L1388
	movq	%rsi, %r12
	movq	(%rsi), %rsi
	jmp	.L1391
	.p2align 4,,10
	.p2align 3
.L1388:
	xorl	%eax, %eax
	jmp	.L1398
	.p2align 4,,10
	.p2align 3
.L1389:
	movq	(%r12), %rax
	testq	%rax, %rax
	je	.L1388
.L1398:
	addq	$32, %rsp
	popq	%rbx
	popq	%rsi
	popq	%rdi
	popq	%rbp
	popq	%r12
	popq	%r13
	popq	%r14
	ret
	.seh_handler	__gxx_personality_seh0, @unwind, @except
	.seh_handlerdata
.LLSDA14274:
	.byte	0xff
	.byte	0xff
	.byte	0x1
	.uleb128 .LLSDACSE14274-.LLSDACSB14274
.LLSDACSB14274:
.LLSDACSE14274:
	.section	.text$_ZNSt10_HashtableISt10type_indexSt4pairIKS0_PN8pybind116detail9type_infoEESaIS7_ENSt8__detail10_Select1stESt8equal_toIS0_ESt4hashIS0_ENS9_18_Mod_range_hashingENS9_20_Default_ranged_hashENS9_20_Prime_rehash_policyENS9_17_Hashtable_traitsILb0ELb0ELb1EEEE4findERS2_,"x"
	.linkonce discard
	.seh_endproc
	.section	.text$_ZNSt13_Bvector_baseISaIbEE13_M_deallocateEv,"x"
	.linkonce discard
	.align 2
	.p2align 4
	.globl	_ZNSt13_Bvector_baseISaIbEE13_M_deallocateEv
	.def	_ZNSt13_Bvector_baseISaIbEE13_M_deallocateEv;	.scl	2;	.type	32;	.endef
	.seh_proc	_ZNSt13_Bvector_baseISaIbEE13_M_deallocateEv
_ZNSt13_Bvector_baseISaIbEE13_M_deallocateEv:
.LFB14357:
	pushq	%rbx
	.seh_pushreg	%rbx
	subq	$32, %rsp
	.seh_stackalloc	32
	.seh_endprologue
	movq	%rcx, %rbx
	movq	(%rcx), %rcx
	testq	%rcx, %rcx
	je	.L1407
	call	_ZdlPv
	movq	$0, 16(%rbx)
	movl	$0, 24(%rbx)
	movq	$0, (%rbx)
	movl	$0, 8(%rbx)
	movq	$0, 32(%rbx)
.L1407:
	addq	$32, %rsp
	popq	%rbx
	ret
	.seh_endproc
	.section .rdata,"dr"
.LC19:
	.ascii "vector<bool>::_M_insert_aux\0"
	.section	.text$_ZNSt6vectorIbSaIbEE13_M_insert_auxESt13_Bit_iteratorb,"x"
	.linkonce discard
	.align 2
	.p2align 4
	.globl	_ZNSt6vectorIbSaIbEE13_M_insert_auxESt13_Bit_iteratorb
	.def	_ZNSt6vectorIbSaIbEE13_M_insert_auxESt13_Bit_iteratorb;	.scl	2;	.type	32;	.endef
	.seh_proc	_ZNSt6vectorIbSaIbEE13_M_insert_auxESt13_Bit_iteratorb
_ZNSt6vectorIbSaIbEE13_M_insert_auxESt13_Bit_iteratorb:
.LFB14442:
	pushq	%r15
	.seh_pushreg	%r15
	pushq	%r14
	.seh_pushreg	%r14
	pushq	%r13
	.seh_pushreg	%r13
	pushq	%r12
	.seh_pushreg	%r12
	pushq	%rbp
	.seh_pushreg	%rbp
	pushq	%rdi
	.seh_pushreg	%rdi
	pushq	%rsi
	.seh_pushreg	%rsi
	pushq	%rbx
	.seh_pushreg	%rbx
	subq	$56, %rsp
	.seh_stackalloc	56
	.seh_endprologue
	movl	24(%rcx), %eax
	movq	(%rdx), %rbp
	movl	8(%rdx), %esi
	movq	%rax, %r10
	movl	%r8d, %r13d
	movq	%rcx, %rbx
	movq	16(%rcx), %r8
	cmpq	32(%rcx), %r8
	je	.L1409
	leaq	1(%rax), %rdx
	movq	%r8, %r12
	movl	%r10d, %r9d
	movl	$1, %r14d
	movq	%rdx, %rcx
	andl	$31, %edx
	sarq	$5, %rcx
	leaq	(%r8,%rcx,4), %r11
	movq	%r8, %rcx
	subq	%rbp, %rcx
	leaq	(%rax,%rcx,8), %rax
	movl	%esi, %ecx
	subq	%rcx, %rax
	testq	%rax, %rax
	jle	.L1419
	.p2align 4,,10
	.p2align 3
.L1411:
	testl	%r9d, %r9d
	je	.L1414
.L1470:
	decl	%r9d
	shlx	%r9d, %r14d, %r15d
	testl	%edx, %edx
	je	.L1416
.L1471:
	decl	%edx
	shlx	%edx, %r14d, %ecx
.L1417:
	movl	(%r11), %edi
	testl	%r15d, (%r12)
	je	.L1418
	orl	%edi, %ecx
	movl	%ecx, (%r11)
	decq	%rax
	jne	.L1411
.L1419:
	movl	$1, %eax
	shlx	%esi, %eax, %esi
	movl	0(%rbp), %eax
	andn	%eax, %esi, %edx
	orl	%eax, %esi
	testb	%r13b, %r13b
	cmove	%edx, %esi
	movl	%esi, 0(%rbp)
	cmpl	$31, %r10d
	je	.L1469
	incl	%r10d
	movl	%r10d, 24(%rbx)
.L1467:
	addq	$56, %rsp
	popq	%rbx
	popq	%rsi
	popq	%rdi
	popq	%rbp
	popq	%r12
	popq	%r13
	popq	%r14
	popq	%r15
	ret
	.p2align 4,,10
	.p2align 3
.L1418:
	andn	%edi, %ecx, %ecx
	movl	%ecx, (%r11)
	decq	%rax
	je	.L1419
	testl	%r9d, %r9d
	jne	.L1470
.L1414:
	subq	$4, %r12
	movl	$-2147483648, %r15d
	movl	$31, %r9d
	testl	%edx, %edx
	jne	.L1471
.L1416:
	subq	$4, %r11
	movl	$-2147483648, %ecx
	movl	$31, %edx
	jmp	.L1417
	.p2align 4,,10
	.p2align 3
.L1469:
	addq	$4, %r8
	movl	$0, 24(%rbx)
	movq	%r8, 16(%rbx)
	jmp	.L1467
	.p2align 4,,10
	.p2align 3
.L1409:
	subq	(%rcx), %r8
	movabsq	$9223372036854775776, %rcx
	leaq	(%rax,%r8,8), %rax
	cmpq	%rcx, %rax
	je	.L1472
	movl	$4, %r12d
	testq	%rax, %rax
	je	.L1426
	movabsq	$1152921504606846972, %r12
	leaq	(%rax,%rax), %rdx
	cmpq	%rdx, %rax
	ja	.L1426
	cmpq	%rcx, %rdx
	cmovbe	%rdx, %rcx
	movq	%rcx, %r12
	addq	$31, %r12
	shrq	$5, %r12
	salq	$2, %r12
.L1426:
	movq	%r12, %rcx
	movq	%rbp, %rdi
	call	_Znwy
	movq	(%rbx), %r15
	movq	%rax, %r14
	subq	%r15, %rdi
	cmpq	%r15, %rbp
	je	.L1428
	movq	%rdi, %r8
	movq	%r15, %rdx
	movq	%rax, %rcx
	call	memmove
.L1428:
	movl	%esi, %r8d
	leaq	(%r14,%rdi), %rcx
	movq	%r8, 40(%rsp)
	testq	%r8, %r8
	je	.L1429
	movq	%rbp, %r10
	xorl	%edx, %edx
	movl	$1, %r11d
	jmp	.L1435
	.p2align 4,,10
	.p2align 3
.L1474:
	leal	1(%rdx), %r9d
	leal	2(%rdx), %edi
	shlx	%r9d, %r11d, %eax
	movl	%r9d, %edx
	decq	%r8
	je	.L1473
.L1435:
	movl	(%rcx), %eax
	shlx	%edx, %r11d, %r9d
	movl	%r9d, %edi
	orl	%eax, %edi
	andn	%eax, %r9d, %eax
	testl	%r9d, (%r10)
	cmovne	%edi, %eax
	movl	%eax, (%rcx)
	cmpl	$31, %edx
	jne	.L1474
	addq	$4, %r10
	addq	$4, %rcx
	movl	$1, %eax
	xorl	%edx, %edx
	movl	$1, %edi
	decq	%r8
	jne	.L1435
.L1473:
	movq	%rcx, %r8
	cmpl	$31, %edx
	je	.L1475
.L1436:
	movl	(%rcx), %edx
	movl	%eax, %r9d
	orl	%edx, %r9d
	andn	%edx, %eax, %eax
	testb	%r13b, %r13b
	movl	24(%rbx), %edx
	cmovne	%r9d, %eax
	movl	%eax, (%rcx)
	movq	16(%rbx), %rax
	subq	%rbp, %rax
	leaq	(%rdx,%rax,8), %rdx
	subq	40(%rsp), %rdx
	testq	%rdx, %rdx
	jle	.L1439
	movl	$1, %r9d
	jmp	.L1446
	.p2align 4,,10
	.p2align 3
.L1444:
	incl	%edi
	decq	%rdx
	je	.L1439
.L1446:
	movl	(%r8), %ecx
	shlx	%edi, %r9d, %eax
	movl	%eax, %r10d
	shlx	%esi, %r9d, %r11d
	orl	%ecx, %r10d
	andn	%ecx, %eax, %eax
	testl	%r11d, 0(%rbp)
	cmovne	%r10d, %eax
	movl	%eax, (%r8)
	cmpl	$31, %esi
	je	.L1476
	incl	%esi
.L1443:
	cmpl	$31, %edi
	jne	.L1444
	addq	$4, %r8
	xorl	%edi, %edi
	decq	%rdx
	jne	.L1446
.L1439:
	testq	%r15, %r15
	je	.L1447
	movq	%r15, %rcx
	movq	%r8, 40(%rsp)
	call	_ZdlPv
	movq	$0, 16(%rbx)
	movq	40(%rsp), %r8
	movl	$0, 24(%rbx)
	movq	$0, (%rbx)
	movl	$0, 8(%rbx)
.L1447:
	addq	%r14, %r12
	movq	%r14, (%rbx)
	movq	%r12, 32(%rbx)
	movl	$0, 8(%rbx)
	movq	%r8, 16(%rbx)
	movl	%edi, 24(%rbx)
	jmp	.L1467
	.p2align 4,,10
	.p2align 3
.L1476:
	addq	$4, %rbp
	xorl	%esi, %esi
	jmp	.L1443
	.p2align 4,,10
	.p2align 3
.L1475:
	leaq	4(%rcx), %r8
	xorl	%edi, %edi
	jmp	.L1436
	.p2align 4,,10
	.p2align 3
.L1429:
	movq	%rcx, %r8
	movl	$1, %eax
	movl	$1, %edi
	jmp	.L1436
.L1472:
	leaq	.LC19(%rip), %rcx
	call	_ZSt20__throw_length_errorPKc
	nop
	.seh_endproc
	.section	.text$_ZNSt6vectorIN8pybind116handleESaIS1_EE17_M_realloc_insertIJRKS1_EEEvN9__gnu_cxx17__normal_iteratorIPS1_S3_EEDpOT_,"x"
	.linkonce discard
	.align 2
	.p2align 4
	.globl	_ZNSt6vectorIN8pybind116handleESaIS1_EE17_M_realloc_insertIJRKS1_EEEvN9__gnu_cxx17__normal_iteratorIPS1_S3_EEDpOT_
	.def	_ZNSt6vectorIN8pybind116handleESaIS1_EE17_M_realloc_insertIJRKS1_EEEvN9__gnu_cxx17__normal_iteratorIPS1_S3_EEDpOT_;	.scl	2;	.type	32;	.endef
	.seh_proc	_ZNSt6vectorIN8pybind116handleESaIS1_EE17_M_realloc_insertIJRKS1_EEEvN9__gnu_cxx17__normal_iteratorIPS1_S3_EEDpOT_
_ZNSt6vectorIN8pybind116handleESaIS1_EE17_M_realloc_insertIJRKS1_EEEvN9__gnu_cxx17__normal_iteratorIPS1_S3_EEDpOT_:
.LFB14446:
	pushq	%r15
	.seh_pushreg	%r15
	pushq	%r14
	.seh_pushreg	%r14
	pushq	%r13
	.seh_pushreg	%r13
	pushq	%r12
	.seh_pushreg	%r12
	pushq	%rbp
	.seh_pushreg	%rbp
	pushq	%rdi
	.seh_pushreg	%rdi
	pushq	%rsi
	.seh_pushreg	%rsi
	pushq	%rbx
	.seh_pushreg	%rbx
	subq	$56, %rsp
	.seh_stackalloc	56
	.seh_endprologue
	movq	8(%rcx), %r14
	movq	(%rcx), %r12
	movq	%r14, %rax
	subq	%r12, %rax
	movq	%rdx, %r13
	sarq	$3, %rax
	movq	%rcx, %rdi
	movq	%r8, %r15
	movabsq	$1152921504606846975, %rdx
	cmpq	%rdx, %rax
	je	.L1507
	movq	%r13, %r8
	subq	%r12, %r8
	testq	%rax, %rax
	je	.L1489
	movabsq	$9223372036854775800, %rbp
	leaq	(%rax,%rax), %rcx
	cmpq	%rcx, %rax
	jbe	.L1508
.L1479:
	movq	%rbp, %rcx
	movq	%r8, 40(%rsp)
	call	_Znwy
	movq	40(%rsp), %r8
	movq	%rax, %rbx
	addq	%rax, %rbp
	leaq	8(%rax), %rsi
.L1488:
	movq	(%r15), %rax
	movq	%rax, (%rbx,%r8)
	cmpq	%r12, %r13
	je	.L1481
	leaq	-8(%r13), %r8
	leaq	31(%rbx), %rax
	subq	%r12, %r8
	subq	%r12, %rax
	movq	%r8, %rcx
	shrq	$3, %rcx
	cmpq	$62, %rax
	jbe	.L1491
	movabsq	$2305843009213693948, %rax
	testq	%rax, %rcx
	je	.L1491
	incq	%rcx
	xorl	%eax, %eax
	movq	%rcx, %rdx
	shrq	$2, %rdx
	salq	$5, %rdx
	.p2align 4,,10
	.p2align 3
.L1483:
	vmovdqu	(%r12,%rax), %ymm1
	vmovdqu	%ymm1, (%rbx,%rax)
	addq	$32, %rax
	cmpq	%rdx, %rax
	jne	.L1483
	movq	%rcx, %rdx
	andq	$-4, %rdx
	leaq	0(,%rdx,8), %rax
	leaq	(%r12,%rax), %r9
	addq	%rbx, %rax
	cmpq	%rdx, %rcx
	je	.L1505
	movq	(%r9), %rdx
	movq	%rdx, (%rax)
	leaq	8(%r9), %rdx
	cmpq	%rdx, %r13
	je	.L1505
	movq	8(%r9), %rdx
	movq	%rdx, 8(%rax)
	leaq	16(%r9), %rdx
	cmpq	%rdx, %r13
	je	.L1505
	movq	16(%r9), %rdx
	movq	%rdx, 16(%rax)
	vzeroupper
.L1485:
	leaq	16(%rbx,%r8), %rsi
.L1481:
	cmpq	%r14, %r13
	je	.L1486
	subq	%r13, %r14
	movq	%rsi, %rcx
	movq	%r13, %rdx
	movq	%r14, %r8
	addq	%r14, %rsi
	call	memcpy
.L1486:
	testq	%r12, %r12
	je	.L1487
	movq	%r12, %rcx
	call	_ZdlPv
.L1487:
	vmovq	%rbx, %xmm2
	movq	%rbp, 16(%rdi)
	vpinsrq	$1, %rsi, %xmm2, %xmm0
	vmovups	%xmm0, (%rdi)
	addq	$56, %rsp
	popq	%rbx
	popq	%rsi
	popq	%rdi
	popq	%rbp
	popq	%r12
	popq	%r13
	popq	%r14
	popq	%r15
	ret
	.p2align 4,,10
	.p2align 3
.L1508:
	testq	%rcx, %rcx
	jne	.L1480
	movl	$8, %esi
	xorl	%ebp, %ebp
	xorl	%ebx, %ebx
	jmp	.L1488
	.p2align 4,,10
	.p2align 3
.L1505:
	vzeroupper
	jmp	.L1485
	.p2align 4,,10
	.p2align 3
.L1489:
	movl	$8, %ebp
	jmp	.L1479
	.p2align 4,,10
	.p2align 3
.L1491:
	movq	%rbx, %rdx
	movq	%r12, %rax
	.p2align 4,,10
	.p2align 3
.L1482:
	movq	(%rax), %rcx
	addq	$8, %rax
	addq	$8, %rdx
	movq	%rcx, -8(%rdx)
	cmpq	%rax, %r13
	jne	.L1482
	jmp	.L1485
.L1480:
	cmpq	%rdx, %rcx
	cmovbe	%rcx, %rdx
	movq	%rdx, %rbp
	salq	$3, %rbp
	jmp	.L1479
.L1507:
	leaq	.LC18(%rip), %rcx
	call	_ZSt20__throw_length_errorPKc
	nop
	.seh_endproc
	.section	.text$_ZNSt6vectorIP7_objectSaIS1_EE17_M_realloc_insertIJS1_EEEvN9__gnu_cxx17__normal_iteratorIPS1_S3_EEDpOT_,"x"
	.linkonce discard
	.align 2
	.p2align 4
	.globl	_ZNSt6vectorIP7_objectSaIS1_EE17_M_realloc_insertIJS1_EEEvN9__gnu_cxx17__normal_iteratorIPS1_S3_EEDpOT_
	.def	_ZNSt6vectorIP7_objectSaIS1_EE17_M_realloc_insertIJS1_EEEvN9__gnu_cxx17__normal_iteratorIPS1_S3_EEDpOT_;	.scl	2;	.type	32;	.endef
	.seh_proc	_ZNSt6vectorIP7_objectSaIS1_EE17_M_realloc_insertIJS1_EEEvN9__gnu_cxx17__normal_iteratorIPS1_S3_EEDpOT_
_ZNSt6vectorIP7_objectSaIS1_EE17_M_realloc_insertIJS1_EEEvN9__gnu_cxx17__normal_iteratorIPS1_S3_EEDpOT_:
.LFB15027:
	pushq	%r15
	.seh_pushreg	%r15
	pushq	%r14
	.seh_pushreg	%r14
	pushq	%r13
	.seh_pushreg	%r13
	pushq	%r12
	.seh_pushreg	%r12
	pushq	%rbp
	.seh_pushreg	%rbp
	pushq	%rdi
	.seh_pushreg	%rdi
	pushq	%rsi
	.seh_pushreg	%rsi
	pushq	%rbx
	.seh_pushreg	%rbx
	subq	$56, %rsp
	.seh_stackalloc	56
	.seh_endprologue
	movq	8(%rcx), %rdi
	movq	(%rcx), %r13
	movq	%rdi, %rax
	subq	%r13, %rax
	movq	%rdx, %r12
	sarq	$3, %rax
	movq	%rcx, %rbx
	movq	%r8, %r15
	movabsq	$1152921504606846975, %rdx
	cmpq	%rdx, %rax
	je	.L1523
	movq	%r12, %r14
	subq	%r13, %r14
	testq	%rax, %rax
	je	.L1519
	movabsq	$9223372036854775800, %rbp
	leaq	(%rax,%rax), %rcx
	cmpq	%rcx, %rax
	jbe	.L1524
.L1511:
	movq	%rbp, %rcx
	call	_Znwy
	movq	%rax, %rsi
	addq	%rax, %rbp
.L1518:
	movq	(%r15), %rax
	leaq	8(%rsi,%r14), %r9
	subq	%r12, %rdi
	leaq	(%r9,%rdi), %r15
	movq	%rax, (%rsi,%r14)
	testq	%r14, %r14
	jg	.L1525
	testq	%rdi, %rdi
	jg	.L1514
	testq	%r13, %r13
	jne	.L1517
.L1515:
	vmovq	%rsi, %xmm1
	movq	%rbp, 16(%rbx)
	vpinsrq	$1, %r15, %xmm1, %xmm0
	vmovups	%xmm0, (%rbx)
	addq	$56, %rsp
	popq	%rbx
	popq	%rsi
	popq	%rdi
	popq	%rbp
	popq	%r12
	popq	%r13
	popq	%r14
	popq	%r15
	ret
	.p2align 4,,10
	.p2align 3
.L1525:
	movq	%r14, %r8
	movq	%r13, %rdx
	movq	%rsi, %rcx
	movq	%r9, 40(%rsp)
	call	memmove
	testq	%rdi, %rdi
	movq	40(%rsp), %r9
	jg	.L1514
.L1517:
	movq	%r13, %rcx
	call	_ZdlPv
	jmp	.L1515
	.p2align 4,,10
	.p2align 3
.L1524:
	testq	%rcx, %rcx
	jne	.L1512
	xorl	%ebp, %ebp
	xorl	%esi, %esi
	jmp	.L1518
	.p2align 4,,10
	.p2align 3
.L1514:
	movq	%rdi, %r8
	movq	%r12, %rdx
	movq	%r9, %rcx
	call	memcpy
	testq	%r13, %r13
	je	.L1515
	jmp	.L1517
	.p2align 4,,10
	.p2align 3
.L1519:
	movl	$8, %ebp
	jmp	.L1511
.L1523:
	leaq	.LC18(%rip), %rcx
	call	_ZSt20__throw_length_errorPKc
.L1512:
	cmpq	%rdx, %rcx
	cmovbe	%rcx, %rdx
	movq	%rdx, %rbp
	salq	$3, %rbp
	jmp	.L1511
	.seh_endproc
	.section	.text$_ZNSt6vectorIP11_typeobjectSaIS1_EE17_M_realloc_insertIJS1_EEEvN9__gnu_cxx17__normal_iteratorIPS1_S3_EEDpOT_,"x"
	.linkonce discard
	.align 2
	.p2align 4
	.globl	_ZNSt6vectorIP11_typeobjectSaIS1_EE17_M_realloc_insertIJS1_EEEvN9__gnu_cxx17__normal_iteratorIPS1_S3_EEDpOT_
	.def	_ZNSt6vectorIP11_typeobjectSaIS1_EE17_M_realloc_insertIJS1_EEEvN9__gnu_cxx17__normal_iteratorIPS1_S3_EEDpOT_;	.scl	2;	.type	32;	.endef
