	.file	"python_submodule.cpp"
	.text
	.section	.text$pybind11_static_get,"x"
	.linkonce discard
	.p2align 4
	.globl	pybind11_static_get
	.def	pybind11_static_get;	.scl	2;	.type	32;	.endef
	.seh_proc	pybind11_static_get
pybind11_static_get:
.LFB10833:
	.seh_endprologue
	movq	__imp_PyProperty_Type(%rip), %rax
	movq	272(%rax), %rax
	movq	%r8, %rdx
	rex.W jmp	*%rax
	.seh_endproc
	.section	.text$pybind11_static_set,"x"
	.linkonce discard
	.p2align 4
	.globl	pybind11_static_set
	.def	pybind11_static_set;	.scl	2;	.type	32;	.endef
	.seh_proc	pybind11_static_set
pybind11_static_set:
.LFB10834:
	.seh_endprologue
	movq	8(%rdx), %rax
	movl	168(%rax), %r9d
	testl	%r9d, %r9d
	cmovns	%rax, %rdx
	movq	__imp_PyProperty_Type(%rip), %rax
	rex.W jmp	*280(%rax)
	.seh_endproc
	.text
	.p2align 4
	.def	_ZN9HistogramIyhE10accumulateIhEEvPT_y._omp_fn.0;	.scl	3;	.type	32;	.endef
	.seh_proc	_ZN9HistogramIyhE10accumulateIhEEvPT_y._omp_fn.0
_ZN9HistogramIyhE10accumulateIhEEvPT_y._omp_fn.0:
.LFB17038:
	pushq	%rbp
	.seh_pushreg	%rbp
	pushq	%r13
	.seh_pushreg	%r13
	pushq	%r12
	.seh_pushreg	%r12
	pushq	%rdi
	.seh_pushreg	%rdi
	pushq	%rsi
	.seh_pushreg	%rsi
	pushq	%rbx
	.seh_pushreg	%rbx
	subq	$40, %rsp
	.seh_stackalloc	40
	leaq	128(%rsp), %rbp
	.seh_setframe	%rbp, 128
	.seh_endprologue
	movq	8(%rcx), %r12
	movq	16(%rcx), %rbx
	movq	(%rcx), %rdi
	call	_Z22manage_thread_affinityv
	subq	$2048, %rsp
	xorl	%edx, %edx
	movl	$2048, %r8d
	leaq	32(%rsp), %rsi
	movq	%rsi, %rcx
	call	memset
	testq	%r12, %r12
	jne	.L6
	.p2align 4,,10
	.p2align 3
.L9:
	call	GOMP_atomic_start
	xorl	%eax, %eax
	.p2align 4,,10
	.p2align 3
.L7:
	vmovdqu	(%rbx,%rax), %ymm1
	vpaddq	(%rsi,%rax), %ymm1, %ymm0
	vmovdqu	%ymm0, (%rbx,%rax)
	addq	$32, %rax
	cmpq	$2048, %rax
	jne	.L7
	vzeroupper
	call	GOMP_atomic_end
	jmp	.L14
.L6:
	call	omp_get_num_threads
	movl	%eax, %r13d
	call	omp_get_thread_num
	movslq	%r13d, %r8
	xorl	%edx, %edx
	movslq	%eax, %rcx
	movq	%r12, %rax
	divq	%r8
	movq	%rax, %r12
	cmpq	%rdx, %rcx
	jb	.L8
.L11:
	imulq	%r12, %rcx
	addq	%rcx, %rdx
	addq	%rdx, %r12
	cmpq	%r12, %rdx
	jnb	.L9
	leaq	(%rdi,%rdx), %rax
	addq	%r12, %rdi
	.p2align 4,,10
	.p2align 3
.L10:
	movzbl	(%rax), %edx
	incq	%rax
	incq	(%rsi,%rdx,8)
	cmpq	%rdi, %rax
	jne	.L10
	jmp	.L9
.L8:
	incq	%r12
	xorl	%edx, %edx
	jmp	.L11
.L14:
	leaq	-88(%rbp), %rsp
	popq	%rbx
	popq	%rsi
	popq	%rdi
	popq	%r12
	popq	%r13
	popq	%rbp
	ret
	.def	__gxx_personality_seh0;	.scl	2;	.type	32;	.endef
	.seh_handler	__gxx_personality_seh0, @unwind, @except
	.seh_handlerdata
.LLSDA17038:
	.byte	0xff
	.byte	0xff
	.byte	0x1
	.uleb128 .LLSDACSE17038-.LLSDACSB17038
.LLSDACSB17038:
.LLSDACSE17038:
	.text
	.seh_endproc
	.p2align 4
	.def	_ZN9HistogramIytE10accumulateItEEvPT_y._omp_fn.0;	.scl	3;	.type	32;	.endef
	.seh_proc	_ZN9HistogramIytE10accumulateItEEvPT_y._omp_fn.0
_ZN9HistogramIytE10accumulateItEEvPT_y._omp_fn.0:
.LFB17039:
	pushq	%rbp
	.seh_pushreg	%rbp
	pushq	%r15
	.seh_pushreg	%r15
	pushq	%r14
	.seh_pushreg	%r14
	pushq	%r13
	.seh_pushreg	%r13
	pushq	%r12
	.seh_pushreg	%r12
	pushq	%rdi
	.seh_pushreg	%rdi
	pushq	%rsi
	.seh_pushreg	%rsi
	pushq	%rbx
	.seh_pushreg	%rbx
	subq	$56, %rsp
	.seh_stackalloc	56
	leaq	128(%rsp), %rbp
	.seh_setframe	%rbp, 128
	.seh_endprologue
	movq	8(%rcx), %rax
	movl	24(%rcx), %ebx
	movq	16(%rcx), %rsi
	movl	28(%rcx), %r15d
	movq	%rax, -88(%rbp)
	movq	(%rcx), %rax
	movq	%rax, -96(%rbp)
	call	_Z22manage_thread_affinityv
	movl	$1, %edx
	shlx	%ebx, %edx, %edx
	movslq	%edx, %r13
	leaq	15(,%r13,8), %rax
	leaq	-1(%r13), %r14
	andq	$-16, %rax
	call	___chkstk_ms
	subq	%rax, %rsp
	leaq	32(%rsp), %rbx
	movq	%rbx, %rdi
	cmpl	$6, %edx
	jbe	.L28
	leaq	-4(%r13), %rdx
	xorl	%eax, %eax
	vpxor	%xmm0, %xmm0, %xmm0
	shrq	$2, %rdx
	incq	%rdx
	.p2align 4,,10
	.p2align 3
.L17:
	movq	%rax, %r9
	incq	%rax
	salq	$5, %r9
	vmovdqu	%ymm0, (%rbx,%r9)
	cmpq	%rax, %rdx
	ja	.L17
	leaq	0(,%rdx,4), %rax
	salq	$5, %rdx
	addq	%rbx, %rdx
	cmpq	%rax, %r13
	je	.L35
	leaq	1(%rax), %r9
	movq	$0, (%rdx)
	cmpq	%r9, %r14
	jb	.L36
	addq	$2, %rax
	movq	$0, 8(%rdx)
	cmpq	%rax, %r14
	jb	.L37
	movq	$0, 16(%rdx)
	vzeroupper
	jmp	.L19
	.p2align 4,,10
	.p2align 3
.L28:
	xorl	%eax, %eax
	.p2align 4,,10
	.p2align 3
.L16:
	movq	$0, (%rbx,%rax,8)
	incq	%rax
	cmpq	%rax, %r14
	jnb	.L16
	jmp	.L19
	.p2align 4,,10
	.p2align 3
.L35:
	vzeroupper
	jmp	.L19
.L36:
	vzeroupper
	jmp	.L19
.L37:
	vzeroupper
	.p2align 4,,10
	.p2align 3
.L19:
	cmpq	$0, -88(%rbp)
	jne	.L20
	.p2align 4,,10
	.p2align 3
.L25:
	call	GOMP_atomic_start
	cmpq	$2, %r14
	jbe	.L29
	leaq	-4(%r13), %rcx
	xorl	%eax, %eax
	xorl	%edx, %edx
	shrq	$2, %rcx
	incq	%rcx
	.p2align 4,,10
	.p2align 3
.L22:
	vmovdqu	(%rbx,%rax), %ymm1
	vpaddq	(%rsi,%rax), %ymm1, %ymm0
	incq	%rdx
	vmovdqu	%ymm0, (%rsi,%rax)
	addq	$32, %rax
	cmpq	%rcx, %rdx
	jb	.L22
	movq	%rcx, %rax
	leaq	0(,%rcx,4), %rdx
	salq	$5, %rax
	leaq	(%rbx,%rax), %rdi
	addq	%rax, %rsi
	cmpq	%rdx, %r13
	jne	.L38
	vzeroupper
	jmp	.L23
	.p2align 4,,10
	.p2align 3
.L29:
	xorl	%edx, %edx
	jmp	.L21
	.p2align 4,,10
	.p2align 3
.L38:
	vzeroupper
.L21:
	movq	(%rdi), %rax
	addq	%rax, (%rsi)
	leaq	1(%rdx), %rax
	cmpq	%rax, %r14
	jb	.L23
	addq	$2, %rdx
	movq	8(%rdi), %rax
	addq	%rax, 8(%rsi)
	cmpq	%rdx, %r14
	jb	.L23
	movq	16(%rdi), %rax
	addq	%rax, 16(%rsi)
.L23:
	call	GOMP_atomic_end
	jmp	.L34
	.p2align 4,,10
	.p2align 3
.L20:
	call	omp_get_num_threads
	movslq	%eax, %r12
	call	omp_get_thread_num
	xorl	%edx, %edx
	movslq	%eax, %r9
	movq	-88(%rbp), %rax
	divq	%r12
	cmpq	%rdx, %r9
	jb	.L24
.L27:
	imulq	%rax, %r9
	addq	%r9, %rdx
	addq	%rdx, %rax
	cmpq	%rax, %rdx
	jnb	.L25
	movq	-96(%rbp), %rcx
	leaq	(%rcx,%rdx,2), %rdx
	leaq	(%rcx,%rax,2), %r9
	.p2align 4,,10
	.p2align 3
.L26:
	movzwl	(%rdx), %eax
	addq	$2, %rdx
	sarx	%r15d, %eax, %eax
	cltq
	incq	(%rbx,%rax,8)
	cmpq	%r9, %rdx
	jne	.L26
	jmp	.L25
	.p2align 4,,10
	.p2align 3
.L24:
	incq	%rax
	xorl	%edx, %edx
	jmp	.L27
	.p2align 4,,10
	.p2align 3
.L34:
	leaq	-72(%rbp), %rsp
	popq	%rbx
	popq	%rsi
	popq	%rdi
	popq	%r12
	popq	%r13
	popq	%r14
	popq	%r15
	popq	%rbp
	ret
	.seh_handler	__gxx_personality_seh0, @unwind, @except
	.seh_handlerdata
.LLSDA17039:
	.byte	0xff
	.byte	0xff
	.byte	0x1
	.uleb128 .LLSDACSE17039-.LLSDACSB17039
.LLSDACSB17039:
.LLSDACSE17039:
	.text
	.seh_endproc
	.p2align 4
	.def	_ZN9HistogramIyaE10accumulateIaEEvPT_y._omp_fn.0;	.scl	3;	.type	32;	.endef
	.seh_proc	_ZN9HistogramIyaE10accumulateIaEEvPT_y._omp_fn.0
_ZN9HistogramIyaE10accumulateIaEEvPT_y._omp_fn.0:
.LFB17040:
	pushq	%rbp
	.seh_pushreg	%rbp
	pushq	%r13
	.seh_pushreg	%r13
	pushq	%r12
	.seh_pushreg	%r12
	pushq	%rdi
	.seh_pushreg	%rdi
	pushq	%rsi
	.seh_pushreg	%rsi
	pushq	%rbx
	.seh_pushreg	%rbx
	subq	$40, %rsp
	.seh_stackalloc	40
	leaq	128(%rsp), %rbp
	.seh_setframe	%rbp, 128
	.seh_endprologue
	movq	(%rcx), %r12
	movq	16(%rcx), %rdi
	movq	8(%rcx), %rbx
	call	_Z22manage_thread_affinityv
	subq	$2048, %rsp
	xorl	%edx, %edx
	movl	$2048, %r8d
	leaq	32(%rsp), %rsi
	movq	%rsi, %rcx
	call	memset
	testq	%r12, %r12
	jne	.L40
	.p2align 4,,10
	.p2align 3
.L43:
	call	GOMP_atomic_start
	xorl	%eax, %eax
	.p2align 4,,10
	.p2align 3
.L41:
	vmovdqu	(%rbx,%rax), %ymm1
	vpaddq	(%rsi,%rax), %ymm1, %ymm0
	vmovdqu	%ymm0, (%rbx,%rax)
	addq	$32, %rax
	cmpq	$2048, %rax
	jne	.L41
	vzeroupper
	call	GOMP_atomic_end
	jmp	.L48
.L40:
	call	omp_get_num_threads
	movl	%eax, %r13d
	call	omp_get_thread_num
	movslq	%r13d, %r8
	xorl	%edx, %edx
	movslq	%eax, %rcx
	movq	%r12, %rax
	divq	%r8
	movq	%rax, %r12
	cmpq	%rdx, %rcx
	jb	.L42
.L45:
	imulq	%r12, %rcx
	addq	%rcx, %rdx
	addq	%rdx, %r12
	cmpq	%r12, %rdx
	jnb	.L43
	leaq	(%rdi,%rdx), %rax
	addq	%r12, %rdi
	.p2align 4,,10
	.p2align 3
.L44:
	movzbl	(%rax), %edx
	incq	%rax
	incq	(%rsi,%rdx,8)
	cmpq	%rdi, %rax
	jne	.L44
	jmp	.L43
.L42:
	incq	%r12
	xorl	%edx, %edx
	jmp	.L45
.L48:
	leaq	-88(%rbp), %rsp
	popq	%rbx
	popq	%rsi
	popq	%rdi
	popq	%r12
	popq	%r13
	popq	%rbp
	ret
	.seh_handler	__gxx_personality_seh0, @unwind, @except
	.seh_handlerdata
.LLSDA17040:
	.byte	0xff
	.byte	0xff
	.byte	0x1
	.uleb128 .LLSDACSE17040-.LLSDACSB17040
.LLSDACSB17040:
.LLSDACSE17040:
	.text
	.seh_endproc
	.p2align 4
	.def	_ZN9HistogramIysE10accumulateIsEEvPT_y._omp_fn.0;	.scl	3;	.type	32;	.endef
	.seh_proc	_ZN9HistogramIysE10accumulateIsEEvPT_y._omp_fn.0
_ZN9HistogramIysE10accumulateIsEEvPT_y._omp_fn.0:
.LFB17041:
	pushq	%rbp
	.seh_pushreg	%rbp
	pushq	%r15
	.seh_pushreg	%r15
	pushq	%r14
	.seh_pushreg	%r14
	pushq	%r13
	.seh_pushreg	%r13
	pushq	%r12
	.seh_pushreg	%r12
	pushq	%rdi
	.seh_pushreg	%rdi
	pushq	%rsi
	.seh_pushreg	%rsi
	pushq	%rbx
	.seh_pushreg	%rbx
	subq	$56, %rsp
	.seh_stackalloc	56
	leaq	128(%rsp), %rbp
	.seh_setframe	%rbp, 128
	.seh_endprologue
	movq	16(%rcx), %rax
	movl	24(%rcx), %ebx
	movq	8(%rcx), %rsi
	movl	28(%rcx), %r15d
	movq	%rax, -96(%rbp)
	movq	(%rcx), %rax
	movq	%rax, -88(%rbp)
	call	_Z22manage_thread_affinityv
	movl	$1, %edx
	shlx	%ebx, %edx, %edx
	movslq	%edx, %r13
	leaq	15(,%r13,8), %rax
	leaq	-1(%r13), %r14
	andq	$-16, %rax
	call	___chkstk_ms
	subq	%rax, %rsp
	leaq	32(%rsp), %rbx
	movq	%rbx, %rdi
	cmpl	$6, %edx
	jbe	.L62
	leaq	-4(%r13), %rdx
	xorl	%eax, %eax
	vpxor	%xmm0, %xmm0, %xmm0
	shrq	$2, %rdx
	incq	%rdx
	.p2align 4,,10
	.p2align 3
.L51:
	movq	%rax, %r9
	incq	%rax
	salq	$5, %r9
	vmovdqu	%ymm0, (%rbx,%r9)
	cmpq	%rax, %rdx
	ja	.L51
	leaq	0(,%rdx,4), %rax
	salq	$5, %rdx
	addq	%rbx, %rdx
	cmpq	%rax, %r13
	je	.L69
	leaq	1(%rax), %r9
	movq	$0, (%rdx)
	cmpq	%r9, %r14
	jb	.L70
	addq	$2, %rax
	movq	$0, 8(%rdx)
	cmpq	%rax, %r14
	jb	.L71
	movq	$0, 16(%rdx)
	vzeroupper
	jmp	.L53
	.p2align 4,,10
	.p2align 3
.L62:
	xorl	%eax, %eax
	.p2align 4,,10
	.p2align 3
.L50:
	movq	$0, (%rbx,%rax,8)
	incq	%rax
	cmpq	%rax, %r14
	jnb	.L50
	jmp	.L53
	.p2align 4,,10
	.p2align 3
.L69:
	vzeroupper
	jmp	.L53
.L70:
	vzeroupper
	jmp	.L53
.L71:
	vzeroupper
	.p2align 4,,10
	.p2align 3
.L53:
	cmpq	$0, -88(%rbp)
	jne	.L54
	.p2align 4,,10
	.p2align 3
.L59:
	call	GOMP_atomic_start
	cmpq	$2, %r14
	jbe	.L63
	leaq	-4(%r13), %rcx
	xorl	%eax, %eax
	xorl	%edx, %edx
	shrq	$2, %rcx
	incq	%rcx
	.p2align 4,,10
	.p2align 3
.L56:
	vmovdqu	(%rbx,%rax), %ymm1
	vpaddq	(%rsi,%rax), %ymm1, %ymm0
	incq	%rdx
	vmovdqu	%ymm0, (%rsi,%rax)
	addq	$32, %rax
	cmpq	%rcx, %rdx
	jb	.L56
	movq	%rcx, %rax
	leaq	0(,%rcx,4), %rdx
	salq	$5, %rax
	leaq	(%rbx,%rax), %rdi
	addq	%rax, %rsi
	cmpq	%rdx, %r13
	jne	.L72
	vzeroupper
	jmp	.L57
	.p2align 4,,10
	.p2align 3
.L63:
	xorl	%edx, %edx
	jmp	.L55
	.p2align 4,,10
	.p2align 3
.L72:
	vzeroupper
.L55:
	movq	(%rdi), %rax
	addq	%rax, (%rsi)
	leaq	1(%rdx), %rax
	cmpq	%rax, %r14
	jb	.L57
	addq	$2, %rdx
	movq	8(%rdi), %rax
	addq	%rax, 8(%rsi)
	cmpq	%rdx, %r14
	jb	.L57
	movq	16(%rdi), %rax
	addq	%rax, 16(%rsi)
.L57:
	call	GOMP_atomic_end
	jmp	.L68
	.p2align 4,,10
	.p2align 3
.L54:
	call	omp_get_num_threads
	movslq	%eax, %r12
	call	omp_get_thread_num
	xorl	%edx, %edx
	movslq	%eax, %r9
	movq	-88(%rbp), %rax
	divq	%r12
	cmpq	%rdx, %r9
	jb	.L58
.L61:
	imulq	%rax, %r9
	addq	%r9, %rdx
	addq	%rdx, %rax
	cmpq	%rax, %rdx
	jnb	.L59
	movq	-96(%rbp), %rcx
	leaq	(%rcx,%rdx,2), %rdx
	leaq	(%rcx,%rax,2), %r9
	.p2align 4,,10
	.p2align 3
.L60:
	movzwl	(%rdx), %eax
	addq	$2, %rdx
	sarx	%r15d, %eax, %eax
	cltq
	incq	(%rbx,%rax,8)
	cmpq	%r9, %rdx
	jne	.L60
	jmp	.L59
	.p2align 4,,10
	.p2align 3
.L58:
	incq	%rax
	xorl	%edx, %edx
	jmp	.L61
	.p2align 4,,10
	.p2align 3
.L68:
	leaq	-72(%rbp), %rsp
	popq	%rbx
	popq	%rsi
	popq	%rdi
	popq	%r12
	popq	%r13
	popq	%r14
	popq	%r15
	popq	%rbp
	ret
	.seh_handler	__gxx_personality_seh0, @unwind, @except
	.seh_handlerdata
.LLSDA17041:
	.byte	0xff
	.byte	0xff
	.byte	0x1
	.uleb128 .LLSDACSE17041-.LLSDACSB17041
.LLSDACSB17041:
.LLSDACSE17041:
	.text
	.seh_endproc
	.p2align 4
	.def	_ZN9HistogramIjhE10accumulateIhEEvPT_y._omp_fn.0;	.scl	3;	.type	32;	.endef
	.seh_proc	_ZN9HistogramIjhE10accumulateIhEEvPT_y._omp_fn.0
_ZN9HistogramIjhE10accumulateIhEEvPT_y._omp_fn.0:
.LFB17044:
	pushq	%rbp
	.seh_pushreg	%rbp
	pushq	%r13
	.seh_pushreg	%r13
	pushq	%r12
	.seh_pushreg	%r12
	pushq	%rdi
	.seh_pushreg	%rdi
	pushq	%rsi
	.seh_pushreg	%rsi
	pushq	%rbx
	.seh_pushreg	%rbx
	subq	$40, %rsp
	.seh_stackalloc	40
	leaq	128(%rsp), %rbp
	.seh_setframe	%rbp, 128
	.seh_endprologue
	movq	8(%rcx), %r12
	movq	16(%rcx), %rbx
	movq	(%rcx), %rsi
	call	_Z22manage_thread_affinityv
	subq	$1024, %rsp
	xorl	%edx, %edx
	movl	$1024, %r8d
	leaq	32(%rsp), %rdi
	movq	%rdi, %rcx
	call	memset
	testq	%r12, %r12
	jne	.L74
	.p2align 4,,10
	.p2align 3
.L77:
	call	GOMP_atomic_start
	xorl	%eax, %eax
	.p2align 4,,10
	.p2align 3
.L75:
	vmovdqu	(%rbx,%rax), %ymm1
	vpaddd	(%rdi,%rax), %ymm1, %ymm0
	vmovdqu	%ymm0, (%rbx,%rax)
	addq	$32, %rax
	cmpq	$1024, %rax
	jne	.L75
	vzeroupper
	call	GOMP_atomic_end
	jmp	.L82
.L74:
	call	omp_get_num_threads
	movl	%eax, %r13d
	call	omp_get_thread_num
	movslq	%r13d, %r8
	xorl	%edx, %edx
	movslq	%eax, %rcx
	movq	%r12, %rax
	divq	%r8
	movq	%rax, %r12
	cmpq	%rdx, %rcx
	jb	.L76
.L79:
	imulq	%r12, %rcx
	addq	%rcx, %rdx
	addq	%rdx, %r12
	cmpq	%r12, %rdx
	jnb	.L77
	leaq	(%rsi,%rdx), %rax
	addq	%r12, %rsi
	.p2align 4,,10
	.p2align 3
.L78:
	movzbl	(%rax), %edx
	incq	%rax
	incl	(%rdi,%rdx,4)
	cmpq	%rsi, %rax
	jne	.L78
	jmp	.L77
.L76:
	incq	%r12
	xorl	%edx, %edx
	jmp	.L79
.L82:
	leaq	-88(%rbp), %rsp
	popq	%rbx
	popq	%rsi
	popq	%rdi
	popq	%r12
	popq	%r13
	popq	%rbp
	ret
	.seh_handler	__gxx_personality_seh0, @unwind, @except
	.seh_handlerdata
.LLSDA17044:
	.byte	0xff
	.byte	0xff
	.byte	0x1
	.uleb128 .LLSDACSE17044-.LLSDACSB17044
.LLSDACSB17044:
.LLSDACSE17044:
	.text
	.seh_endproc
	.p2align 4
	.def	_ZN9HistogramIjtE10accumulateItEEvPT_y._omp_fn.0;	.scl	3;	.type	32;	.endef
	.seh_proc	_ZN9HistogramIjtE10accumulateItEEvPT_y._omp_fn.0
_ZN9HistogramIjtE10accumulateItEEvPT_y._omp_fn.0:
.LFB17045:
	pushq	%rbp
	.seh_pushreg	%rbp
	pushq	%r15
	.seh_pushreg	%r15
	pushq	%r14
	.seh_pushreg	%r14
	pushq	%r13
	.seh_pushreg	%r13
	pushq	%r12
	.seh_pushreg	%r12
	pushq	%rdi
	.seh_pushreg	%rdi
	pushq	%rsi
	.seh_pushreg	%rsi
	pushq	%rbx
	.seh_pushreg	%rbx
	subq	$56, %rsp
	.seh_stackalloc	56
	leaq	128(%rsp), %rbp
	.seh_setframe	%rbp, 128
	.seh_endprologue
	movq	8(%rcx), %rax
	movl	24(%rcx), %ebx
	movq	16(%rcx), %rsi
	movl	28(%rcx), %r15d
	movq	%rax, -88(%rbp)
	movq	(%rcx), %rax
	movq	%rax, -96(%rbp)
	call	_Z22manage_thread_affinityv
	movl	$1, %edx
	shlx	%ebx, %edx, %edx
	movslq	%edx, %r14
	leaq	15(,%r14,4), %rax
	leaq	-1(%r14), %rdi
	andq	$-16, %rax
	call	___chkstk_ms
	subq	%rax, %rsp
	leaq	32(%rsp), %rbx
	movq	%rbx, %r12
	cmpl	$7, %edx
	jbe	.L96
	leaq	-8(%r14), %rdx
	xorl	%eax, %eax
	vpxor	%xmm0, %xmm0, %xmm0
	shrq	$3, %rdx
	incq	%rdx
	.p2align 4,,10
	.p2align 3
.L85:
	movq	%rax, %r9
	incq	%rax
	salq	$5, %r9
	vmovdqu	%ymm0, (%rbx,%r9)
	cmpq	%rax, %rdx
	ja	.L85
	leaq	0(,%rdx,8), %rax
	salq	$5, %rdx
	addq	%rbx, %rdx
	cmpq	%rax, %r14
	je	.L103
	leaq	1(%rax), %r9
	movl	$0, (%rdx)
	cmpq	%r9, %rdi
	jb	.L104
	leaq	2(%rax), %r9
	movl	$0, 4(%rdx)
	cmpq	%r9, %rdi
	jb	.L105
	leaq	3(%rax), %r9
	movl	$0, 8(%rdx)
	cmpq	%r9, %rdi
	jb	.L106
	leaq	4(%rax), %r9
	movl	$0, 12(%rdx)
	cmpq	%r9, %rdi
	jb	.L107
	leaq	5(%rax), %r9
	movl	$0, 16(%rdx)
	cmpq	%r9, %rdi
	jb	.L108
	addq	$6, %rax
	movl	$0, 20(%rdx)
	cmpq	%rax, %rdi
	jb	.L109
	movl	$0, 24(%rdx)
	vzeroupper
	jmp	.L87
	.p2align 4,,10
	.p2align 3
.L96:
	xorl	%eax, %eax
	.p2align 4,,10
	.p2align 3
.L84:
	movl	$0, (%rbx,%rax,4)
	incq	%rax
	cmpq	%rax, %rdi
	jnb	.L84
	jmp	.L87
	.p2align 4,,10
	.p2align 3
.L103:
	vzeroupper
	jmp	.L87
.L104:
	vzeroupper
	jmp	.L87
.L105:
	vzeroupper
	jmp	.L87
.L106:
	vzeroupper
	jmp	.L87
.L107:
	vzeroupper
	jmp	.L87
.L108:
	vzeroupper
	jmp	.L87
.L109:
	vzeroupper
	.p2align 4,,10
	.p2align 3
.L87:
	cmpq	$0, -88(%rbp)
	jne	.L88
	.p2align 4,,10
	.p2align 3
.L93:
	call	GOMP_atomic_start
	cmpq	$6, %rdi
	jbe	.L97
	leaq	-8(%r14), %rcx
	xorl	%eax, %eax
	xorl	%edx, %edx
	shrq	$3, %rcx
	incq	%rcx
	.p2align 4,,10
	.p2align 3
.L90:
	vmovdqu	(%rbx,%rax), %ymm1
	vpaddd	(%rsi,%rax), %ymm1, %ymm0
	incq	%rdx
	vmovdqu	%ymm0, (%rsi,%rax)
	addq	$32, %rax
	cmpq	%rcx, %rdx
	jb	.L90
	movq	%rcx, %rax
	leaq	0(,%rcx,8), %rdx
	salq	$5, %rax
	leaq	(%rbx,%rax), %r12
	addq	%rax, %rsi
	cmpq	%rdx, %r14
	jne	.L110
	vzeroupper
	jmp	.L91
	.p2align 4,,10
	.p2align 3
.L97:
	xorl	%edx, %edx
	jmp	.L89
	.p2align 4,,10
	.p2align 3
.L110:
	vzeroupper
.L89:
	movl	(%r12), %eax
	addl	%eax, (%rsi)
	leaq	1(%rdx), %rax
	cmpq	%rax, %rdi
	jb	.L91
	movl	4(%r12), %eax
	addl	%eax, 4(%rsi)
	leaq	2(%rdx), %rax
	cmpq	%rax, %rdi
	jb	.L91
	movl	8(%r12), %eax
	addl	%eax, 8(%rsi)
	leaq	3(%rdx), %rax
	cmpq	%rax, %rdi
	jb	.L91
	movl	12(%r12), %eax
	addl	%eax, 12(%rsi)
	leaq	4(%rdx), %rax
	cmpq	%rax, %rdi
	jb	.L91
	movl	16(%r12), %eax
	addl	%eax, 16(%rsi)
	leaq	5(%rdx), %rax
	cmpq	%rax, %rdi
	jb	.L91
	addq	$6, %rdx
	movl	20(%r12), %eax
	addl	%eax, 20(%rsi)
	cmpq	%rdx, %rdi
	jb	.L91
	movl	24(%r12), %eax
	addl	%eax, 24(%rsi)
.L91:
	call	GOMP_atomic_end
	jmp	.L102
	.p2align 4,,10
	.p2align 3
.L88:
	call	omp_get_num_threads
	movslq	%eax, %r13
	call	omp_get_thread_num
	xorl	%edx, %edx
	movslq	%eax, %r9
	movq	-88(%rbp), %rax
	divq	%r13
	cmpq	%rdx, %r9
	jb	.L92
.L95:
	imulq	%rax, %r9
	addq	%r9, %rdx
	addq	%rdx, %rax
	cmpq	%rax, %rdx
	jnb	.L93
	movq	-96(%rbp), %rcx
	leaq	(%rcx,%rdx,2), %rdx
	leaq	(%rcx,%rax,2), %r9
	.p2align 4,,10
	.p2align 3
.L94:
	movzwl	(%rdx), %eax
	addq	$2, %rdx
	sarx	%r15d, %eax, %eax
	cltq
	incl	(%rbx,%rax,4)
	cmpq	%r9, %rdx
	jne	.L94
	jmp	.L93
	.p2align 4,,10
	.p2align 3
.L92:
	incq	%rax
	xorl	%edx, %edx
	jmp	.L95
	.p2align 4,,10
	.p2align 3
.L102:
	leaq	-72(%rbp), %rsp
	popq	%rbx
	popq	%rsi
	popq	%rdi
	popq	%r12
	popq	%r13
	popq	%r14
	popq	%r15
	popq	%rbp
	ret
	.seh_handler	__gxx_personality_seh0, @unwind, @except
	.seh_handlerdata
.LLSDA17045:
	.byte	0xff
	.byte	0xff
	.byte	0x1
	.uleb128 .LLSDACSE17045-.LLSDACSB17045
.LLSDACSB17045:
.LLSDACSE17045:
	.text
	.seh_endproc
	.p2align 4
	.def	_ZN9HistogramIjaE10accumulateIaEEvPT_y._omp_fn.0;	.scl	3;	.type	32;	.endef
	.seh_proc	_ZN9HistogramIjaE10accumulateIaEEvPT_y._omp_fn.0
_ZN9HistogramIjaE10accumulateIaEEvPT_y._omp_fn.0:
.LFB17046:
	pushq	%rbp
	.seh_pushreg	%rbp
	pushq	%r13
	.seh_pushreg	%r13
	pushq	%r12
	.seh_pushreg	%r12
	pushq	%rdi
	.seh_pushreg	%rdi
	pushq	%rsi
	.seh_pushreg	%rsi
	pushq	%rbx
	.seh_pushreg	%rbx
	subq	$40, %rsp
	.seh_stackalloc	40
	leaq	128(%rsp), %rbp
	.seh_setframe	%rbp, 128
	.seh_endprologue
	movq	(%rcx), %r12
	movq	16(%rcx), %rsi
	movq	8(%rcx), %rbx
	call	_Z22manage_thread_affinityv
	subq	$1024, %rsp
	xorl	%edx, %edx
	movl	$1024, %r8d
	leaq	32(%rsp), %rdi
	movq	%rdi, %rcx
	call	memset
	testq	%r12, %r12
	jne	.L112
	.p2align 4,,10
	.p2align 3
.L115:
	call	GOMP_atomic_start
	xorl	%eax, %eax
	.p2align 4,,10
	.p2align 3
.L113:
	vmovdqu	(%rbx,%rax), %ymm1
	vpaddd	(%rdi,%rax), %ymm1, %ymm0
	vmovdqu	%ymm0, (%rbx,%rax)
	addq	$32, %rax
	cmpq	$1024, %rax
	jne	.L113
	vzeroupper
	call	GOMP_atomic_end
	jmp	.L120
.L112:
	call	omp_get_num_threads
	movl	%eax, %r13d
	call	omp_get_thread_num
	movslq	%r13d, %r8
	xorl	%edx, %edx
	movslq	%eax, %rcx
	movq	%r12, %rax
	divq	%r8
	movq	%rax, %r12
	cmpq	%rdx, %rcx
	jb	.L114
.L117:
	imulq	%r12, %rcx
	addq	%rcx, %rdx
	addq	%rdx, %r12
	cmpq	%r12, %rdx
	jnb	.L115
	leaq	(%rsi,%rdx), %rax
	addq	%r12, %rsi
	.p2align 4,,10
	.p2align 3
.L116:
	movzbl	(%rax), %edx
	incq	%rax
	incl	(%rdi,%rdx,4)
	cmpq	%rsi, %rax
	jne	.L116
	jmp	.L115
.L114:
	incq	%r12
	xorl	%edx, %edx
	jmp	.L117
.L120:
	leaq	-88(%rbp), %rsp
	popq	%rbx
	popq	%rsi
	popq	%rdi
	popq	%r12
	popq	%r13
	popq	%rbp
	ret
	.seh_handler	__gxx_personality_seh0, @unwind, @except
	.seh_handlerdata
.LLSDA17046:
	.byte	0xff
	.byte	0xff
	.byte	0x1
	.uleb128 .LLSDACSE17046-.LLSDACSB17046
.LLSDACSB17046:
.LLSDACSE17046:
	.text
	.seh_endproc
	.p2align 4
	.def	_ZN9HistogramIjsE10accumulateIsEEvPT_y._omp_fn.0;	.scl	3;	.type	32;	.endef
	.seh_proc	_ZN9HistogramIjsE10accumulateIsEEvPT_y._omp_fn.0
_ZN9HistogramIjsE10accumulateIsEEvPT_y._omp_fn.0:
.LFB17047:
	pushq	%rbp
	.seh_pushreg	%rbp
	pushq	%r15
	.seh_pushreg	%r15
	pushq	%r14
	.seh_pushreg	%r14
	pushq	%r13
	.seh_pushreg	%r13
	pushq	%r12
	.seh_pushreg	%r12
	pushq	%rdi
	.seh_pushreg	%rdi
	pushq	%rsi
	.seh_pushreg	%rsi
	pushq	%rbx
	.seh_pushreg	%rbx
	subq	$56, %rsp
	.seh_stackalloc	56
	leaq	128(%rsp), %rbp
	.seh_setframe	%rbp, 128
	.seh_endprologue
	movq	16(%rcx), %rax
	movl	24(%rcx), %ebx
	movq	8(%rcx), %rsi
	movl	28(%rcx), %r15d
	movq	%rax, -96(%rbp)
	movq	(%rcx), %rax
	movq	%rax, -88(%rbp)
	call	_Z22manage_thread_affinityv
	movl	$1, %edx
	shlx	%ebx, %edx, %edx
	movslq	%edx, %r14
	leaq	15(,%r14,4), %rax
	leaq	-1(%r14), %rdi
	andq	$-16, %rax
	call	___chkstk_ms
	subq	%rax, %rsp
	leaq	32(%rsp), %rbx
	movq	%rbx, %r12
	cmpl	$7, %edx
	jbe	.L134
	leaq	-8(%r14), %rdx
	xorl	%eax, %eax
	vpxor	%xmm0, %xmm0, %xmm0
	shrq	$3, %rdx
	incq	%rdx
	.p2align 4,,10
	.p2align 3
.L123:
	movq	%rax, %r9
	incq	%rax
	salq	$5, %r9
	vmovdqu	%ymm0, (%rbx,%r9)
	cmpq	%rax, %rdx
	ja	.L123
	leaq	0(,%rdx,8), %rax
	salq	$5, %rdx
	addq	%rbx, %rdx
	cmpq	%rax, %r14
	je	.L141
	leaq	1(%rax), %r9
	movl	$0, (%rdx)
	cmpq	%r9, %rdi
	jb	.L142
	leaq	2(%rax), %r9
	movl	$0, 4(%rdx)
	cmpq	%r9, %rdi
	jb	.L143
	leaq	3(%rax), %r9
	movl	$0, 8(%rdx)
	cmpq	%r9, %rdi
	jb	.L144
	leaq	4(%rax), %r9
	movl	$0, 12(%rdx)
	cmpq	%r9, %rdi
	jb	.L145
	leaq	5(%rax), %r9
	movl	$0, 16(%rdx)
	cmpq	%r9, %rdi
	jb	.L146
	addq	$6, %rax
	movl	$0, 20(%rdx)
	cmpq	%rax, %rdi
	jb	.L147
	movl	$0, 24(%rdx)
	vzeroupper
	jmp	.L125
	.p2align 4,,10
	.p2align 3
.L134:
	xorl	%eax, %eax
	.p2align 4,,10
	.p2align 3
.L122:
	movl	$0, (%rbx,%rax,4)
	incq	%rax
	cmpq	%rax, %rdi
	jnb	.L122
	jmp	.L125
	.p2align 4,,10
	.p2align 3
.L141:
	vzeroupper
	jmp	.L125
.L142:
	vzeroupper
	jmp	.L125
.L143:
	vzeroupper
	jmp	.L125
.L144:
	vzeroupper
	jmp	.L125
.L145:
	vzeroupper
	jmp	.L125
.L146:
	vzeroupper
	jmp	.L125
.L147:
	vzeroupper
	.p2align 4,,10
	.p2align 3
.L125:
	cmpq	$0, -88(%rbp)
	jne	.L126
	.p2align 4,,10
	.p2align 3
.L131:
	call	GOMP_atomic_start
	cmpq	$6, %rdi
	jbe	.L135
	leaq	-8(%r14), %rcx
	xorl	%eax, %eax
	xorl	%edx, %edx
	shrq	$3, %rcx
	incq	%rcx
	.p2align 4,,10
	.p2align 3
.L128:
	vmovdqu	(%rbx,%rax), %ymm1
	vpaddd	(%rsi,%rax), %ymm1, %ymm0
	incq	%rdx
	vmovdqu	%ymm0, (%rsi,%rax)
	addq	$32, %rax
	cmpq	%rcx, %rdx
	jb	.L128
	movq	%rcx, %rax
	leaq	0(,%rcx,8), %rdx
	salq	$5, %rax
	leaq	(%rbx,%rax), %r12
	addq	%rax, %rsi
	cmpq	%rdx, %r14
	jne	.L148
	vzeroupper
	jmp	.L129
	.p2align 4,,10
	.p2align 3
.L135:
	xorl	%edx, %edx
	jmp	.L127
	.p2align 4,,10
	.p2align 3
.L148:
	vzeroupper
.L127:
	movl	(%r12), %eax
	addl	%eax, (%rsi)
	leaq	1(%rdx), %rax
	cmpq	%rax, %rdi
	jb	.L129
	movl	4(%r12), %eax
	addl	%eax, 4(%rsi)
	leaq	2(%rdx), %rax
	cmpq	%rax, %rdi
	jb	.L129
	movl	8(%r12), %eax
	addl	%eax, 8(%rsi)
	leaq	3(%rdx), %rax
	cmpq	%rax, %rdi
	jb	.L129
	movl	12(%r12), %eax
	addl	%eax, 12(%rsi)
	leaq	4(%rdx), %rax
	cmpq	%rax, %rdi
	jb	.L129
	movl	16(%r12), %eax
	addl	%eax, 16(%rsi)
	leaq	5(%rdx), %rax
	cmpq	%rax, %rdi
	jb	.L129
	addq	$6, %rdx
	movl	20(%r12), %eax
	addl	%eax, 20(%rsi)
	cmpq	%rdx, %rdi
	jb	.L129
	movl	24(%r12), %eax
	addl	%eax, 24(%rsi)
.L129:
	call	GOMP_atomic_end
	jmp	.L140
	.p2align 4,,10
	.p2align 3
.L126:
	call	omp_get_num_threads
	movslq	%eax, %r13
	call	omp_get_thread_num
	xorl	%edx, %edx
	movslq	%eax, %r9
	movq	-88(%rbp), %rax
	divq	%r13
	cmpq	%rdx, %r9
	jb	.L130
.L133:
	imulq	%rax, %r9
	addq	%r9, %rdx
	addq	%rdx, %rax
	cmpq	%rax, %rdx
	jnb	.L131
	movq	-96(%rbp), %rcx
	leaq	(%rcx,%rdx,2), %rdx
	leaq	(%rcx,%rax,2), %r9
	.p2align 4,,10
	.p2align 3
.L132:
	movzwl	(%rdx), %eax
	addq	$2, %rdx
	sarx	%r15d, %eax, %eax
	cltq
	incl	(%rbx,%rax,4)
	cmpq	%r9, %rdx
	jne	.L132
	jmp	.L131
	.p2align 4,,10
	.p2align 3
.L130:
	incq	%rax
	xorl	%edx, %edx
	jmp	.L133
	.p2align 4,,10
	.p2align 3
.L140:
	leaq	-72(%rbp), %rsp
	popq	%rbx
	popq	%rsi
	popq	%rdi
	popq	%r12
	popq	%r13
	popq	%r14
	popq	%r15
	popq	%rbp
	ret
	.seh_handler	__gxx_personality_seh0, @unwind, @except
	.seh_handlerdata
.LLSDA17047:
	.byte	0xff
	.byte	0xff
	.byte	0x1
	.uleb128 .LLSDACSE17047-.LLSDACSB17047
.LLSDACSB17047:
.LLSDACSE17047:
	.text
	.seh_endproc
	.p2align 4
	.def	_ZN9HistogramIthE10accumulateIhEEvPT_y._omp_fn.0;	.scl	3;	.type	32;	.endef
	.seh_proc	_ZN9HistogramIthE10accumulateIhEEvPT_y._omp_fn.0
_ZN9HistogramIthE10accumulateIhEEvPT_y._omp_fn.0:
.LFB17050:
	pushq	%rbp
	.seh_pushreg	%rbp
	pushq	%r13
	.seh_pushreg	%r13
	pushq	%r12
	.seh_pushreg	%r12
	pushq	%rdi
	.seh_pushreg	%rdi
	pushq	%rsi
	.seh_pushreg	%rsi
	pushq	%rbx
	.seh_pushreg	%rbx
	subq	$40, %rsp
	.seh_stackalloc	40
	leaq	128(%rsp), %rbp
	.seh_setframe	%rbp, 128
	.seh_endprologue
	movq	16(%rcx), %rbx
	movq	8(%rcx), %r13
	movq	(%rcx), %rsi
	call	_Z22manage_thread_affinityv
	subq	$512, %rsp
	movl	$64, %ecx
	xorl	%eax, %eax
	leaq	32(%rsp), %r12
	movq	%r12, %rdi
	rep stosq
	testq	%r13, %r13
	jne	.L150
	.p2align 4,,10
	.p2align 3
.L152:
	call	GOMP_atomic_start
	vmovdqu	(%rbx), %ymm1
	vpaddw	(%r12), %ymm1, %ymm0
	vmovdqu	32(%r12), %ymm2
	vmovdqu	64(%r12), %ymm3
	vmovdqu	%ymm0, (%rbx)
	vpaddw	32(%rbx), %ymm2, %ymm0
	vmovdqu	96(%rbx), %ymm4
	vmovdqu	128(%rbx), %ymm5
	vmovdqu	160(%rbx), %ymm1
	vmovdqu	%ymm0, 32(%rbx)
	vpaddw	64(%rbx), %ymm3, %ymm0
	vmovdqu	192(%rbx), %ymm2
	vmovdqu	224(%rbx), %ymm3
	vmovdqu	%ymm0, 64(%rbx)
	vpaddw	96(%r12), %ymm4, %ymm0
	vmovdqu	256(%rbx), %ymm4
	vmovdqu	%ymm0, 96(%rbx)
	vpaddw	128(%r12), %ymm5, %ymm0
	vmovdqu	288(%rbx), %ymm5
	vmovdqu	%ymm0, 128(%rbx)
	vpaddw	160(%r12), %ymm1, %ymm0
	vmovdqu	320(%rbx), %ymm1
	vmovdqu	%ymm0, 160(%rbx)
	vpaddw	192(%r12), %ymm2, %ymm0
	vmovdqu	%ymm0, 192(%rbx)
	vpaddw	224(%r12), %ymm3, %ymm0
	vmovdqu	%ymm0, 224(%rbx)
	vpaddw	256(%r12), %ymm4, %ymm0
	vmovdqu	%ymm0, 256(%rbx)
	vpaddw	288(%r12), %ymm5, %ymm0
	vmovdqu	%ymm0, 288(%rbx)
	vpaddw	320(%r12), %ymm1, %ymm0
	vmovdqu	%ymm0, 320(%rbx)
	vmovdqu	352(%rbx), %ymm2
	vpaddw	352(%r12), %ymm2, %ymm0
	vmovdqu	384(%rbx), %ymm3
	vmovdqu	416(%rbx), %ymm4
	vmovdqu	%ymm0, 352(%rbx)
	vmovdqu	448(%rbx), %ymm5
	vpaddw	384(%r12), %ymm3, %ymm0
	vmovdqu	%ymm0, 384(%rbx)
	vpaddw	416(%r12), %ymm4, %ymm0
	vmovdqu	%ymm0, 416(%rbx)
	vpaddw	448(%r12), %ymm5, %ymm0
	vmovdqu	%ymm0, 448(%rbx)
	vmovdqu	480(%r12), %ymm0
	vpaddw	480(%rbx), %ymm0, %ymm0
	vmovdqu	%ymm0, 480(%rbx)
	vzeroupper
	call	GOMP_atomic_end
	jmp	.L156
.L150:
	call	omp_get_num_threads
	movl	%eax, %edi
	call	omp_get_thread_num
	movslq	%edi, %r8
	xorl	%edx, %edx
	movslq	%eax, %rcx
	movq	%r13, %rax
	divq	%r8
	movq	%rax, %r13
	cmpq	%rdx, %rcx
	jb	.L151
.L154:
	imulq	%r13, %rcx
	addq	%rcx, %rdx
	addq	%rdx, %r13
	cmpq	%r13, %rdx
	jnb	.L152
	leaq	(%rsi,%rdx), %rax
	addq	%r13, %rsi
	.p2align 4,,10
	.p2align 3
.L153:
	movzbl	(%rax), %edx
	incq	%rax
	incw	(%r12,%rdx,2)
	cmpq	%rsi, %rax
	jne	.L153
	jmp	.L152
.L151:
	incq	%r13
	xorl	%edx, %edx
	jmp	.L154
	.p2align 4,,10
	.p2align 3
.L156:
	leaq	-88(%rbp), %rsp
	popq	%rbx
	popq	%rsi
	popq	%rdi
	popq	%r12
	popq	%r13
	popq	%rbp
	ret
	.seh_handler	__gxx_personality_seh0, @unwind, @except
	.seh_handlerdata
.LLSDA17050:
	.byte	0xff
	.byte	0xff
	.byte	0x1
	.uleb128 .LLSDACSE17050-.LLSDACSB17050
.LLSDACSB17050:
.LLSDACSE17050:
	.text
	.seh_endproc
	.p2align 4
	.def	_ZN9HistogramIttE10accumulateItEEvPT_y._omp_fn.0;	.scl	3;	.type	32;	.endef
	.seh_proc	_ZN9HistogramIttE10accumulateItEEvPT_y._omp_fn.0
_ZN9HistogramIttE10accumulateItEEvPT_y._omp_fn.0:
.LFB17051:
	pushq	%rbp
	.seh_pushreg	%rbp
	pushq	%r15
	.seh_pushreg	%r15
	pushq	%r14
	.seh_pushreg	%r14
	pushq	%r13
	.seh_pushreg	%r13
	pushq	%r12
	.seh_pushreg	%r12
	pushq	%rdi
	.seh_pushreg	%rdi
	pushq	%rsi
	.seh_pushreg	%rsi
	pushq	%rbx
	.seh_pushreg	%rbx
	subq	$56, %rsp
	.seh_stackalloc	56
	leaq	128(%rsp), %rbp
	.seh_setframe	%rbp, 128
	.seh_endprologue
	movq	8(%rcx), %rax
	movl	24(%rcx), %esi
	movq	16(%rcx), %rbx
	movl	28(%rcx), %r15d
	movq	%rax, -88(%rbp)
	movq	(%rcx), %rax
	movq	%rax, -96(%rbp)
	call	_Z22manage_thread_affinityv
	movl	$1, %edx
	shlx	%esi, %edx, %edx
	movslq	%edx, %r12
	leaq	15(%r12,%r12), %rax
	leaq	-1(%r12), %rdi
	andq	$-16, %rax
	call	___chkstk_ms
	subq	%rax, %rsp
	leaq	32(%rsp), %rsi
	movq	%rsi, %r13
	cmpl	$15, %edx
	jbe	.L170
	leaq	-16(%r12), %rdx
	xorl	%eax, %eax
	vpxor	%xmm0, %xmm0, %xmm0
	shrq	$4, %rdx
	incq	%rdx
	.p2align 4,,10
	.p2align 3
.L159:
	movq	%rax, %r9
	incq	%rax
	salq	$5, %r9
	vmovdqu	%ymm0, (%rsi,%r9)
	cmpq	%rax, %rdx
	ja	.L159
	movq	%rdx, %rax
	salq	$5, %rdx
	salq	$4, %rax
	addq	%rsi, %rdx
	cmpq	%rax, %r12
	je	.L177
	xorl	%r9d, %r9d
	movw	%r9w, (%rdx)
	leaq	1(%rax), %r9
	cmpq	%r9, %rdi
	jb	.L178
	xorl	%r8d, %r8d
	leaq	2(%rax), %r9
	movw	%r8w, 2(%rdx)
	cmpq	%r9, %rdi
	jb	.L179
	xorl	%ecx, %ecx
	leaq	3(%rax), %r9
	movw	%cx, 4(%rdx)
	cmpq	%r9, %rdi
	jb	.L180
	xorl	%r14d, %r14d
	leaq	4(%rax), %r9
	movw	%r14w, 6(%rdx)
	cmpq	%r9, %rdi
	jb	.L181
	xorl	%r11d, %r11d
	leaq	5(%rax), %r9
	movw	%r11w, 8(%rdx)
	cmpq	%r9, %rdi
	jb	.L182
	xorl	%r10d, %r10d
	leaq	6(%rax), %r9
	movw	%r10w, 10(%rdx)
	cmpq	%r9, %rdi
	jb	.L183
	xorl	%r9d, %r9d
	movw	%r9w, 12(%rdx)
	leaq	7(%rax), %r9
	cmpq	%r9, %rdi
	jb	.L184
	xorl	%r8d, %r8d
	leaq	8(%rax), %r9
	movw	%r8w, 14(%rdx)
	cmpq	%r9, %rdi
	jb	.L185
	xorl	%ecx, %ecx
	leaq	9(%rax), %r9
	movw	%cx, 16(%rdx)
	cmpq	%r9, %rdi
	jb	.L186
	xorl	%r14d, %r14d
	leaq	10(%rax), %r9
	movw	%r14w, 18(%rdx)
	cmpq	%r9, %rdi
	jb	.L187
	xorl	%r11d, %r11d
	leaq	11(%rax), %r9
	movw	%r11w, 20(%rdx)
	cmpq	%r9, %rdi
	jb	.L188
	xorl	%r10d, %r10d
	leaq	12(%rax), %r9
	movw	%r10w, 22(%rdx)
	cmpq	%r9, %rdi
	jb	.L189
	xorl	%r9d, %r9d
	movw	%r9w, 24(%rdx)
	leaq	13(%rax), %r9
	cmpq	%r9, %rdi
	jb	.L190
	xorl	%r8d, %r8d
	addq	$14, %rax
	movw	%r8w, 26(%rdx)
	cmpq	%rax, %rdi
	jb	.L191
	xorl	%ecx, %ecx
	movw	%cx, 28(%rdx)
	vzeroupper
	jmp	.L161
	.p2align 4,,10
	.p2align 3
.L170:
	xorl	%eax, %eax
	.p2align 4,,10
	.p2align 3
.L158:
	xorl	%edx, %edx
	movw	%dx, (%rsi,%rax,2)
	incq	%rax
	cmpq	%rax, %rdi
	jnb	.L158
	jmp	.L161
.L177:
	vzeroupper
	jmp	.L161
.L178:
	vzeroupper
	jmp	.L161
.L179:
	vzeroupper
	jmp	.L161
.L180:
	vzeroupper
	jmp	.L161
.L181:
	vzeroupper
	jmp	.L161
.L182:
	vzeroupper
	jmp	.L161
.L183:
	vzeroupper
	jmp	.L161
.L184:
	vzeroupper
	jmp	.L161
.L185:
	vzeroupper
	jmp	.L161
.L186:
	vzeroupper
	jmp	.L161
.L187:
	vzeroupper
	jmp	.L161
.L188:
	vzeroupper
	jmp	.L161
.L189:
	vzeroupper
	jmp	.L161
.L190:
	vzeroupper
	jmp	.L161
.L191:
	vzeroupper
	.p2align 4,,10
	.p2align 3
.L161:
	cmpq	$0, -88(%rbp)
	jne	.L162
	.p2align 4,,10
	.p2align 3
.L167:
	call	GOMP_atomic_start
	cmpq	$14, %rdi
	jbe	.L171
	leaq	-16(%r12), %r8
	xorl	%eax, %eax
	xorl	%edx, %edx
	shrq	$4, %r8
	incq	%r8
	.p2align 4,,10
	.p2align 3
.L164:
	vmovdqu	(%rsi,%rax), %ymm1
	vpaddw	(%rbx,%rax), %ymm1, %ymm0
	incq	%rdx
	vmovdqu	%ymm0, (%rbx,%rax)
	addq	$32, %rax
	cmpq	%r8, %rdx
	jb	.L164
	movq	%r8, %rax
	salq	$5, %r8
	salq	$4, %rax
	leaq	(%rsi,%r8), %r13
	addq	%r8, %rbx
	cmpq	%rax, %r12
	jne	.L192
	vzeroupper
	jmp	.L165
	.p2align 4,,10
	.p2align 3
.L171:
	xorl	%eax, %eax
	jmp	.L163
	.p2align 4,,10
	.p2align 3
.L192:
	vzeroupper
.L163:
	movzwl	0(%r13), %edx
	addw	%dx, (%rbx)
	leaq	1(%rax), %rdx
	cmpq	%rdx, %rdi
	jb	.L165
	movzwl	2(%r13), %edx
	addw	%dx, 2(%rbx)
	leaq	2(%rax), %rdx
	cmpq	%rdx, %rdi
	jb	.L165
	movzwl	4(%r13), %edx
	addw	%dx, 4(%rbx)
	leaq	3(%rax), %rdx
	cmpq	%rdx, %rdi
	jb	.L165
	movzwl	6(%r13), %edx
	addw	%dx, 6(%rbx)
	leaq	4(%rax), %rdx
	cmpq	%rdx, %rdi
	jb	.L165
	movzwl	8(%r13), %edx
	addw	%dx, 8(%rbx)
	leaq	5(%rax), %rdx
	cmpq	%rdx, %rdi
	jb	.L165
	movzwl	10(%r13), %edx
	addw	%dx, 10(%rbx)
	leaq	6(%rax), %rdx
	cmpq	%rdx, %rdi
	jb	.L165
	movzwl	12(%r13), %edx
	addw	%dx, 12(%rbx)
	leaq	7(%rax), %rdx
	cmpq	%rdx, %rdi
	jb	.L165
	movzwl	14(%r13), %edx
	addw	%dx, 14(%rbx)
	leaq	8(%rax), %rdx
	cmpq	%rdx, %rdi
	jb	.L165
	movzwl	16(%r13), %edx
	addw	%dx, 16(%rbx)
	leaq	9(%rax), %rdx
	cmpq	%rdx, %rdi
	jb	.L165
	movzwl	18(%r13), %edx
	addw	%dx, 18(%rbx)
	leaq	10(%rax), %rdx
	cmpq	%rdx, %rdi
	jb	.L165
	movzwl	20(%r13), %edx
	addw	%dx, 20(%rbx)
	leaq	11(%rax), %rdx
	cmpq	%rdx, %rdi
	jb	.L165
	movzwl	22(%r13), %edx
	addw	%dx, 22(%rbx)
	leaq	12(%rax), %rdx
	cmpq	%rdx, %rdi
	jb	.L165
	movzwl	24(%r13), %edx
	addw	%dx, 24(%rbx)
	leaq	13(%rax), %rdx
	cmpq	%rdx, %rdi
	jb	.L165
	addq	$14, %rax
	movzwl	26(%r13), %edx
	addw	%dx, 26(%rbx)
	cmpq	%rax, %rdi
	jb	.L165
	movzwl	28(%r13), %eax
	addw	%ax, 28(%rbx)
	.p2align 4,,10
	.p2align 3
.L165:
	call	GOMP_atomic_end
	jmp	.L176
	.p2align 4,,10
	.p2align 3
.L162:
	call	omp_get_num_threads
	movslq	%eax, %r14
	call	omp_get_thread_num
	xorl	%edx, %edx
	movslq	%eax, %r9
	movq	-88(%rbp), %rax
	divq	%r14
	cmpq	%rdx, %r9
	jb	.L166
.L169:
	imulq	%rax, %r9
	addq	%r9, %rdx
	addq	%rdx, %rax
	cmpq	%rax, %rdx
	jnb	.L167
	movq	-96(%rbp), %rcx
	leaq	(%rcx,%rdx,2), %rdx
	leaq	(%rcx,%rax,2), %r9
	.p2align 4,,10
	.p2align 3
.L168:
	movzwl	(%rdx), %eax
	addq	$2, %rdx
	sarx	%r15d, %eax, %eax
	cltq
	incw	(%rsi,%rax,2)
	cmpq	%r9, %rdx
	jne	.L168
	jmp	.L167
	.p2align 4,,10
	.p2align 3
.L166:
	incq	%rax
	xorl	%edx, %edx
	jmp	.L169
	.p2align 4,,10
	.p2align 3
.L176:
	leaq	-72(%rbp), %rsp
	popq	%rbx
	popq	%rsi
	popq	%rdi
	popq	%r12
	popq	%r13
	popq	%r14
	popq	%r15
	popq	%rbp
	ret
	.seh_handler	__gxx_personality_seh0, @unwind, @except
	.seh_handlerdata
.LLSDA17051:
	.byte	0xff
	.byte	0xff
	.byte	0x1
	.uleb128 .LLSDACSE17051-.LLSDACSB17051
.LLSDACSB17051:
.LLSDACSE17051:
	.text
	.seh_endproc
	.p2align 4
	.def	_ZN9HistogramItaE10accumulateIaEEvPT_y._omp_fn.0;	.scl	3;	.type	32;	.endef
	.seh_proc	_ZN9HistogramItaE10accumulateIaEEvPT_y._omp_fn.0
_ZN9HistogramItaE10accumulateIaEEvPT_y._omp_fn.0:
.LFB17052:
	pushq	%rbp
	.seh_pushreg	%rbp
	pushq	%r13
	.seh_pushreg	%r13
	pushq	%r12
	.seh_pushreg	%r12
	pushq	%rdi
	.seh_pushreg	%rdi
	pushq	%rsi
	.seh_pushreg	%rsi
	pushq	%rbx
	.seh_pushreg	%rbx
	subq	$40, %rsp
	.seh_stackalloc	40
	leaq	128(%rsp), %rbp
	.seh_setframe	%rbp, 128
	.seh_endprologue
	movq	16(%rcx), %rsi
	movq	8(%rcx), %rbx
	movq	(%rcx), %r13
	call	_Z22manage_thread_affinityv
	subq	$512, %rsp
	movl	$64, %ecx
	xorl	%eax, %eax
	leaq	32(%rsp), %r12
	movq	%r12, %rdi
	rep stosq
	testq	%r13, %r13
	jne	.L194
	.p2align 4,,10
	.p2align 3
.L196:
	call	GOMP_atomic_start
	vmovdqu	(%rbx), %ymm1
	vpaddw	(%r12), %ymm1, %ymm0
	vmovdqu	32(%r12), %ymm2
	vmovdqu	64(%r12), %ymm3
	vmovdqu	%ymm0, (%rbx)
	vpaddw	32(%rbx), %ymm2, %ymm0
	vmovdqu	96(%rbx), %ymm4
	vmovdqu	128(%rbx), %ymm5
	vmovdqu	160(%rbx), %ymm1
	vmovdqu	%ymm0, 32(%rbx)
	vpaddw	64(%rbx), %ymm3, %ymm0
	vmovdqu	192(%rbx), %ymm2
	vmovdqu	224(%rbx), %ymm3
	vmovdqu	%ymm0, 64(%rbx)
	vpaddw	96(%r12), %ymm4, %ymm0
	vmovdqu	256(%rbx), %ymm4
	vmovdqu	%ymm0, 96(%rbx)
	vpaddw	128(%r12), %ymm5, %ymm0
	vmovdqu	288(%rbx), %ymm5
	vmovdqu	%ymm0, 128(%rbx)
	vpaddw	160(%r12), %ymm1, %ymm0
	vmovdqu	320(%rbx), %ymm1
	vmovdqu	%ymm0, 160(%rbx)
	vpaddw	192(%r12), %ymm2, %ymm0
	vmovdqu	%ymm0, 192(%rbx)
	vpaddw	224(%r12), %ymm3, %ymm0
	vmovdqu	%ymm0, 224(%rbx)
	vpaddw	256(%r12), %ymm4, %ymm0
	vmovdqu	%ymm0, 256(%rbx)
	vpaddw	288(%r12), %ymm5, %ymm0
	vmovdqu	%ymm0, 288(%rbx)
	vpaddw	320(%r12), %ymm1, %ymm0
	vmovdqu	%ymm0, 320(%rbx)
	vmovdqu	352(%rbx), %ymm2
	vpaddw	352(%r12), %ymm2, %ymm0
	vmovdqu	384(%rbx), %ymm3
	vmovdqu	416(%rbx), %ymm4
	vmovdqu	%ymm0, 352(%rbx)
	vmovdqu	448(%rbx), %ymm5
	vpaddw	384(%r12), %ymm3, %ymm0
	vmovdqu	%ymm0, 384(%rbx)
	vpaddw	416(%r12), %ymm4, %ymm0
	vmovdqu	%ymm0, 416(%rbx)
	vpaddw	448(%r12), %ymm5, %ymm0
	vmovdqu	%ymm0, 448(%rbx)
	vmovdqu	480(%r12), %ymm0
	vpaddw	480(%rbx), %ymm0, %ymm0
	vmovdqu	%ymm0, 480(%rbx)
	vzeroupper
	call	GOMP_atomic_end
	jmp	.L200
.L194:
	call	omp_get_num_threads
	movl	%eax, %edi
	call	omp_get_thread_num
	movslq	%edi, %r8
	xorl	%edx, %edx
	movslq	%eax, %rcx
	movq	%r13, %rax
	divq	%r8
	movq	%rax, %r13
	cmpq	%rdx, %rcx
	jb	.L195
.L198:
	imulq	%r13, %rcx
	addq	%rcx, %rdx
	addq	%rdx, %r13
	cmpq	%r13, %rdx
	jnb	.L196
	leaq	(%rsi,%rdx), %rax
	addq	%r13, %rsi
	.p2align 4,,10
	.p2align 3
.L197:
	movzbl	(%rax), %edx
	incq	%rax
	incw	(%r12,%rdx,2)
	cmpq	%rsi, %rax
	jne	.L197
	jmp	.L196
.L195:
	incq	%r13
	xorl	%edx, %edx
	jmp	.L198
	.p2align 4,,10
	.p2align 3
.L200:
	leaq	-88(%rbp), %rsp
	popq	%rbx
	popq	%rsi
	popq	%rdi
	popq	%r12
	popq	%r13
	popq	%rbp
	ret
	.seh_handler	__gxx_personality_seh0, @unwind, @except
	.seh_handlerdata
.LLSDA17052:
	.byte	0xff
	.byte	0xff
	.byte	0x1
	.uleb128 .LLSDACSE17052-.LLSDACSB17052
.LLSDACSB17052:
.LLSDACSE17052:
	.text
	.seh_endproc
	.p2align 4
	.def	_ZN9HistogramItsE10accumulateIsEEvPT_y._omp_fn.0;	.scl	3;	.type	32;	.endef
	.seh_proc	_ZN9HistogramItsE10accumulateIsEEvPT_y._omp_fn.0
_ZN9HistogramItsE10accumulateIsEEvPT_y._omp_fn.0:
.LFB17053:
	pushq	%rbp
	.seh_pushreg	%rbp
	pushq	%r15
	.seh_pushreg	%r15
	pushq	%r14
	.seh_pushreg	%r14
	pushq	%r13
	.seh_pushreg	%r13
	pushq	%r12
	.seh_pushreg	%r12
	pushq	%rdi
	.seh_pushreg	%rdi
	pushq	%rsi
	.seh_pushreg	%rsi
	pushq	%rbx
	.seh_pushreg	%rbx
	subq	$56, %rsp
	.seh_stackalloc	56
	leaq	128(%rsp), %rbp
	.seh_setframe	%rbp, 128
	.seh_endprologue
	movq	16(%rcx), %rax
	movl	24(%rcx), %esi
	movq	8(%rcx), %rbx
	movl	28(%rcx), %r15d
	movq	%rax, -96(%rbp)
	movq	(%rcx), %rax
	movq	%rax, -88(%rbp)
	call	_Z22manage_thread_affinityv
	movl	$1, %edx
	shlx	%esi, %edx, %edx
	movslq	%edx, %r12
	leaq	15(%r12,%r12), %rax
	leaq	-1(%r12), %rdi
	andq	$-16, %rax
	call	___chkstk_ms
	subq	%rax, %rsp
	leaq	32(%rsp), %rsi
	movq	%rsi, %r13
	cmpl	$15, %edx
	jbe	.L214
	leaq	-16(%r12), %rdx
	xorl	%eax, %eax
	vpxor	%xmm0, %xmm0, %xmm0
	shrq	$4, %rdx
	incq	%rdx
	.p2align 4,,10
	.p2align 3
.L203:
	movq	%rax, %r9
	incq	%rax
	salq	$5, %r9
	vmovdqu	%ymm0, (%rsi,%r9)
	cmpq	%rax, %rdx
	ja	.L203
	movq	%rdx, %rax
	salq	$5, %rdx
	salq	$4, %rax
	addq	%rsi, %rdx
	cmpq	%rax, %r12
	je	.L221
	xorl	%r9d, %r9d
	movw	%r9w, (%rdx)
	leaq	1(%rax), %r9
	cmpq	%r9, %rdi
	jb	.L222
	xorl	%r8d, %r8d
	leaq	2(%rax), %r9
	movw	%r8w, 2(%rdx)
	cmpq	%r9, %rdi
	jb	.L223
	xorl	%ecx, %ecx
	leaq	3(%rax), %r9
	movw	%cx, 4(%rdx)
	cmpq	%r9, %rdi
	jb	.L224
	xorl	%r14d, %r14d
	leaq	4(%rax), %r9
	movw	%r14w, 6(%rdx)
	cmpq	%r9, %rdi
	jb	.L225
	xorl	%r11d, %r11d
	leaq	5(%rax), %r9
	movw	%r11w, 8(%rdx)
	cmpq	%r9, %rdi
	jb	.L226
	xorl	%r10d, %r10d
	leaq	6(%rax), %r9
	movw	%r10w, 10(%rdx)
	cmpq	%r9, %rdi
	jb	.L227
	xorl	%r9d, %r9d
	movw	%r9w, 12(%rdx)
	leaq	7(%rax), %r9
	cmpq	%r9, %rdi
	jb	.L228
	xorl	%r8d, %r8d
	leaq	8(%rax), %r9
	movw	%r8w, 14(%rdx)
	cmpq	%r9, %rdi
	jb	.L229
	xorl	%ecx, %ecx
	leaq	9(%rax), %r9
	movw	%cx, 16(%rdx)
	cmpq	%r9, %rdi
	jb	.L230
	xorl	%r14d, %r14d
	leaq	10(%rax), %r9
	movw	%r14w, 18(%rdx)
	cmpq	%r9, %rdi
	jb	.L231
	xorl	%r11d, %r11d
	leaq	11(%rax), %r9
	movw	%r11w, 20(%rdx)
	cmpq	%r9, %rdi
	jb	.L232
	xorl	%r10d, %r10d
	leaq	12(%rax), %r9
	movw	%r10w, 22(%rdx)
	cmpq	%r9, %rdi
	jb	.L233
	xorl	%r9d, %r9d
	movw	%r9w, 24(%rdx)
	leaq	13(%rax), %r9
	cmpq	%r9, %rdi
	jb	.L234
	xorl	%r8d, %r8d
	addq	$14, %rax
	movw	%r8w, 26(%rdx)
	cmpq	%rax, %rdi
	jb	.L235
	xorl	%ecx, %ecx
	movw	%cx, 28(%rdx)
	vzeroupper
	jmp	.L205
	.p2align 4,,10
	.p2align 3
.L214:
	xorl	%eax, %eax
	.p2align 4,,10
	.p2align 3
.L202:
	xorl	%edx, %edx
	movw	%dx, (%rsi,%rax,2)
	incq	%rax
	cmpq	%rax, %rdi
	jnb	.L202
	jmp	.L205
.L221:
	vzeroupper
	jmp	.L205
.L222:
	vzeroupper
	jmp	.L205
.L223:
	vzeroupper
	jmp	.L205
.L224:
	vzeroupper
	jmp	.L205
.L225:
	vzeroupper
	jmp	.L205
.L226:
	vzeroupper
	jmp	.L205
.L227:
	vzeroupper
	jmp	.L205
.L228:
	vzeroupper
	jmp	.L205
.L229:
	vzeroupper
	jmp	.L205
.L230:
	vzeroupper
	jmp	.L205
.L231:
	vzeroupper
	jmp	.L205
.L232:
	vzeroupper
	jmp	.L205
.L233:
	vzeroupper
	jmp	.L205
.L234:
	vzeroupper
	jmp	.L205
.L235:
	vzeroupper
	.p2align 4,,10
	.p2align 3
.L205:
	cmpq	$0, -88(%rbp)
	jne	.L206
	.p2align 4,,10
	.p2align 3
.L211:
	call	GOMP_atomic_start
	cmpq	$14, %rdi
	jbe	.L215
	leaq	-16(%r12), %r8
	xorl	%eax, %eax
	xorl	%edx, %edx
	shrq	$4, %r8
	incq	%r8
	.p2align 4,,10
	.p2align 3
.L208:
	vmovdqu	(%rsi,%rax), %ymm1
	vpaddw	(%rbx,%rax), %ymm1, %ymm0
	incq	%rdx
	vmovdqu	%ymm0, (%rbx,%rax)
	addq	$32, %rax
	cmpq	%r8, %rdx
	jb	.L208
	movq	%r8, %rax
	salq	$5, %r8
	salq	$4, %rax
	leaq	(%rsi,%r8), %r13
	addq	%r8, %rbx
	cmpq	%rax, %r12
	jne	.L236
	vzeroupper
	jmp	.L209
	.p2align 4,,10
	.p2align 3
.L215:
	xorl	%eax, %eax
	jmp	.L207
	.p2align 4,,10
	.p2align 3
.L236:
	vzeroupper
.L207:
	movzwl	0(%r13), %edx
	addw	%dx, (%rbx)
	leaq	1(%rax), %rdx
	cmpq	%rdx, %rdi
	jb	.L209
	movzwl	2(%r13), %edx
	addw	%dx, 2(%rbx)
	leaq	2(%rax), %rdx
	cmpq	%rdx, %rdi
	jb	.L209
	movzwl	4(%r13), %edx
	addw	%dx, 4(%rbx)
	leaq	3(%rax), %rdx
	cmpq	%rdx, %rdi
	jb	.L209
	movzwl	6(%r13), %edx
	addw	%dx, 6(%rbx)
	leaq	4(%rax), %rdx
	cmpq	%rdx, %rdi
	jb	.L209
	movzwl	8(%r13), %edx
	addw	%dx, 8(%rbx)
	leaq	5(%rax), %rdx
	cmpq	%rdx, %rdi
	jb	.L209
	movzwl	10(%r13), %edx
	addw	%dx, 10(%rbx)
	leaq	6(%rax), %rdx
	cmpq	%rdx, %rdi
	jb	.L209
	movzwl	12(%r13), %edx
	addw	%dx, 12(%rbx)
	leaq	7(%rax), %rdx
	cmpq	%rdx, %rdi
	jb	.L209
	movzwl	14(%r13), %edx
	addw	%dx, 14(%rbx)
	leaq	8(%rax), %rdx
	cmpq	%rdx, %rdi
	jb	.L209
	movzwl	16(%r13), %edx
	addw	%dx, 16(%rbx)
	leaq	9(%rax), %rdx
	cmpq	%rdx, %rdi
	jb	.L209
	movzwl	18(%r13), %edx
	addw	%dx, 18(%rbx)
	leaq	10(%rax), %rdx
	cmpq	%rdx, %rdi
	jb	.L209
	movzwl	20(%r13), %edx
	addw	%dx, 20(%rbx)
	leaq	11(%rax), %rdx
	cmpq	%rdx, %rdi
	jb	.L209
	movzwl	22(%r13), %edx
	addw	%dx, 22(%rbx)
	leaq	12(%rax), %rdx
	cmpq	%rdx, %rdi
	jb	.L209
	movzwl	24(%r13), %edx
	addw	%dx, 24(%rbx)
	leaq	13(%rax), %rdx
	cmpq	%rdx, %rdi
	jb	.L209
	addq	$14, %rax
	movzwl	26(%r13), %edx
	addw	%dx, 26(%rbx)
	cmpq	%rax, %rdi
	jb	.L209
	movzwl	28(%r13), %eax
	addw	%ax, 28(%rbx)
	.p2align 4,,10
	.p2align 3
.L209:
	call	GOMP_atomic_end
	jmp	.L220
	.p2align 4,,10
	.p2align 3
.L206:
	call	omp_get_num_threads
	movslq	%eax, %r14
	call	omp_get_thread_num
	xorl	%edx, %edx
	movslq	%eax, %r9
	movq	-88(%rbp), %rax
	divq	%r14
	cmpq	%rdx, %r9
	jb	.L210
.L213:
	imulq	%rax, %r9
	addq	%r9, %rdx
	addq	%rdx, %rax
	cmpq	%rax, %rdx
	jnb	.L211
	movq	-96(%rbp), %rcx
	leaq	(%rcx,%rdx,2), %rdx
	leaq	(%rcx,%rax,2), %r9
	.p2align 4,,10
	.p2align 3
.L212:
	movzwl	(%rdx), %eax
	addq	$2, %rdx
	sarx	%r15d, %eax, %eax
	cltq
	incw	(%rsi,%rax,2)
	cmpq	%r9, %rdx
	jne	.L212
	jmp	.L211
	.p2align 4,,10
	.p2align 3
.L210:
	incq	%rax
	xorl	%edx, %edx
	jmp	.L213
	.p2align 4,,10
	.p2align 3
.L220:
	leaq	-72(%rbp), %rsp
	popq	%rbx
	popq	%rsi
	popq	%rdi
	popq	%r12
	popq	%r13
	popq	%r14
	popq	%r15
	popq	%rbp
	ret
	.seh_handler	__gxx_personality_seh0, @unwind, @except
	.seh_handlerdata
.LLSDA17053:
	.byte	0xff
	.byte	0xff
	.byte	0x1
	.uleb128 .LLSDACSE17053-.LLSDACSB17053
.LLSDACSB17053:
.LLSDACSE17053:
	.text
	.seh_endproc
	.p2align 4
	.def	_ZN9HistogramIhdE10accumulateIdEEvPT_y._omp_fn.0;	.scl	3;	.type	32;	.endef
	.seh_proc	_ZN9HistogramIhdE10accumulateIdEEvPT_y._omp_fn.0
_ZN9HistogramIhdE10accumulateIdEEvPT_y._omp_fn.0:
.LFB17054:
	pushq	%rbp
	.seh_pushreg	%rbp
	pushq	%r15
	.seh_pushreg	%r15
	pushq	%r14
	.seh_pushreg	%r14
	pushq	%r13
	.seh_pushreg	%r13
	pushq	%r12
	.seh_pushreg	%r12
	pushq	%rdi
	.seh_pushreg	%rdi
	pushq	%rsi
	.seh_pushreg	%rsi
	pushq	%rbx
	.seh_pushreg	%rbx
	subq	$88, %rsp
	.seh_stackalloc	88
	leaq	128(%rsp), %rbp
	.seh_setframe	%rbp, 128
	vmovaps	%xmm6, -64(%rbp)
	.seh_savexmm	%xmm6, 64
	.seh_endprologue
	movq	8(%rcx), %rax
	movq	16(%rcx), %r14
	movq	32(%rcx), %rbx
	vmovsd	24(%rcx), %xmm6
	movq	%rax, -72(%rbp)
	movq	(%rcx), %rax
	movq	%rax, -88(%rbp)
	call	_Z22manage_thread_affinityv
	movl	(%r14), %r15d
	leaq	15(%r15), %rax
	movq	%r15, %r9
	leaq	-1(%r15), %r12
	shrq	$4, %rax
	salq	$4, %rax
	call	___chkstk_ms
	subq	%rax, %rsp
	leaq	32(%rsp), %rsi
	movq	%rsi, %rdi
	cmpl	$31, %r15d
	jbe	.L259
	leaq	-32(%r15), %rax
	xorl	%edx, %edx
	vpxor	%xmm0, %xmm0, %xmm0
	shrq	$5, %rax
	incq	%rax
	.p2align 4,,10
	.p2align 3
.L239:
	movq	%rdx, %r10
	incq	%rdx
	salq	$5, %r10
	vmovdqu	%ymm0, (%rsi,%r10)
	cmpq	%rdx, %rax
	ja	.L239
	salq	$5, %rax
	cmpq	%rax, %r15
	je	.L272
	.p2align 4,,10
	.p2align 3
.L241:
	movb	$0, (%rsi,%rax)
	incq	%rax
	cmpq	%rax, %r12
	jnb	.L241
	vzeroupper
	jmp	.L242
	.p2align 4,,10
	.p2align 3
.L259:
	xorl	%eax, %eax
	.p2align 4,,10
	.p2align 3
.L238:
	movb	$0, (%rsi,%rax)
	incq	%rax
	cmpq	%rax, %r12
	jnb	.L238
	jmp	.L242
.L272:
	vzeroupper
	.p2align 4,,10
	.p2align 3
.L242:
	cmpq	$0, -72(%rbp)
	jne	.L243
	.p2align 4,,10
	.p2align 3
.L249:
	call	GOMP_atomic_start
	cmpq	$30, %r12
	jbe	.L260
	leaq	-32(%r15), %rax
	xorl	%edx, %edx
	xorl	%r9d, %r9d
	shrq	$5, %rax
	incq	%rax
	.p2align 4,,10
	.p2align 3
.L245:
	vmovdqu	(%rbx,%rdx), %ymm4
	vpaddb	(%rsi,%rdx), %ymm4, %ymm0
	incq	%r9
	vmovdqu	%ymm0, (%rbx,%rdx)
	addq	$32, %rdx
	cmpq	%rax, %r9
	jb	.L245
	salq	$5, %rax
	leaq	(%rsi,%rax), %rdi
	addq	%rax, %rbx
	cmpq	%rax, %r15
	jne	.L273
	vzeroupper
	jmp	.L246
	.p2align 4,,10
	.p2align 3
.L260:
	xorl	%eax, %eax
	jmp	.L244
	.p2align 4,,10
	.p2align 3
.L273:
	vzeroupper
.L244:
	subq	%rax, %rbx
	subq	%rax, %rdi
	.p2align 4,,10
	.p2align 3
.L247:
	movzbl	(%rdi,%rax), %edx
	addb	%dl, (%rbx,%rax)
	incq	%rax
	cmpq	%rax, %r12
	jnb	.L247
.L246:
	call	GOMP_atomic_end
	jmp	.L269
	.p2align 4,,10
	.p2align 3
.L243:
	movl	%r9d, -76(%rbp)
	call	omp_get_num_threads
	movslq	%eax, %r13
	call	omp_get_thread_num
	xorl	%edx, %edx
	movl	-76(%rbp), %r9d
	movslq	%eax, %r10
	movq	-72(%rbp), %rax
	divq	%r13
	cmpq	%rdx, %r10
	jb	.L248
.L258:
	imulq	%rax, %r10
	addq	%r10, %rdx
	addq	%rdx, %rax
	cmpq	%rax, %rdx
	jnb	.L249
	vmovsd	48(%r14), %xmm1
	movq	-88(%rbp), %rcx
	decl	%r9d
	movabsq	$-9223372036854775808, %r11
	vmovsd	.LC1(%rip), %xmm3
	addq	%rsi, %r9
	vmovapd	%xmm1, %xmm2
	vxorpd	.LC0(%rip), %xmm2, %xmm2
	leaq	(%rcx,%rdx,8), %rdx
	leaq	(%rcx,%rax,8), %r10
	.p2align 4,,10
	.p2align 3
.L257:
	vmovsd	(%rdx), %xmm0
	vcomisd	%xmm1, %xmm0
	jb	.L270
	incb	(%r9)
	jmp	.L252
	.p2align 4,,10
	.p2align 3
.L270:
	vcomisd	%xmm0, %xmm2
	jbe	.L271
	incb	(%rsi)
	jmp	.L252
	.p2align 4,,10
	.p2align 3
.L271:
	vaddsd	%xmm0, %xmm1, %xmm0
	vdivsd	%xmm6, %xmm0, %xmm0
	vcomisd	%xmm3, %xmm0
	jnb	.L255
	vcvttsd2siq	%xmm0, %rax
	jmp	.L256
	.p2align 4,,10
	.p2align 3
.L255:
	vsubsd	%xmm3, %xmm0, %xmm0
	vcvttsd2siq	%xmm0, %rax
	xorq	%r11, %rax
.L256:
	incb	(%rsi,%rax)
.L252:
	addq	$8, %rdx
	cmpq	%rdx, %r10
	jne	.L257
	jmp	.L249
	.p2align 4,,10
	.p2align 3
.L248:
	incq	%rax
	xorl	%edx, %edx
	jmp	.L258
	.p2align 4,,10
	.p2align 3
.L269:
	vmovaps	-64(%rbp), %xmm6
	leaq	-40(%rbp), %rsp
	popq	%rbx
	popq	%rsi
	popq	%rdi
	popq	%r12
	popq	%r13
	popq	%r14
	popq	%r15
	popq	%rbp
	ret
	.seh_handler	__gxx_personality_seh0, @unwind, @except
	.seh_handlerdata
.LLSDA17054:
	.byte	0xff
	.byte	0xff
	.byte	0x1
	.uleb128 .LLSDACSE17054-.LLSDACSB17054
.LLSDACSB17054:
.LLSDACSE17054:
	.text
	.seh_endproc
	.p2align 4
	.def	_ZN9HistogramIhfE10accumulateIfEEvPT_y._omp_fn.0;	.scl	3;	.type	32;	.endef
	.seh_proc	_ZN9HistogramIhfE10accumulateIfEEvPT_y._omp_fn.0
_ZN9HistogramIhfE10accumulateIfEEvPT_y._omp_fn.0:
.LFB17055:
	pushq	%rbp
	.seh_pushreg	%rbp
	pushq	%r15
	.seh_pushreg	%r15
	pushq	%r14
	.seh_pushreg	%r14
	pushq	%r13
	.seh_pushreg	%r13
	pushq	%r12
	.seh_pushreg	%r12
	pushq	%rdi
	.seh_pushreg	%rdi
	pushq	%rsi
	.seh_pushreg	%rsi
	pushq	%rbx
	.seh_pushreg	%rbx
	subq	$88, %rsp
	.seh_stackalloc	88
	leaq	128(%rsp), %rbp
	.seh_setframe	%rbp, 128
	vmovaps	%xmm6, -64(%rbp)
	.seh_savexmm	%xmm6, 64
	.seh_endprologue
	movq	8(%rcx), %rax
	movq	16(%rcx), %r14
	movq	24(%rcx), %rbx
	vmovss	32(%rcx), %xmm6
	movq	%rax, -72(%rbp)
	movq	(%rcx), %rax
	movq	%rax, -88(%rbp)
	call	_Z22manage_thread_affinityv
	movl	(%r14), %r15d
	leaq	15(%r15), %rax
	movq	%r15, %r9
	leaq	-1(%r15), %r12
	shrq	$4, %rax
	salq	$4, %rax
	call	___chkstk_ms
	subq	%rax, %rsp
	leaq	32(%rsp), %rsi
	movq	%rsi, %rdi
	cmpl	$31, %r15d
	jbe	.L296
	leaq	-32(%r15), %rax
	xorl	%edx, %edx
	vpxor	%xmm0, %xmm0, %xmm0
	shrq	$5, %rax
	incq	%rax
	.p2align 4,,10
	.p2align 3
.L276:
	movq	%rdx, %r10
	incq	%rdx
	salq	$5, %r10
	vmovdqu	%ymm0, (%rsi,%r10)
	cmpq	%rdx, %rax
	ja	.L276
	salq	$5, %rax
	cmpq	%rax, %r15
	je	.L309
	.p2align 4,,10
	.p2align 3
.L278:
	movb	$0, (%rsi,%rax)
	incq	%rax
	cmpq	%rax, %r12
	jnb	.L278
	vzeroupper
	jmp	.L279
	.p2align 4,,10
	.p2align 3
.L296:
	xorl	%eax, %eax
	.p2align 4,,10
	.p2align 3
.L275:
	movb	$0, (%rsi,%rax)
	incq	%rax
	cmpq	%rax, %r12
	jnb	.L275
	jmp	.L279
.L309:
	vzeroupper
	.p2align 4,,10
	.p2align 3
.L279:
	cmpq	$0, -72(%rbp)
	jne	.L280
	.p2align 4,,10
	.p2align 3
.L286:
	call	GOMP_atomic_start
	cmpq	$30, %r12
	jbe	.L297
	leaq	-32(%r15), %rax
	xorl	%edx, %edx
	xorl	%r9d, %r9d
	shrq	$5, %rax
	incq	%rax
	.p2align 4,,10
	.p2align 3
.L282:
	vmovdqu	(%rbx,%rdx), %ymm4
	vpaddb	(%rsi,%rdx), %ymm4, %ymm0
	incq	%r9
	vmovdqu	%ymm0, (%rbx,%rdx)
	addq	$32, %rdx
	cmpq	%rax, %r9
	jb	.L282
	salq	$5, %rax
	leaq	(%rsi,%rax), %rdi
	addq	%rax, %rbx
	cmpq	%rax, %r15
	jne	.L310
	vzeroupper
	jmp	.L283
	.p2align 4,,10
	.p2align 3
.L297:
	xorl	%eax, %eax
	jmp	.L281
	.p2align 4,,10
	.p2align 3
.L310:
	vzeroupper
.L281:
	subq	%rax, %rbx
	subq	%rax, %rdi
	.p2align 4,,10
	.p2align 3
.L284:
	movzbl	(%rdi,%rax), %edx
	addb	%dl, (%rbx,%rax)
	incq	%rax
	cmpq	%rax, %r12
	jnb	.L284
.L283:
	call	GOMP_atomic_end
	jmp	.L306
	.p2align 4,,10
	.p2align 3
.L280:
	movl	%r9d, -76(%rbp)
	call	omp_get_num_threads
	movslq	%eax, %r13
	call	omp_get_thread_num
	xorl	%edx, %edx
	movl	-76(%rbp), %r9d
	movslq	%eax, %r10
	movq	-72(%rbp), %rax
	divq	%r13
	cmpq	%rdx, %r10
	jb	.L285
.L295:
	imulq	%rax, %r10
	addq	%r10, %rdx
	addq	%rdx, %rax
	cmpq	%rax, %rdx
	jnb	.L286
	vmovss	48(%r14), %xmm1
	movq	-88(%rbp), %rcx
	decl	%r9d
	movabsq	$-9223372036854775808, %r11
	vmovss	.LC3(%rip), %xmm3
	addq	%rsi, %r9
	vmovaps	%xmm1, %xmm2
	vxorps	.LC2(%rip), %xmm2, %xmm2
	leaq	(%rcx,%rdx,4), %rdx
	leaq	(%rcx,%rax,4), %r10
	.p2align 4,,10
	.p2align 3
.L294:
	vmovss	(%rdx), %xmm0
	vcomiss	%xmm1, %xmm0
	jb	.L307
	incb	(%r9)
	jmp	.L289
	.p2align 4,,10
	.p2align 3
.L307:
	vcomiss	%xmm0, %xmm2
	jbe	.L308
	incb	(%rsi)
	jmp	.L289
	.p2align 4,,10
	.p2align 3
.L308:
	vaddss	%xmm0, %xmm1, %xmm0
	vdivss	%xmm6, %xmm0, %xmm0
	vcomiss	.LC3(%rip), %xmm0
	jnb	.L292
	vcvttss2siq	%xmm0, %rax
	jmp	.L293
	.p2align 4,,10
	.p2align 3
.L292:
	vsubss	%xmm3, %xmm0, %xmm0
	vcvttss2siq	%xmm0, %rax
	xorq	%r11, %rax
.L293:
	incb	(%rsi,%rax)
.L289:
	addq	$4, %rdx
	cmpq	%rdx, %r10
	jne	.L294
	jmp	.L286
	.p2align 4,,10
	.p2align 3
.L285:
	incq	%rax
	xorl	%edx, %edx
	jmp	.L295
	.p2align 4,,10
	.p2align 3
.L306:
	vmovaps	-64(%rbp), %xmm6
	leaq	-40(%rbp), %rsp
	popq	%rbx
	popq	%rsi
	popq	%rdi
	popq	%r12
	popq	%r13
	popq	%r14
	popq	%r15
	popq	%rbp
	ret
	.seh_handler	__gxx_personality_seh0, @unwind, @except
	.seh_handlerdata
.LLSDA17055:
	.byte	0xff
	.byte	0xff
	.byte	0x1
	.uleb128 .LLSDACSE17055-.LLSDACSB17055
.LLSDACSB17055:
.LLSDACSE17055:
	.text
	.seh_endproc
	.p2align 4
	.def	_ZN9HistogramIhhE10accumulateIhEEvPT_y._omp_fn.0;	.scl	3;	.type	32;	.endef
	.seh_proc	_ZN9HistogramIhhE10accumulateIhEEvPT_y._omp_fn.0
_ZN9HistogramIhhE10accumulateIhEEvPT_y._omp_fn.0:
.LFB17056:
	pushq	%rbp
	.seh_pushreg	%rbp
	pushq	%r13
	.seh_pushreg	%r13
	pushq	%r12
	.seh_pushreg	%r12
	pushq	%rdi
	.seh_pushreg	%rdi
	pushq	%rsi
	.seh_pushreg	%rsi
	pushq	%rbx
	.seh_pushreg	%rbx
	subq	$40, %rsp
	.seh_stackalloc	40
	leaq	128(%rsp), %rbp
	.seh_setframe	%rbp, 128
	.seh_endprologue
	movq	16(%rcx), %r12
	movq	8(%rcx), %r13
	movq	(%rcx), %rbx
	call	_Z22manage_thread_affinityv
	subq	$256, %rsp
	movl	$32, %ecx
	xorl	%eax, %eax
	leaq	32(%rsp), %rsi
	movq	%rsi, %rdi
	rep stosq
	testq	%r13, %r13
	jne	.L312
	.p2align 4,,10
	.p2align 3
.L314:
	call	GOMP_atomic_start
	vmovdqu	(%r12), %ymm1
	vpaddb	(%rsi), %ymm1, %ymm0
	vmovdqu	32(%rsi), %ymm2
	vmovdqu	64(%r12), %ymm3
	vmovdqu	%ymm0, (%r12)
	vpaddb	32(%r12), %ymm2, %ymm0
	vmovdqu	96(%r12), %ymm4
	vmovdqu	128(%r12), %ymm5
	vmovdqu	160(%r12), %ymm1
	vmovdqu	%ymm0, 32(%r12)
	vpaddb	64(%rsi), %ymm3, %ymm0
	vmovdqu	192(%r12), %ymm2
	vmovdqu	%ymm0, 64(%r12)
	vpaddb	96(%rsi), %ymm4, %ymm0
	vmovdqu	%ymm0, 96(%r12)
	vpaddb	128(%rsi), %ymm5, %ymm0
	vmovdqu	%ymm0, 128(%r12)
	vpaddb	160(%rsi), %ymm1, %ymm0
	vmovdqu	%ymm0, 160(%r12)
	vpaddb	192(%rsi), %ymm2, %ymm0
	vmovdqu	%ymm0, 192(%r12)
	vmovdqu	224(%rsi), %ymm0
	vpaddb	224(%r12), %ymm0, %ymm0
	vmovdqu	%ymm0, 224(%r12)
	vzeroupper
	call	GOMP_atomic_end
	jmp	.L318
.L312:
	call	omp_get_num_threads
	movl	%eax, %edi
	call	omp_get_thread_num
	movslq	%edi, %r8
	xorl	%edx, %edx
	movslq	%eax, %rcx
	movq	%r13, %rax
	divq	%r8
	movq	%rax, %r13
	cmpq	%rdx, %rcx
	jb	.L313
.L316:
	imulq	%r13, %rcx
	addq	%rcx, %rdx
	addq	%rdx, %r13
	cmpq	%r13, %rdx
	jnb	.L314
	leaq	(%rbx,%rdx), %rax
	addq	%r13, %rbx
	.p2align 4,,10
	.p2align 3
.L315:
	movzbl	(%rax), %edx
	incq	%rax
	incb	(%rsi,%rdx)
	cmpq	%rbx, %rax
	jne	.L315
	jmp	.L314
.L313:
	incq	%r13
	xorl	%edx, %edx
	jmp	.L316
	.p2align 4,,10
	.p2align 3
.L318:
	leaq	-88(%rbp), %rsp
	popq	%rbx
	popq	%rsi
	popq	%rdi
	popq	%r12
	popq	%r13
	popq	%rbp
	ret
	.seh_handler	__gxx_personality_seh0, @unwind, @except
	.seh_handlerdata
.LLSDA17056:
	.byte	0xff
	.byte	0xff
	.byte	0x1
	.uleb128 .LLSDACSE17056-.LLSDACSB17056
.LLSDACSB17056:
.LLSDACSE17056:
	.text
	.seh_endproc
	.p2align 4
	.def	_ZN9HistogramIhtE10accumulateItEEvPT_y._omp_fn.0;	.scl	3;	.type	32;	.endef
	.seh_proc	_ZN9HistogramIhtE10accumulateItEEvPT_y._omp_fn.0
_ZN9HistogramIhtE10accumulateItEEvPT_y._omp_fn.0:
.LFB17057:
	pushq	%rbp
	.seh_pushreg	%rbp
	pushq	%r15
	.seh_pushreg	%r15
	pushq	%r14
	.seh_pushreg	%r14
	pushq	%r13
	.seh_pushreg	%r13
	pushq	%r12
	.seh_pushreg	%r12
	pushq	%rdi
	.seh_pushreg	%rdi
	pushq	%rsi
	.seh_pushreg	%rsi
	pushq	%rbx
	.seh_pushreg	%rbx
	subq	$56, %rsp
	.seh_stackalloc	56
	leaq	128(%rsp), %rbp
	.seh_setframe	%rbp, 128
	.seh_endprologue
	movq	8(%rcx), %rax
	movl	24(%rcx), %esi
	movq	16(%rcx), %rbx
	movl	28(%rcx), %r15d
	movq	%rax, -88(%rbp)
	movq	(%rcx), %rax
	movq	%rax, -96(%rbp)
	call	_Z22manage_thread_affinityv
	movl	$1, %edx
	shlx	%esi, %edx, %edx
	movslq	%edx, %r13
	leaq	15(%r13), %rax
	leaq	-1(%r13), %rdi
	andq	$-16, %rax
	call	___chkstk_ms
	subq	%rax, %rsp
	leaq	32(%rsp), %rsi
	movq	%rsi, %r12
	cmpl	$31, %edx
	jbe	.L334
	leaq	-32(%r13), %rax
	xorl	%edx, %edx
	vpxor	%xmm0, %xmm0, %xmm0
	shrq	$5, %rax
	incq	%rax
	.p2align 4,,10
	.p2align 3
.L321:
	movq	%rdx, %r9
	incq	%rdx
	salq	$5, %r9
	vmovdqu	%ymm0, (%rsi,%r9)
	cmpq	%rdx, %rax
	ja	.L321
	salq	$5, %rax
	cmpq	%rax, %r13
	je	.L343
	.p2align 4,,10
	.p2align 3
.L323:
	movb	$0, (%rsi,%rax)
	incq	%rax
	cmpq	%rax, %rdi
	jnb	.L323
	vzeroupper
	jmp	.L324
	.p2align 4,,10
	.p2align 3
.L334:
	xorl	%eax, %eax
	.p2align 4,,10
	.p2align 3
.L320:
	movb	$0, (%rsi,%rax)
	incq	%rax
	cmpq	%rax, %rdi
	jnb	.L320
	jmp	.L324
.L343:
	vzeroupper
	.p2align 4,,10
	.p2align 3
.L324:
	cmpq	$0, -88(%rbp)
	jne	.L325
	.p2align 4,,10
	.p2align 3
.L331:
	call	GOMP_atomic_start
	cmpq	$30, %rdi
	jbe	.L335
	leaq	-32(%r13), %rax
	xorl	%edx, %edx
	xorl	%r8d, %r8d
	shrq	$5, %rax
	incq	%rax
	.p2align 4,,10
	.p2align 3
.L327:
	vmovdqu	(%rsi,%rdx), %ymm1
	vpaddb	(%rbx,%rdx), %ymm1, %ymm0
	incq	%r8
	vmovdqu	%ymm0, (%rbx,%rdx)
	addq	$32, %rdx
	cmpq	%rax, %r8
	jb	.L327
	salq	$5, %rax
	leaq	(%rsi,%rax), %r12
	addq	%rax, %rbx
	cmpq	%rax, %r13
	jne	.L344
	vzeroupper
	jmp	.L328
	.p2align 4,,10
	.p2align 3
.L335:
	xorl	%eax, %eax
	jmp	.L326
	.p2align 4,,10
	.p2align 3
.L344:
	vzeroupper
.L326:
	subq	%rax, %rbx
	subq	%rax, %r12
	.p2align 4,,10
	.p2align 3
.L329:
	movzbl	(%r12,%rax), %edx
	addb	%dl, (%rbx,%rax)
	incq	%rax
	cmpq	%rax, %rdi
	jnb	.L329
.L328:
	call	GOMP_atomic_end
	jmp	.L342
	.p2align 4,,10
	.p2align 3
.L325:
	call	omp_get_num_threads
	movslq	%eax, %r14
	call	omp_get_thread_num
	xorl	%edx, %edx
	movslq	%eax, %r9
	movq	-88(%rbp), %rax
	divq	%r14
	cmpq	%rdx, %r9
	jb	.L330
.L333:
	imulq	%rax, %r9
	addq	%r9, %rdx
	addq	%rdx, %rax
	cmpq	%rax, %rdx
	jnb	.L331
	movq	-96(%rbp), %rcx
	leaq	(%rcx,%rdx,2), %rdx
	leaq	(%rcx,%rax,2), %r9
	.p2align 4,,10
	.p2align 3
.L332:
	movzwl	(%rdx), %eax
	addq	$2, %rdx
	sarx	%r15d, %eax, %eax
	cltq
	incb	(%rsi,%rax)
	cmpq	%rdx, %r9
	jne	.L332
	jmp	.L331
	.p2align 4,,10
	.p2align 3
.L330:
	incq	%rax
	xorl	%edx, %edx
	jmp	.L333
	.p2align 4,,10
	.p2align 3
.L342:
	leaq	-72(%rbp), %rsp
	popq	%rbx
	popq	%rsi
	popq	%rdi
	popq	%r12
	popq	%r13
	popq	%r14
	popq	%r15
	popq	%rbp
	ret
	.seh_handler	__gxx_personality_seh0, @unwind, @except
	.seh_handlerdata
.LLSDA17057:
	.byte	0xff
	.byte	0xff
	.byte	0x1
	.uleb128 .LLSDACSE17057-.LLSDACSB17057
.LLSDACSB17057:
.LLSDACSE17057:
	.text
	.seh_endproc
	.p2align 4
	.def	_ZN9HistogramIhaE10accumulateIaEEvPT_y._omp_fn.0;	.scl	3;	.type	32;	.endef
	.seh_proc	_ZN9HistogramIhaE10accumulateIaEEvPT_y._omp_fn.0
_ZN9HistogramIhaE10accumulateIaEEvPT_y._omp_fn.0:
.LFB17058:
	pushq	%rbp
	.seh_pushreg	%rbp
	pushq	%r13
	.seh_pushreg	%r13
	pushq	%r12
	.seh_pushreg	%r12
	pushq	%rdi
	.seh_pushreg	%rdi
	pushq	%rsi
	.seh_pushreg	%rsi
	pushq	%rbx
	.seh_pushreg	%rbx
	subq	$40, %rsp
	.seh_stackalloc	40
	leaq	128(%rsp), %rbp
	.seh_setframe	%rbp, 128
	.seh_endprologue
	movq	16(%rcx), %rbx
	movq	8(%rcx), %r12
	movq	(%rcx), %r13
	call	_Z22manage_thread_affinityv
	subq	$256, %rsp
	movl	$32, %ecx
	xorl	%eax, %eax
	leaq	32(%rsp), %rsi
	movq	%rsi, %rdi
	rep stosq
	testq	%r13, %r13
	jne	.L346
	.p2align 4,,10
	.p2align 3
.L348:
	call	GOMP_atomic_start
	vmovdqu	(%r12), %ymm1
	vpaddb	(%rsi), %ymm1, %ymm0
	vmovdqu	32(%rsi), %ymm2
	vmovdqu	64(%r12), %ymm3
	vmovdqu	%ymm0, (%r12)
	vpaddb	32(%r12), %ymm2, %ymm0
	vmovdqu	96(%r12), %ymm4
	vmovdqu	128(%r12), %ymm5
	vmovdqu	160(%r12), %ymm1
	vmovdqu	%ymm0, 32(%r12)
	vpaddb	64(%rsi), %ymm3, %ymm0
	vmovdqu	192(%r12), %ymm2
	vmovdqu	%ymm0, 64(%r12)
	vpaddb	96(%rsi), %ymm4, %ymm0
	vmovdqu	%ymm0, 96(%r12)
	vpaddb	128(%rsi), %ymm5, %ymm0
	vmovdqu	%ymm0, 128(%r12)
	vpaddb	160(%rsi), %ymm1, %ymm0
	vmovdqu	%ymm0, 160(%r12)
	vpaddb	192(%rsi), %ymm2, %ymm0
	vmovdqu	%ymm0, 192(%r12)
	vmovdqu	224(%rsi), %ymm0
	vpaddb	224(%r12), %ymm0, %ymm0
	vmovdqu	%ymm0, 224(%r12)
	vzeroupper
	call	GOMP_atomic_end
	jmp	.L352
.L346:
	call	omp_get_num_threads
	movl	%eax, %edi
	call	omp_get_thread_num
	movslq	%edi, %r8
	xorl	%edx, %edx
	movslq	%eax, %rcx
	movq	%r13, %rax
	divq	%r8
	movq	%rax, %r13
	cmpq	%rdx, %rcx
	jb	.L347
.L350:
	imulq	%r13, %rcx
	addq	%rcx, %rdx
	addq	%rdx, %r13
	cmpq	%r13, %rdx
	jnb	.L348
	leaq	(%rbx,%rdx), %rax
	addq	%r13, %rbx
	.p2align 4,,10
	.p2align 3
.L349:
	movzbl	(%rax), %edx
	incq	%rax
	incb	(%rsi,%rdx)
	cmpq	%rbx, %rax
	jne	.L349
	jmp	.L348
.L347:
	incq	%r13
	xorl	%edx, %edx
	jmp	.L350
	.p2align 4,,10
	.p2align 3
.L352:
	leaq	-88(%rbp), %rsp
	popq	%rbx
	popq	%rsi
	popq	%rdi
	popq	%r12
	popq	%r13
	popq	%rbp
	ret
	.seh_handler	__gxx_personality_seh0, @unwind, @except
	.seh_handlerdata
.LLSDA17058:
	.byte	0xff
	.byte	0xff
	.byte	0x1
	.uleb128 .LLSDACSE17058-.LLSDACSB17058
.LLSDACSB17058:
.LLSDACSE17058:
	.text
	.seh_endproc
	.p2align 4
	.def	_ZN9HistogramIhsE10accumulateIsEEvPT_y._omp_fn.0;	.scl	3;	.type	32;	.endef
	.seh_proc	_ZN9HistogramIhsE10accumulateIsEEvPT_y._omp_fn.0
_ZN9HistogramIhsE10accumulateIsEEvPT_y._omp_fn.0:
.LFB17059:
	pushq	%rbp
	.seh_pushreg	%rbp
	pushq	%r15
	.seh_pushreg	%r15
	pushq	%r14
	.seh_pushreg	%r14
	pushq	%r13
	.seh_pushreg	%r13
	pushq	%r12
	.seh_pushreg	%r12
	pushq	%rdi
	.seh_pushreg	%rdi
	pushq	%rsi
	.seh_pushreg	%rsi
	pushq	%rbx
	.seh_pushreg	%rbx
	subq	$56, %rsp
	.seh_stackalloc	56
	leaq	128(%rsp), %rbp
	.seh_setframe	%rbp, 128
	.seh_endprologue
	movq	16(%rcx), %rax
	movl	24(%rcx), %esi
	movq	8(%rcx), %rbx
	movl	28(%rcx), %r15d
	movq	%rax, -96(%rbp)
	movq	(%rcx), %rax
	movq	%rax, -88(%rbp)
	call	_Z22manage_thread_affinityv
	movl	$1, %edx
	shlx	%esi, %edx, %edx
	movslq	%edx, %r13
	leaq	15(%r13), %rax
	leaq	-1(%r13), %rdi
	andq	$-16, %rax
	call	___chkstk_ms
	subq	%rax, %rsp
	leaq	32(%rsp), %rsi
	movq	%rsi, %r12
	cmpl	$31, %edx
	jbe	.L368
	leaq	-32(%r13), %rax
	xorl	%edx, %edx
	vpxor	%xmm0, %xmm0, %xmm0
	shrq	$5, %rax
	incq	%rax
	.p2align 4,,10
	.p2align 3
.L355:
	movq	%rdx, %r9
	incq	%rdx
	salq	$5, %r9
	vmovdqu	%ymm0, (%rsi,%r9)
	cmpq	%rdx, %rax
	ja	.L355
	salq	$5, %rax
	cmpq	%rax, %r13
	je	.L377
	.p2align 4,,10
	.p2align 3
.L357:
	movb	$0, (%rsi,%rax)
	incq	%rax
	cmpq	%rax, %rdi
	jnb	.L357
	vzeroupper
	jmp	.L358
	.p2align 4,,10
	.p2align 3
.L368:
	xorl	%eax, %eax
	.p2align 4,,10
	.p2align 3
.L354:
	movb	$0, (%rsi,%rax)
	incq	%rax
	cmpq	%rax, %rdi
	jnb	.L354
	jmp	.L358
.L377:
	vzeroupper
	.p2align 4,,10
	.p2align 3
.L358:
	cmpq	$0, -88(%rbp)
	jne	.L359
	.p2align 4,,10
	.p2align 3
.L365:
	call	GOMP_atomic_start
	cmpq	$30, %rdi
	jbe	.L369
	leaq	-32(%r13), %rax
	xorl	%edx, %edx
	xorl	%r8d, %r8d
	shrq	$5, %rax
	incq	%rax
	.p2align 4,,10
	.p2align 3
.L361:
	vmovdqu	(%rsi,%rdx), %ymm1
	vpaddb	(%rbx,%rdx), %ymm1, %ymm0
	incq	%r8
	vmovdqu	%ymm0, (%rbx,%rdx)
	addq	$32, %rdx
	cmpq	%rax, %r8
	jb	.L361
	salq	$5, %rax
	leaq	(%rsi,%rax), %r12
	addq	%rax, %rbx
	cmpq	%rax, %r13
	jne	.L378
	vzeroupper
	jmp	.L362
	.p2align 4,,10
	.p2align 3
.L369:
	xorl	%eax, %eax
	jmp	.L360
	.p2align 4,,10
	.p2align 3
.L378:
	vzeroupper
.L360:
	subq	%rax, %rbx
	subq	%rax, %r12
	.p2align 4,,10
	.p2align 3
.L363:
	movzbl	(%r12,%rax), %edx
	addb	%dl, (%rbx,%rax)
	incq	%rax
	cmpq	%rax, %rdi
	jnb	.L363
.L362:
	call	GOMP_atomic_end
	jmp	.L376
	.p2align 4,,10
	.p2align 3
.L359:
	call	omp_get_num_threads
	movslq	%eax, %r14
	call	omp_get_thread_num
	xorl	%edx, %edx
	movslq	%eax, %r9
	movq	-88(%rbp), %rax
	divq	%r14
	cmpq	%rdx, %r9
	jb	.L364
.L367:
	imulq	%rax, %r9
	addq	%r9, %rdx
	addq	%rdx, %rax
	cmpq	%rax, %rdx
	jnb	.L365
	movq	-96(%rbp), %rcx
	leaq	(%rcx,%rdx,2), %rdx
	leaq	(%rcx,%rax,2), %r9
	.p2align 4,,10
	.p2align 3
.L366:
	movzwl	(%rdx), %eax
	addq	$2, %rdx
	sarx	%r15d, %eax, %eax
	cltq
	incb	(%rsi,%rax)
	cmpq	%rdx, %r9
	jne	.L366
	jmp	.L365
	.p2align 4,,10
	.p2align 3
.L364:
	incq	%rax
	xorl	%edx, %edx
	jmp	.L367
	.p2align 4,,10
	.p2align 3
.L376:
	leaq	-72(%rbp), %rsp
	popq	%rbx
	popq	%rsi
	popq	%rdi
	popq	%r12
	popq	%r13
	popq	%r14
	popq	%r15
	popq	%rbp
	ret
	.seh_handler	__gxx_personality_seh0, @unwind, @except
	.seh_handlerdata
.LLSDA17059:
	.byte	0xff
	.byte	0xff
	.byte	0x1
	.uleb128 .LLSDACSE17059-.LLSDACSB17059
.LLSDACSB17059:
.LLSDACSE17059:
	.text
	.seh_endproc
	.p2align 4
	.def	_ZN11Histogram2DIydE10accumulateIdEEvPT_S3_y._omp_fn.0;	.scl	3;	.type	32;	.endef
	.seh_proc	_ZN11Histogram2DIydE10accumulateIdEEvPT_S3_y._omp_fn.0
_ZN11Histogram2DIydE10accumulateIdEEvPT_S3_y._omp_fn.0:
.LFB17060:
	pushq	%r12
	.seh_pushreg	%r12
	pushq	%rbp
	.seh_pushreg	%rbp
	pushq	%rdi
	.seh_pushreg	%rdi
	pushq	%rsi
	.seh_pushreg	%rsi
	pushq	%rbx
	.seh_pushreg	%rbx
	subq	$48, %rsp
	.seh_stackalloc	48
	vmovaps	%xmm6, 32(%rsp)
	.seh_savexmm	%xmm6, 32
	.seh_endprologue
	movq	16(%rcx), %rbp
	vmovsd	32(%rcx), %xmm6
	movq	24(%rcx), %rbx
	movq	8(%rcx), %rsi
	movq	(%rcx), %rdi
	call	_Z22manage_thread_affinityv
	call	omp_get_thread_num
	movl	%eax, %r12d
	testq	%rbp, %rbp
	jne	.L380
.L382:
	vmovaps	32(%rsp), %xmm6
	addq	$48, %rsp
	popq	%rbx
	popq	%rsi
	popq	%rdi
	popq	%rbp
	popq	%r12
	jmp	GOMP_barrier
	.p2align 4,,10
	.p2align 3
.L380:
	call	omp_get_num_threads
	xorl	%edx, %edx
	movslq	%r12d, %r9
	movslq	%eax, %rcx
	movq	%rbp, %rax
	divq	%rcx
	cmpq	%rdx, %r9
	jb	.L381
.L392:
	movq	%rax, %rcx
	imulq	%r9, %rcx
	addq	%rcx, %rdx
	addq	%rdx, %rax
	cmpq	%rax, %rdx
	jnb	.L382
	vmovq	.LC0(%rip), %xmm4
	salq	$3, %r9
	vmovapd	%xmm4, %xmm5
	.p2align 4,,10
	.p2align 3
.L391:
	vmovsd	64(%rbx), %xmm0
	vmovsd	(%rdi,%rdx,8), %xmm1
	vmovsd	(%rsi,%rdx,8), %xmm2
	movl	(%rbx), %r8d
	vcomisd	%xmm0, %xmm1
	jb	.L396
	leal	-1(%r8), %ecx
	movzwl	%cx, %ecx
	imull	%r8d, %ecx
	jmp	.L385
	.p2align 4,,10
	.p2align 3
.L396:
	vmovapd	%xmm0, %xmm3
	xorl	%ecx, %ecx
	vxorpd	%xmm4, %xmm3, %xmm3
	vcomisd	%xmm1, %xmm3
	ja	.L385
	vaddsd	%xmm1, %xmm0, %xmm1
	vdivsd	%xmm6, %xmm1, %xmm1
	vcvttsd2sil	%xmm1, %ecx
	movzwl	%cx, %ecx
	imull	%r8d, %ecx
.L385:
	vcomisd	%xmm0, %xmm2
	jb	.L397
	decl	%r8d
	movzwl	%r8w, %r8d
	addl	%r8d, %ecx
	jmp	.L388
	.p2align 4,,10
	.p2align 3
.L397:
	vmovapd	%xmm0, %xmm1
	vxorpd	%xmm5, %xmm1, %xmm1
	vcomisd	%xmm2, %xmm1
	ja	.L388
	vaddsd	%xmm2, %xmm0, %xmm0
	vdivsd	%xmm6, %xmm0, %xmm0
	vcvttsd2sil	%xmm0, %r8d
	movzwl	%r8w, %r8d
	addl	%r8d, %ecx
.L388:
	movq	56(%rbx), %r8
	movq	(%r8,%r9), %r10
	addq	%rcx, %r10
	movzbl	(%r10), %r8d
	cmpb	$-1, %r8b
	jne	.L389
	movq	24(%rbx), %r8
	lock addq	$256, (%r8,%rcx,8)
	movq	56(%rbx), %r8
	addq	(%r8,%r9), %rcx
	incb	(%rcx)
	incq	%rdx
	cmpq	%rax, %rdx
	jne	.L391
	jmp	.L382
	.p2align 4,,10
	.p2align 3
.L389:
	incl	%r8d
	incq	%rdx
	movb	%r8b, (%r10)
	cmpq	%rdx, %rax
	jne	.L391
	jmp	.L382
	.p2align 4,,10
	.p2align 3
.L381:
	incq	%rax
	xorl	%edx, %edx
	jmp	.L392
	.seh_handler	__gxx_personality_seh0, @unwind, @except
	.seh_handlerdata
.LLSDA17060:
	.byte	0xff
	.byte	0xff
	.byte	0x1
	.uleb128 .LLSDACSE17060-.LLSDACSB17060
.LLSDACSB17060:
.LLSDACSE17060:
	.text
	.seh_endproc
	.p2align 4
	.def	_ZN11Histogram2DIydE19reduction_and_resetEv._omp_fn.0;	.scl	3;	.type	32;	.endef
	.seh_proc	_ZN11Histogram2DIydE19reduction_and_resetEv._omp_fn.0
_ZN11Histogram2DIydE19reduction_and_resetEv._omp_fn.0:
.LFB17061:
	pushq	%rbp
	.seh_pushreg	%rbp
	pushq	%rdi
	.seh_pushreg	%rdi
	pushq	%rsi
	.seh_pushreg	%rsi
	pushq	%rbx
	.seh_pushreg	%rbx
	subq	$40, %rsp
	.seh_stackalloc	40
	.seh_endprologue
	movq	(%rcx), %rdi
	xorl	%esi, %esi
	call	_Z22manage_thread_affinityv
	movl	4(%rdi), %eax
	testl	%eax, %eax
	jle	.L398
	.p2align 4,,10
	.p2align 3
.L399:
	movl	(%rdi), %eax
	imull	%eax, %eax
	movl	%eax, %ebx
	testl	%eax, %eax
	jne	.L400
	.p2align 4,,10
	.p2align 3
.L403:
	call	GOMP_barrier
	incq	%rsi
	cmpl	%esi, 4(%rdi)
	jg	.L399
	jmp	.L398
	.p2align 4,,10
	.p2align 3
.L400:
	call	omp_get_num_threads
	movl	%eax, %ebp
	call	omp_get_thread_num
	movslq	%ebp, %r8
	xorl	%edx, %edx
	movslq	%eax, %rcx
	movq	%rbx, %rax
	divq	%r8
	cmpq	%rdx, %rcx
	jb	.L402
.L405:
	imulq	%rax, %rcx
	addq	%rcx, %rdx
	addq	%rdx, %rax
	cmpq	%rax, %rdx
	jnb	.L403
	leaq	0(,%rsi,8), %r10
	.p2align 4,,10
	.p2align 3
.L404:
	movq	56(%rdi), %rcx
	movq	24(%rdi), %r8
	movq	(%rcx,%r10), %rbx
	addq	%rdx, %rbx
	movzbl	(%rbx), %r9d
	addq	%r9, (%r8,%rdx,8)
	incq	%rdx
	movb	$0, (%rbx)
	cmpq	%rdx, %rax
	jne	.L404
	jmp	.L403
	.p2align 4,,10
	.p2align 3
.L402:
	incq	%rax
	xorl	%edx, %edx
	jmp	.L405
	.p2align 4,,10
	.p2align 3
.L398:
	addq	$40, %rsp
	popq	%rbx
	popq	%rsi
	popq	%rdi
	popq	%rbp
	ret
	.seh_handler	__gxx_personality_seh0, @unwind, @except
	.seh_handlerdata
.LLSDA17061:
	.byte	0xff
	.byte	0xff
	.byte	0x1
	.uleb128 .LLSDACSE17061-.LLSDACSB17061
.LLSDACSB17061:
.LLSDACSE17061:
	.text
	.seh_endproc
	.p2align 4
	.def	_ZN11Histogram2DIyfE10accumulateIfEEvPT_S3_y._omp_fn.0;	.scl	3;	.type	32;	.endef
	.seh_proc	_ZN11Histogram2DIyfE10accumulateIfEEvPT_S3_y._omp_fn.0
_ZN11Histogram2DIyfE10accumulateIfEEvPT_S3_y._omp_fn.0:
.LFB17062:
	pushq	%r12
	.seh_pushreg	%r12
	pushq	%rbp
	.seh_pushreg	%rbp
	pushq	%rdi
	.seh_pushreg	%rdi
	pushq	%rsi
	.seh_pushreg	%rsi
	pushq	%rbx
	.seh_pushreg	%rbx
	subq	$48, %rsp
	.seh_stackalloc	48
	vmovaps	%xmm6, 32(%rsp)
	.seh_savexmm	%xmm6, 32
	.seh_endprologue
	movq	16(%rcx), %rbp
	vmovss	32(%rcx), %xmm6
	movq	24(%rcx), %rbx
	movq	8(%rcx), %rsi
	movq	(%rcx), %rdi
	call	_Z22manage_thread_affinityv
	call	omp_get_thread_num
	movl	%eax, %r12d
	testq	%rbp, %rbp
	jne	.L410
.L412:
	vmovaps	32(%rsp), %xmm6
	addq	$48, %rsp
	popq	%rbx
	popq	%rsi
	popq	%rdi
	popq	%rbp
	popq	%r12
	jmp	GOMP_barrier
	.p2align 4,,10
	.p2align 3
.L410:
	call	omp_get_num_threads
	xorl	%edx, %edx
	movslq	%r12d, %r9
	movslq	%eax, %rcx
	movq	%rbp, %rax
	divq	%rcx
	cmpq	%rdx, %r9
	jb	.L411
.L422:
	movq	%rax, %rcx
	imulq	%r9, %rcx
	addq	%rcx, %rdx
	addq	%rdx, %rax
	cmpq	%rax, %rdx
	jnb	.L412
	vmovss	.LC2(%rip), %xmm4
	salq	$3, %r9
	vmovaps	%xmm4, %xmm5
	.p2align 4,,10
	.p2align 3
.L421:
	vmovss	64(%rbx), %xmm0
	vmovss	(%rdi,%rdx,4), %xmm1
	vmovss	(%rsi,%rdx,4), %xmm2
	movl	(%rbx), %r8d
	vcomiss	%xmm0, %xmm1
	jb	.L426
	leal	-1(%r8), %ecx
	movzwl	%cx, %ecx
	imull	%r8d, %ecx
	jmp	.L415
	.p2align 4,,10
	.p2align 3
.L426:
	vmovaps	%xmm0, %xmm3
	xorl	%ecx, %ecx
	vxorps	%xmm4, %xmm3, %xmm3
	vcomiss	%xmm1, %xmm3
	ja	.L415
	vaddss	%xmm1, %xmm0, %xmm1
	vdivss	%xmm6, %xmm1, %xmm1
	vcvttss2sil	%xmm1, %ecx
	movzwl	%cx, %ecx
	imull	%r8d, %ecx
.L415:
	vcomiss	%xmm0, %xmm2
	jb	.L427
	decl	%r8d
	movzwl	%r8w, %r8d
	addl	%r8d, %ecx
	jmp	.L418
	.p2align 4,,10
	.p2align 3
.L427:
	vmovaps	%xmm0, %xmm1
	vxorps	%xmm5, %xmm1, %xmm1
	vcomiss	%xmm2, %xmm1
	ja	.L418
	vaddss	%xmm2, %xmm0, %xmm0
	vdivss	%xmm6, %xmm0, %xmm0
	vcvttss2sil	%xmm0, %r8d
	movzwl	%r8w, %r8d
	addl	%r8d, %ecx
.L418:
	movq	56(%rbx), %r8
	movq	(%r8,%r9), %r10
	addq	%rcx, %r10
	movzbl	(%r10), %r8d
	cmpb	$-1, %r8b
	jne	.L419
	movq	24(%rbx), %r8
	lock addq	$256, (%r8,%rcx,8)
	movq	56(%rbx), %r8
	addq	(%r8,%r9), %rcx
	incb	(%rcx)
	incq	%rdx
	cmpq	%rax, %rdx
	jne	.L421
	jmp	.L412
	.p2align 4,,10
	.p2align 3
.L419:
	incl	%r8d
	incq	%rdx
	movb	%r8b, (%r10)
	cmpq	%rdx, %rax
	jne	.L421
	jmp	.L412
	.p2align 4,,10
	.p2align 3
.L411:
	incq	%rax
	xorl	%edx, %edx
	jmp	.L422
	.seh_handler	__gxx_personality_seh0, @unwind, @except
	.seh_handlerdata
.LLSDA17062:
	.byte	0xff
	.byte	0xff
	.byte	0x1
	.uleb128 .LLSDACSE17062-.LLSDACSB17062
.LLSDACSB17062:
.LLSDACSE17062:
	.text
	.seh_endproc
	.p2align 4
	.def	_ZN11Histogram2DIyfE19reduction_and_resetEv._omp_fn.0;	.scl	3;	.type	32;	.endef
	.seh_proc	_ZN11Histogram2DIyfE19reduction_and_resetEv._omp_fn.0
_ZN11Histogram2DIyfE19reduction_and_resetEv._omp_fn.0:
.LFB17063:
	pushq	%rbp
	.seh_pushreg	%rbp
	pushq	%rdi
	.seh_pushreg	%rdi
	pushq	%rsi
	.seh_pushreg	%rsi
	pushq	%rbx
	.seh_pushreg	%rbx
	subq	$40, %rsp
	.seh_stackalloc	40
	.seh_endprologue
	movq	(%rcx), %rdi
	xorl	%esi, %esi
	call	_Z22manage_thread_affinityv
	movl	4(%rdi), %eax
	testl	%eax, %eax
	jle	.L428
	.p2align 4,,10
	.p2align 3
.L429:
	movl	(%rdi), %eax
	imull	%eax, %eax
	movl	%eax, %ebx
	testl	%eax, %eax
	jne	.L430
	.p2align 4,,10
	.p2align 3
.L433:
	call	GOMP_barrier
	incq	%rsi
	cmpl	%esi, 4(%rdi)
	jg	.L429
	jmp	.L428
	.p2align 4,,10
	.p2align 3
.L430:
	call	omp_get_num_threads
	movl	%eax, %ebp
	call	omp_get_thread_num
	movslq	%ebp, %r8
	xorl	%edx, %edx
	movslq	%eax, %rcx
	movq	%rbx, %rax
	divq	%r8
	cmpq	%rdx, %rcx
	jb	.L432
.L435:
	imulq	%rax, %rcx
	addq	%rcx, %rdx
	addq	%rdx, %rax
	cmpq	%rax, %rdx
	jnb	.L433
	leaq	0(,%rsi,8), %r10
	.p2align 4,,10
	.p2align 3
.L434:
	movq	56(%rdi), %rcx
	movq	24(%rdi), %r8
	movq	(%rcx,%r10), %rbx
	addq	%rdx, %rbx
	movzbl	(%rbx), %r9d
	addq	%r9, (%r8,%rdx,8)
	incq	%rdx
	movb	$0, (%rbx)
	cmpq	%rdx, %rax
	jne	.L434
	jmp	.L433
	.p2align 4,,10
	.p2align 3
.L432:
	incq	%rax
	xorl	%edx, %edx
	jmp	.L435
	.p2align 4,,10
	.p2align 3
.L428:
	addq	$40, %rsp
	popq	%rbx
	popq	%rsi
	popq	%rdi
	popq	%rbp
	ret
	.seh_handler	__gxx_personality_seh0, @unwind, @except
	.seh_handlerdata
.LLSDA17063:
	.byte	0xff
	.byte	0xff
	.byte	0x1
	.uleb128 .LLSDACSE17063-.LLSDACSB17063
.LLSDACSB17063:
.LLSDACSE17063:
	.text
	.seh_endproc
	.p2align 4
	.def	_ZN11Histogram2DIyhE10accumulateIhEEvPT_S3_y._omp_fn.0;	.scl	3;	.type	32;	.endef
	.seh_proc	_ZN11Histogram2DIyhE10accumulateIhEEvPT_S3_y._omp_fn.0
_ZN11Histogram2DIyhE10accumulateIhEEvPT_S3_y._omp_fn.0:
.LFB17064:
	pushq	%r12
	.seh_pushreg	%r12
	pushq	%rbp
	.seh_pushreg	%rbp
	pushq	%rdi
	.seh_pushreg	%rdi
	pushq	%rsi
	.seh_pushreg	%rsi
	pushq	%rbx
	.seh_pushreg	%rbx
	subq	$32, %rsp
	.seh_stackalloc	32
	.seh_endprologue
	movq	16(%rcx), %rbp
	movq	24(%rcx), %rbx
	movq	8(%rcx), %rsi
	movq	(%rcx), %rdi
	call	_Z22manage_thread_affinityv
	call	omp_get_thread_num
	movl	%eax, %r12d
	testq	%rbp, %rbp
	je	.L439
	call	omp_get_num_threads
	xorl	%edx, %edx
	movslq	%r12d, %r9
	movslq	%eax, %rcx
	movq	%rbp, %rax
	divq	%rcx
	cmpq	%rdx, %r9
	jb	.L441
.L446:
	movq	%rax, %rcx
	imulq	%r9, %rcx
	addq	%rcx, %rdx
	addq	%rdx, %rax
	cmpq	%rax, %rdx
	jnb	.L439
	salq	$3, %r9
	.p2align 4,,10
	.p2align 3
.L445:
	movzbl	(%rdi,%rdx), %ecx
	movzbl	(%rsi,%rdx), %r8d
	sall	$8, %ecx
	addl	%r8d, %ecx
	movq	56(%rbx), %r8
	movslq	%ecx, %rcx
	movq	(%r8,%r9), %r10
	addq	%rcx, %r10
	movzbl	(%r10), %r8d
	cmpb	$-1, %r8b
	jne	.L443
	movq	24(%rbx), %r8
	lock addq	$256, (%r8,%rcx,8)
	movq	56(%rbx), %r8
	addq	(%r8,%r9), %rcx
	incb	(%rcx)
	incq	%rdx
	cmpq	%rdx, %rax
	jne	.L445
	jmp	.L439
	.p2align 4,,10
	.p2align 3
.L443:
	incl	%r8d
	incq	%rdx
	movb	%r8b, (%r10)
	cmpq	%rdx, %rax
	jne	.L445
	jmp	.L439
	.p2align 4,,10
	.p2align 3
.L441:
	incq	%rax
	xorl	%edx, %edx
	jmp	.L446
	.p2align 4,,10
	.p2align 3
.L439:
	addq	$32, %rsp
	popq	%rbx
	popq	%rsi
	popq	%rdi
	popq	%rbp
	popq	%r12
	ret
	.seh_handler	__gxx_personality_seh0, @unwind, @except
	.seh_handlerdata
.LLSDA17064:
	.byte	0xff
	.byte	0xff
	.byte	0x1
	.uleb128 .LLSDACSE17064-.LLSDACSB17064
.LLSDACSB17064:
.LLSDACSE17064:
	.text
	.seh_endproc
	.p2align 4
	.def	_ZN11Histogram2DIyhE19reduction_and_resetEv._omp_fn.0;	.scl	3;	.type	32;	.endef
	.seh_proc	_ZN11Histogram2DIyhE19reduction_and_resetEv._omp_fn.0
_ZN11Histogram2DIyhE19reduction_and_resetEv._omp_fn.0:
.LFB17065:
	pushq	%rbp
	.seh_pushreg	%rbp
	pushq	%rdi
	.seh_pushreg	%rdi
	pushq	%rsi
	.seh_pushreg	%rsi
	pushq	%rbx
	.seh_pushreg	%rbx
	subq	$40, %rsp
	.seh_stackalloc	40
	.seh_endprologue
	movq	(%rcx), %rdi
	xorl	%esi, %esi
	call	_Z22manage_thread_affinityv
	movl	4(%rdi), %eax
	testl	%eax, %eax
	jle	.L447
	.p2align 4,,10
	.p2align 3
.L448:
	movl	(%rdi), %eax
	imull	%eax, %eax
	movl	%eax, %ebx
	testl	%eax, %eax
	jne	.L449
	.p2align 4,,10
	.p2align 3
.L452:
	call	GOMP_barrier
	incq	%rsi
	cmpl	%esi, 4(%rdi)
	jg	.L448
	jmp	.L447
	.p2align 4,,10
	.p2align 3
.L449:
	call	omp_get_num_threads
	movl	%eax, %ebp
	call	omp_get_thread_num
	movslq	%ebp, %r8
	xorl	%edx, %edx
	movslq	%eax, %rcx
	movq	%rbx, %rax
	divq	%r8
	cmpq	%rdx, %rcx
	jb	.L451
.L454:
	imulq	%rax, %rcx
	addq	%rcx, %rdx
	addq	%rdx, %rax
	cmpq	%rax, %rdx
	jnb	.L452
	leaq	0(,%rsi,8), %r10
	.p2align 4,,10
	.p2align 3
.L453:
	movq	56(%rdi), %rcx
	movq	24(%rdi), %r8
	movq	(%rcx,%r10), %rbx
	addq	%rdx, %rbx
	movzbl	(%rbx), %r9d
	addq	%r9, (%r8,%rdx,8)
	incq	%rdx
	movb	$0, (%rbx)
	cmpq	%rdx, %rax
	jne	.L453
	jmp	.L452
	.p2align 4,,10
	.p2align 3
.L451:
	incq	%rax
	xorl	%edx, %edx
	jmp	.L454
	.p2align 4,,10
	.p2align 3
.L447:
	addq	$40, %rsp
	popq	%rbx
	popq	%rsi
	popq	%rdi
	popq	%rbp
	ret
	.seh_handler	__gxx_personality_seh0, @unwind, @except
	.seh_handlerdata
.LLSDA17065:
	.byte	0xff
	.byte	0xff
	.byte	0x1
	.uleb128 .LLSDACSE17065-.LLSDACSB17065
.LLSDACSB17065:
.LLSDACSE17065:
	.text
	.seh_endproc
	.p2align 4
	.def	_ZN11Histogram2DIytE10accumulateItEEvPT_S3_y._omp_fn.0;	.scl	3;	.type	32;	.endef
	.seh_proc	_ZN11Histogram2DIytE10accumulateItEEvPT_S3_y._omp_fn.0
_ZN11Histogram2DIytE10accumulateItEEvPT_S3_y._omp_fn.0:
.LFB17066:
	pushq	%r14
	.seh_pushreg	%r14
	pushq	%r13
	.seh_pushreg	%r13
	pushq	%r12
	.seh_pushreg	%r12
	pushq	%rbp
	.seh_pushreg	%rbp
	pushq	%rdi
	.seh_pushreg	%rdi
	pushq	%rsi
	.seh_pushreg	%rsi
	pushq	%rbx
	.seh_pushreg	%rbx
	subq	$32, %rsp
	.seh_stackalloc	32
	.seh_endprologue
	movq	16(%rcx), %r13
	movl	36(%rcx), %ebx
	movl	32(%rcx), %edi
	movq	24(%rcx), %rsi
	movq	8(%rcx), %rbp
	movq	(%rcx), %r12
	call	_Z22manage_thread_affinityv
	call	omp_get_thread_num
	movl	%eax, %r14d
	testq	%r13, %r13
	je	.L458
	call	omp_get_num_threads
	xorl	%edx, %edx
	movslq	%r14d, %r9
	movslq	%eax, %rcx
	movq	%r13, %rax
	divq	%rcx
	cmpq	%rdx, %r9
	jb	.L460
.L465:
	movq	%rax, %rcx
	imulq	%r9, %rcx
	addq	%rcx, %rdx
	addq	%rdx, %rax
	cmpq	%rax, %rdx
	jnb	.L458
	salq	$3, %r9
	.p2align 4,,10
	.p2align 3
.L464:
	movzwl	(%r12,%rdx,2), %ecx
	movzwl	0(%rbp,%rdx,2), %r8d
	sarx	%ebx, %ecx, %ecx
	sarx	%ebx, %r8d, %r8d
	shlx	%edi, %ecx, %ecx
	addl	%ecx, %r8d
	movq	56(%rsi), %rcx
	movq	(%rcx,%r9), %r10
	addq	%r8, %r10
	movzbl	(%r10), %ecx
	cmpb	$-1, %cl
	jne	.L462
	movq	24(%rsi), %rcx
	lock addq	$256, (%rcx,%r8,8)
	movq	56(%rsi), %rcx
	addq	(%rcx,%r9), %r8
	incb	(%r8)
	incq	%rdx
	cmpq	%rdx, %rax
	jne	.L464
	jmp	.L458
	.p2align 4,,10
	.p2align 3
.L462:
	incl	%ecx
	incq	%rdx
	movb	%cl, (%r10)
	cmpq	%rdx, %rax
	jne	.L464
	jmp	.L458
	.p2align 4,,10
	.p2align 3
.L460:
	incq	%rax
	xorl	%edx, %edx
	jmp	.L465
	.p2align 4,,10
	.p2align 3
.L458:
	addq	$32, %rsp
	popq	%rbx
	popq	%rsi
	popq	%rdi
	popq	%rbp
	popq	%r12
	popq	%r13
	popq	%r14
	ret
	.seh_handler	__gxx_personality_seh0, @unwind, @except
	.seh_handlerdata
.LLSDA17066:
	.byte	0xff
	.byte	0xff
	.byte	0x1
	.uleb128 .LLSDACSE17066-.LLSDACSB17066
.LLSDACSB17066:
.LLSDACSE17066:
	.text
	.seh_endproc
	.p2align 4
	.def	_ZN11Histogram2DIytE19reduction_and_resetEv._omp_fn.0;	.scl	3;	.type	32;	.endef
	.seh_proc	_ZN11Histogram2DIytE19reduction_and_resetEv._omp_fn.0
_ZN11Histogram2DIytE19reduction_and_resetEv._omp_fn.0:
.LFB17067:
	pushq	%rbp
	.seh_pushreg	%rbp
	pushq	%rdi
	.seh_pushreg	%rdi
	pushq	%rsi
	.seh_pushreg	%rsi
	pushq	%rbx
	.seh_pushreg	%rbx
	subq	$40, %rsp
	.seh_stackalloc	40
	.seh_endprologue
	movq	(%rcx), %rdi
	xorl	%esi, %esi
	call	_Z22manage_thread_affinityv
	movl	4(%rdi), %eax
	testl	%eax, %eax
	jle	.L466
	.p2align 4,,10
	.p2align 3
.L467:
	movl	(%rdi), %eax
	imull	%eax, %eax
	movl	%eax, %ebx
	testl	%eax, %eax
	jne	.L468
	.p2align 4,,10
	.p2align 3
.L471:
	call	GOMP_barrier
	incq	%rsi
	cmpl	%esi, 4(%rdi)
	jg	.L467
	jmp	.L466
	.p2align 4,,10
	.p2align 3
.L468:
	call	omp_get_num_threads
	movl	%eax, %ebp
	call	omp_get_thread_num
	movslq	%ebp, %r8
	xorl	%edx, %edx
	movslq	%eax, %rcx
	movq	%rbx, %rax
	divq	%r8
	cmpq	%rdx, %rcx
	jb	.L470
.L473:
	imulq	%rax, %rcx
	addq	%rcx, %rdx
	addq	%rdx, %rax
	cmpq	%rax, %rdx
	jnb	.L471
	leaq	0(,%rsi,8), %r10
	.p2align 4,,10
	.p2align 3
.L472:
	movq	56(%rdi), %rcx
	movq	24(%rdi), %r8
	movq	(%rcx,%r10), %rbx
	addq	%rdx, %rbx
	movzbl	(%rbx), %r9d
	addq	%r9, (%r8,%rdx,8)
	incq	%rdx
	movb	$0, (%rbx)
	cmpq	%rdx, %rax
	jne	.L472
	jmp	.L471
	.p2align 4,,10
	.p2align 3
.L470:
	incq	%rax
	xorl	%edx, %edx
	jmp	.L473
	.p2align 4,,10
	.p2align 3
.L466:
	addq	$40, %rsp
	popq	%rbx
	popq	%rsi
	popq	%rdi
	popq	%rbp
	ret
	.seh_handler	__gxx_personality_seh0, @unwind, @except
	.seh_handlerdata
.LLSDA17067:
	.byte	0xff
	.byte	0xff
	.byte	0x1
	.uleb128 .LLSDACSE17067-.LLSDACSB17067
.LLSDACSB17067:
.LLSDACSE17067:
	.text
	.seh_endproc
	.p2align 4
	.def	_ZN11Histogram2DIyaE10accumulateIaEEvPT_S3_y._omp_fn.0;	.scl	3;	.type	32;	.endef
	.seh_proc	_ZN11Histogram2DIyaE10accumulateIaEEvPT_S3_y._omp_fn.0
_ZN11Histogram2DIyaE10accumulateIaEEvPT_S3_y._omp_fn.0:
.LFB17068:
	pushq	%r12
	.seh_pushreg	%r12
	pushq	%rbp
	.seh_pushreg	%rbp
	pushq	%rdi
	.seh_pushreg	%rdi
	pushq	%rsi
	.seh_pushreg	%rsi
	pushq	%rbx
	.seh_pushreg	%rbx
	subq	$32, %rsp
	.seh_stackalloc	32
	.seh_endprologue
	movq	(%rcx), %rbp
	movq	24(%rcx), %rsi
	movq	16(%rcx), %rdi
	movq	8(%rcx), %rbx
	call	_Z22manage_thread_affinityv
	call	omp_get_thread_num
	movl	%eax, %r12d
	testq	%rbp, %rbp
	je	.L477
	call	omp_get_num_threads
	xorl	%edx, %edx
	movslq	%r12d, %r9
	movslq	%eax, %rcx
	movq	%rbp, %rax
	divq	%rcx
	cmpq	%rdx, %r9
	jb	.L479
.L484:
	movq	%rax, %rcx
	imulq	%r9, %rcx
	addq	%rcx, %rdx
	addq	%rdx, %rax
	cmpq	%rax, %rdx
	jnb	.L477
	salq	$3, %r9
	.p2align 4,,10
	.p2align 3
.L483:
	movzbl	(%rdi,%rdx), %ecx
	movzbl	(%rsi,%rdx), %r8d
	sall	$8, %ecx
	addl	%r8d, %ecx
	movq	56(%rbx), %r8
	movslq	%ecx, %rcx
	movq	(%r8,%r9), %r10
	addq	%rcx, %r10
	movzbl	(%r10), %r8d
	cmpb	$-1, %r8b
	jne	.L481
	movq	24(%rbx), %r8
	lock addq	$256, (%r8,%rcx,8)
	movq	56(%rbx), %r8
	addq	(%r8,%r9), %rcx
	incb	(%rcx)
	incq	%rdx
	cmpq	%rdx, %rax
	jne	.L483
	jmp	.L477
	.p2align 4,,10
	.p2align 3
.L481:
	incl	%r8d
	incq	%rdx
	movb	%r8b, (%r10)
	cmpq	%rdx, %rax
	jne	.L483
	jmp	.L477
	.p2align 4,,10
	.p2align 3
.L479:
	incq	%rax
	xorl	%edx, %edx
	jmp	.L484
	.p2align 4,,10
	.p2align 3
.L477:
	addq	$32, %rsp
	popq	%rbx
	popq	%rsi
	popq	%rdi
	popq	%rbp
	popq	%r12
	ret
	.seh_handler	__gxx_personality_seh0, @unwind, @except
	.seh_handlerdata
.LLSDA17068:
	.byte	0xff
	.byte	0xff
	.byte	0x1
	.uleb128 .LLSDACSE17068-.LLSDACSB17068
.LLSDACSB17068:
.LLSDACSE17068:
	.text
	.seh_endproc
	.p2align 4
	.def	_ZN11Histogram2DIyaE19reduction_and_resetEv._omp_fn.0;	.scl	3;	.type	32;	.endef
	.seh_proc	_ZN11Histogram2DIyaE19reduction_and_resetEv._omp_fn.0
_ZN11Histogram2DIyaE19reduction_and_resetEv._omp_fn.0:
.LFB17069:
	pushq	%rbp
	.seh_pushreg	%rbp
	pushq	%rdi
	.seh_pushreg	%rdi
	pushq	%rsi
	.seh_pushreg	%rsi
	pushq	%rbx
	.seh_pushreg	%rbx
	subq	$40, %rsp
	.seh_stackalloc	40
	.seh_endprologue
	movq	(%rcx), %rdi
	xorl	%esi, %esi
	call	_Z22manage_thread_affinityv
	movl	4(%rdi), %eax
	testl	%eax, %eax
	jle	.L485
	.p2align 4,,10
	.p2align 3
.L486:
	movl	(%rdi), %eax
	imull	%eax, %eax
	movl	%eax, %ebx
	testl	%eax, %eax
	jne	.L487
	.p2align 4,,10
	.p2align 3
.L490:
	call	GOMP_barrier
	incq	%rsi
	cmpl	%esi, 4(%rdi)
	jg	.L486
	jmp	.L485
	.p2align 4,,10
	.p2align 3
.L487:
	call	omp_get_num_threads
	movl	%eax, %ebp
	call	omp_get_thread_num
	movslq	%ebp, %r8
	xorl	%edx, %edx
	movslq	%eax, %rcx
	movq	%rbx, %rax
	divq	%r8
	cmpq	%rdx, %rcx
	jb	.L489
.L492:
	imulq	%rax, %rcx
	addq	%rcx, %rdx
	addq	%rdx, %rax
	cmpq	%rax, %rdx
	jnb	.L490
	leaq	0(,%rsi,8), %r10
	.p2align 4,,10
	.p2align 3
.L491:
	movq	56(%rdi), %rcx
	movq	24(%rdi), %r8
	movq	(%rcx,%r10), %rbx
	addq	%rdx, %rbx
	movzbl	(%rbx), %r9d
	addq	%r9, (%r8,%rdx,8)
	incq	%rdx
	movb	$0, (%rbx)
	cmpq	%rdx, %rax
	jne	.L491
	jmp	.L490
	.p2align 4,,10
	.p2align 3
.L489:
	incq	%rax
	xorl	%edx, %edx
	jmp	.L492
	.p2align 4,,10
	.p2align 3
.L485:
	addq	$40, %rsp
	popq	%rbx
	popq	%rsi
	popq	%rdi
	popq	%rbp
	ret
	.seh_handler	__gxx_personality_seh0, @unwind, @except
	.seh_handlerdata
.LLSDA17069:
	.byte	0xff
	.byte	0xff
	.byte	0x1
	.uleb128 .LLSDACSE17069-.LLSDACSB17069
.LLSDACSB17069:
.LLSDACSE17069:
	.text
	.seh_endproc
	.p2align 4
	.def	_ZN11Histogram2DIysE10accumulateIsEEvPT_S3_y._omp_fn.0;	.scl	3;	.type	32;	.endef
	.seh_proc	_ZN11Histogram2DIysE10accumulateIsEEvPT_S3_y._omp_fn.0
_ZN11Histogram2DIysE10accumulateIsEEvPT_S3_y._omp_fn.0:
.LFB17070:
	pushq	%r14
	.seh_pushreg	%r14
	pushq	%r13
	.seh_pushreg	%r13
	pushq	%r12
	.seh_pushreg	%r12
	pushq	%rbp
	.seh_pushreg	%rbp
	pushq	%rdi
	.seh_pushreg	%rdi
	pushq	%rsi
	.seh_pushreg	%rsi
	pushq	%rbx
	.seh_pushreg	%rbx
	subq	$32, %rsp
	.seh_stackalloc	32
	.seh_endprologue
	movq	(%rcx), %r13
	movl	36(%rcx), %ebx
	movl	32(%rcx), %edi
	movq	24(%rcx), %rbp
	movq	16(%rcx), %r12
	movq	8(%rcx), %rsi
	call	_Z22manage_thread_affinityv
	call	omp_get_thread_num
	movl	%eax, %r14d
	testq	%r13, %r13
	je	.L496
	call	omp_get_num_threads
	xorl	%edx, %edx
	movslq	%r14d, %r9
	movslq	%eax, %rcx
	movq	%r13, %rax
	divq	%rcx
	cmpq	%rdx, %r9
	jb	.L498
.L503:
	movq	%rax, %rcx
	imulq	%r9, %rcx
	addq	%rcx, %rdx
	addq	%rdx, %rax
	cmpq	%rax, %rdx
	jnb	.L496
	salq	$3, %r9
	.p2align 4,,10
	.p2align 3
.L502:
	movzbl	(%r12,%rdx), %ecx
	movzbl	0(%rbp,%rdx), %r8d
	sarx	%ebx, %ecx, %ecx
	sarx	%ebx, %r8d, %r8d
	shlx	%edi, %ecx, %ecx
	addl	%ecx, %r8d
	movq	56(%rsi), %rcx
	movq	(%rcx,%r9), %r10
	addq	%r8, %r10
	movzbl	(%r10), %ecx
	cmpb	$-1, %cl
	jne	.L500
	movq	24(%rsi), %rcx
	lock addq	$256, (%rcx,%r8,8)
	movq	56(%rsi), %rcx
	addq	(%rcx,%r9), %r8
	incb	(%r8)
	incq	%rdx
	cmpq	%rdx, %rax
	jne	.L502
	jmp	.L496
	.p2align 4,,10
	.p2align 3
.L500:
	incl	%ecx
	incq	%rdx
	movb	%cl, (%r10)
	cmpq	%rdx, %rax
	jne	.L502
	jmp	.L496
	.p2align 4,,10
	.p2align 3
.L498:
	incq	%rax
	xorl	%edx, %edx
	jmp	.L503
	.p2align 4,,10
	.p2align 3
.L496:
	addq	$32, %rsp
	popq	%rbx
	popq	%rsi
	popq	%rdi
	popq	%rbp
	popq	%r12
	popq	%r13
	popq	%r14
	ret
	.seh_handler	__gxx_personality_seh0, @unwind, @except
	.seh_handlerdata
.LLSDA17070:
	.byte	0xff
	.byte	0xff
	.byte	0x1
	.uleb128 .LLSDACSE17070-.LLSDACSB17070
.LLSDACSB17070:
.LLSDACSE17070:
	.text
	.seh_endproc
	.p2align 4
	.def	_ZN11Histogram2DIysE19reduction_and_resetEv._omp_fn.0;	.scl	3;	.type	32;	.endef
	.seh_proc	_ZN11Histogram2DIysE19reduction_and_resetEv._omp_fn.0
_ZN11Histogram2DIysE19reduction_and_resetEv._omp_fn.0:
.LFB17071:
	pushq	%rbp
	.seh_pushreg	%rbp
	pushq	%rdi
	.seh_pushreg	%rdi
	pushq	%rsi
	.seh_pushreg	%rsi
	pushq	%rbx
	.seh_pushreg	%rbx
	subq	$40, %rsp
	.seh_stackalloc	40
	.seh_endprologue
	movq	(%rcx), %rdi
	xorl	%esi, %esi
	call	_Z22manage_thread_affinityv
	movl	4(%rdi), %eax
	testl	%eax, %eax
	jle	.L504
	.p2align 4,,10
	.p2align 3
.L505:
	movl	(%rdi), %eax
	imull	%eax, %eax
	movl	%eax, %ebx
	testl	%eax, %eax
	jne	.L506
	.p2align 4,,10
	.p2align 3
.L509:
	call	GOMP_barrier
	incq	%rsi
	cmpl	%esi, 4(%rdi)
	jg	.L505
	jmp	.L504
	.p2align 4,,10
	.p2align 3
.L506:
	call	omp_get_num_threads
	movl	%eax, %ebp
	call	omp_get_thread_num
	movslq	%ebp, %r8
	xorl	%edx, %edx
	movslq	%eax, %rcx
	movq	%rbx, %rax
	divq	%r8
	cmpq	%rdx, %rcx
	jb	.L508
.L511:
	imulq	%rax, %rcx
	addq	%rcx, %rdx
	addq	%rdx, %rax
	cmpq	%rax, %rdx
	jnb	.L509
	leaq	0(,%rsi,8), %r10
	.p2align 4,,10
	.p2align 3
.L510:
	movq	56(%rdi), %rcx
	movq	24(%rdi), %r8
	movq	(%rcx,%r10), %rbx
	addq	%rdx, %rbx
	movzbl	(%rbx), %r9d
	addq	%r9, (%r8,%rdx,8)
	incq	%rdx
	movb	$0, (%rbx)
	cmpq	%rdx, %rax
	jne	.L510
	jmp	.L509
	.p2align 4,,10
	.p2align 3
.L508:
	incq	%rax
	xorl	%edx, %edx
	jmp	.L511
	.p2align 4,,10
	.p2align 3
.L504:
	addq	$40, %rsp
	popq	%rbx
	popq	%rsi
	popq	%rdi
	popq	%rbp
	ret
	.seh_handler	__gxx_personality_seh0, @unwind, @except
	.seh_handlerdata
.LLSDA17071:
	.byte	0xff
	.byte	0xff
	.byte	0x1
	.uleb128 .LLSDACSE17071-.LLSDACSB17071
.LLSDACSB17071:
.LLSDACSE17071:
	.text
	.seh_endproc
	.p2align 4
	.def	_ZN11Histogram2DIjdE10accumulateIdEEvPT_S3_y._omp_fn.0;	.scl	3;	.type	32;	.endef
	.seh_proc	_ZN11Histogram2DIjdE10accumulateIdEEvPT_S3_y._omp_fn.0
_ZN11Histogram2DIjdE10accumulateIdEEvPT_S3_y._omp_fn.0:
.LFB17072:
	pushq	%r12
	.seh_pushreg	%r12
	pushq	%rbp
	.seh_pushreg	%rbp
	pushq	%rdi
	.seh_pushreg	%rdi
	pushq	%rsi
	.seh_pushreg	%rsi
	pushq	%rbx
	.seh_pushreg	%rbx
	subq	$48, %rsp
	.seh_stackalloc	48
	vmovaps	%xmm6, 32(%rsp)
	.seh_savexmm	%xmm6, 32
	.seh_endprologue
	movq	16(%rcx), %rbp
	vmovsd	32(%rcx), %xmm6
	movq	24(%rcx), %rbx
	movq	8(%rcx), %rsi
	movq	(%rcx), %rdi
	call	_Z22manage_thread_affinityv
	call	omp_get_thread_num
	movl	%eax, %r12d
	testq	%rbp, %rbp
	jne	.L516
.L518:
	vmovaps	32(%rsp), %xmm6
	addq	$48, %rsp
	popq	%rbx
	popq	%rsi
	popq	%rdi
	popq	%rbp
	popq	%r12
	jmp	GOMP_barrier
	.p2align 4,,10
	.p2align 3
.L516:
	call	omp_get_num_threads
	xorl	%edx, %edx
	movslq	%r12d, %r9
	movslq	%eax, %rcx
	movq	%rbp, %rax
	divq	%rcx
	cmpq	%rdx, %r9
	jb	.L517
.L528:
	movq	%rax, %rcx
	imulq	%r9, %rcx
	addq	%rcx, %rdx
	addq	%rdx, %rax
	cmpq	%rax, %rdx
	jnb	.L518
	vmovq	.LC0(%rip), %xmm4
	salq	$3, %r9
	vmovapd	%xmm4, %xmm5
	.p2align 4,,10
	.p2align 3
.L527:
	vmovsd	64(%rbx), %xmm0
	vmovsd	(%rdi,%rdx,8), %xmm1
	vmovsd	(%rsi,%rdx,8), %xmm2
	movl	(%rbx), %r8d
	vcomisd	%xmm0, %xmm1
	jb	.L532
	leal	-1(%r8), %ecx
	movzwl	%cx, %ecx
	imull	%r8d, %ecx
	jmp	.L521
	.p2align 4,,10
	.p2align 3
.L532:
	vmovapd	%xmm0, %xmm3
	xorl	%ecx, %ecx
	vxorpd	%xmm4, %xmm3, %xmm3
	vcomisd	%xmm1, %xmm3
	ja	.L521
	vaddsd	%xmm1, %xmm0, %xmm1
	vdivsd	%xmm6, %xmm1, %xmm1
	vcvttsd2sil	%xmm1, %ecx
	movzwl	%cx, %ecx
	imull	%r8d, %ecx
.L521:
	vcomisd	%xmm0, %xmm2
	jb	.L533
	decl	%r8d
	movzwl	%r8w, %r8d
	addl	%r8d, %ecx
	jmp	.L524
	.p2align 4,,10
	.p2align 3
.L533:
	vmovapd	%xmm0, %xmm1
	vxorpd	%xmm5, %xmm1, %xmm1
	vcomisd	%xmm2, %xmm1
	ja	.L524
	vaddsd	%xmm2, %xmm0, %xmm0
	vdivsd	%xmm6, %xmm0, %xmm0
	vcvttsd2sil	%xmm0, %r8d
	movzwl	%r8w, %r8d
	addl	%r8d, %ecx
.L524:
	movq	56(%rbx), %r8
	movq	(%r8,%r9), %r10
	addq	%rcx, %r10
	movzbl	(%r10), %r8d
	cmpb	$-1, %r8b
	jne	.L525
	movq	24(%rbx), %r8
	lock addl	$256, (%r8,%rcx,4)
	movq	56(%rbx), %r8
	addq	(%r8,%r9), %rcx
	incb	(%rcx)
	incq	%rdx
	cmpq	%rax, %rdx
	jne	.L527
	jmp	.L518
	.p2align 4,,10
	.p2align 3
.L525:
	incl	%r8d
	incq	%rdx
	movb	%r8b, (%r10)
	cmpq	%rdx, %rax
	jne	.L527
	jmp	.L518
	.p2align 4,,10
	.p2align 3
.L517:
	incq	%rax
	xorl	%edx, %edx
	jmp	.L528
	.seh_handler	__gxx_personality_seh0, @unwind, @except
	.seh_handlerdata
.LLSDA17072:
	.byte	0xff
	.byte	0xff
	.byte	0x1
	.uleb128 .LLSDACSE17072-.LLSDACSB17072
.LLSDACSB17072:
.LLSDACSE17072:
	.text
	.seh_endproc
	.p2align 4
	.def	_ZN11Histogram2DIjdE19reduction_and_resetEv._omp_fn.0;	.scl	3;	.type	32;	.endef
	.seh_proc	_ZN11Histogram2DIjdE19reduction_and_resetEv._omp_fn.0
_ZN11Histogram2DIjdE19reduction_and_resetEv._omp_fn.0:
.LFB17073:
	pushq	%rbp
	.seh_pushreg	%rbp
	pushq	%rdi
	.seh_pushreg	%rdi
	pushq	%rsi
	.seh_pushreg	%rsi
	pushq	%rbx
	.seh_pushreg	%rbx
	subq	$40, %rsp
	.seh_stackalloc	40
	.seh_endprologue
	movq	(%rcx), %rdi
	xorl	%esi, %esi
	call	_Z22manage_thread_affinityv
	movl	4(%rdi), %eax
	testl	%eax, %eax
	jle	.L534
	.p2align 4,,10
	.p2align 3
.L535:
	movl	(%rdi), %eax
	imull	%eax, %eax
	movl	%eax, %ebx
	testl	%eax, %eax
	jne	.L536
	.p2align 4,,10
	.p2align 3
.L539:
	call	GOMP_barrier
	incq	%rsi
	cmpl	%esi, 4(%rdi)
	jg	.L535
	jmp	.L534
	.p2align 4,,10
	.p2align 3
.L536:
	call	omp_get_num_threads
	movl	%eax, %ebp
	call	omp_get_thread_num
	movslq	%ebp, %r8
	xorl	%edx, %edx
	movslq	%eax, %rcx
	movq	%rbx, %rax
	divq	%r8
	cmpq	%rdx, %rcx
	jb	.L538
.L541:
	imulq	%rax, %rcx
	addq	%rcx, %rdx
	addq	%rdx, %rax
	cmpq	%rax, %rdx
	jnb	.L539
	leaq	0(,%rsi,8), %r10
	.p2align 4,,10
	.p2align 3
.L540:
	movq	56(%rdi), %rcx
	movq	24(%rdi), %r8
	movq	(%rcx,%r10), %rbx
	addq	%rdx, %rbx
	movzbl	(%rbx), %r9d
	addl	%r9d, (%r8,%rdx,4)
	incq	%rdx
	movb	$0, (%rbx)
	cmpq	%rdx, %rax
	jne	.L540
	jmp	.L539
	.p2align 4,,10
	.p2align 3
.L538:
	incq	%rax
	xorl	%edx, %edx
	jmp	.L541
	.p2align 4,,10
	.p2align 3
.L534:
	addq	$40, %rsp
	popq	%rbx
	popq	%rsi
	popq	%rdi
	popq	%rbp
	ret
	.seh_handler	__gxx_personality_seh0, @unwind, @except
	.seh_handlerdata
.LLSDA17073:
	.byte	0xff
	.byte	0xff
	.byte	0x1
	.uleb128 .LLSDACSE17073-.LLSDACSB17073
.LLSDACSB17073:
.LLSDACSE17073:
	.text
	.seh_endproc
	.p2align 4
	.def	_ZN11Histogram2DIjfE10accumulateIfEEvPT_S3_y._omp_fn.0;	.scl	3;	.type	32;	.endef
	.seh_proc	_ZN11Histogram2DIjfE10accumulateIfEEvPT_S3_y._omp_fn.0
_ZN11Histogram2DIjfE10accumulateIfEEvPT_S3_y._omp_fn.0:
.LFB17074:
	pushq	%r12
	.seh_pushreg	%r12
	pushq	%rbp
	.seh_pushreg	%rbp
	pushq	%rdi
	.seh_pushreg	%rdi
	pushq	%rsi
	.seh_pushreg	%rsi
	pushq	%rbx
	.seh_pushreg	%rbx
	subq	$48, %rsp
	.seh_stackalloc	48
	vmovaps	%xmm6, 32(%rsp)
	.seh_savexmm	%xmm6, 32
	.seh_endprologue
	movq	16(%rcx), %rbp
	vmovss	32(%rcx), %xmm6
	movq	24(%rcx), %rbx
	movq	8(%rcx), %rsi
	movq	(%rcx), %rdi
	call	_Z22manage_thread_affinityv
	call	omp_get_thread_num
	movl	%eax, %r12d
	testq	%rbp, %rbp
	jne	.L546
.L548:
	vmovaps	32(%rsp), %xmm6
	addq	$48, %rsp
	popq	%rbx
	popq	%rsi
	popq	%rdi
	popq	%rbp
	popq	%r12
	jmp	GOMP_barrier
	.p2align 4,,10
	.p2align 3
.L546:
	call	omp_get_num_threads
	xorl	%edx, %edx
	movslq	%r12d, %r9
	movslq	%eax, %rcx
	movq	%rbp, %rax
	divq	%rcx
	cmpq	%rdx, %r9
	jb	.L547
.L558:
	movq	%rax, %rcx
	imulq	%r9, %rcx
	addq	%rcx, %rdx
	addq	%rdx, %rax
	cmpq	%rax, %rdx
	jnb	.L548
	vmovss	.LC2(%rip), %xmm4
	salq	$3, %r9
	vmovaps	%xmm4, %xmm5
	.p2align 4,,10
	.p2align 3
.L557:
	vmovss	64(%rbx), %xmm0
	vmovss	(%rdi,%rdx,4), %xmm1
	vmovss	(%rsi,%rdx,4), %xmm2
	movl	(%rbx), %r8d
	vcomiss	%xmm0, %xmm1
	jb	.L562
	leal	-1(%r8), %ecx
	movzwl	%cx, %ecx
	imull	%r8d, %ecx
	jmp	.L551
	.p2align 4,,10
	.p2align 3
.L562:
	vmovaps	%xmm0, %xmm3
	xorl	%ecx, %ecx
	vxorps	%xmm4, %xmm3, %xmm3
	vcomiss	%xmm1, %xmm3
	ja	.L551
	vaddss	%xmm1, %xmm0, %xmm1
	vdivss	%xmm6, %xmm1, %xmm1
	vcvttss2sil	%xmm1, %ecx
	movzwl	%cx, %ecx
	imull	%r8d, %ecx
.L551:
	vcomiss	%xmm0, %xmm2
	jb	.L563
	decl	%r8d
	movzwl	%r8w, %r8d
	addl	%r8d, %ecx
	jmp	.L554
	.p2align 4,,10
	.p2align 3
.L563:
	vmovaps	%xmm0, %xmm1
	vxorps	%xmm5, %xmm1, %xmm1
	vcomiss	%xmm2, %xmm1
	ja	.L554
	vaddss	%xmm2, %xmm0, %xmm0
	vdivss	%xmm6, %xmm0, %xmm0
	vcvttss2sil	%xmm0, %r8d
	movzwl	%r8w, %r8d
	addl	%r8d, %ecx
.L554:
	movq	56(%rbx), %r8
	movq	(%r8,%r9), %r10
	addq	%rcx, %r10
	movzbl	(%r10), %r8d
	cmpb	$-1, %r8b
	jne	.L555
	movq	24(%rbx), %r8
	lock addl	$256, (%r8,%rcx,4)
	movq	56(%rbx), %r8
	addq	(%r8,%r9), %rcx
	incb	(%rcx)
	incq	%rdx
	cmpq	%rax, %rdx
	jne	.L557
	jmp	.L548
	.p2align 4,,10
	.p2align 3
.L555:
	incl	%r8d
	incq	%rdx
	movb	%r8b, (%r10)
	cmpq	%rdx, %rax
	jne	.L557
	jmp	.L548
	.p2align 4,,10
	.p2align 3
.L547:
	incq	%rax
	xorl	%edx, %edx
	jmp	.L558
	.seh_handler	__gxx_personality_seh0, @unwind, @except
	.seh_handlerdata
.LLSDA17074:
	.byte	0xff
	.byte	0xff
	.byte	0x1
	.uleb128 .LLSDACSE17074-.LLSDACSB17074
.LLSDACSB17074:
.LLSDACSE17074:
	.text
	.seh_endproc
	.p2align 4
	.def	_ZN11Histogram2DIjfE19reduction_and_resetEv._omp_fn.0;	.scl	3;	.type	32;	.endef
	.seh_proc	_ZN11Histogram2DIjfE19reduction_and_resetEv._omp_fn.0
_ZN11Histogram2DIjfE19reduction_and_resetEv._omp_fn.0:
.LFB17075:
	pushq	%rbp
	.seh_pushreg	%rbp
	pushq	%rdi
	.seh_pushreg	%rdi
	pushq	%rsi
	.seh_pushreg	%rsi
	pushq	%rbx
	.seh_pushreg	%rbx
	subq	$40, %rsp
	.seh_stackalloc	40
	.seh_endprologue
	movq	(%rcx), %rdi
	xorl	%esi, %esi
	call	_Z22manage_thread_affinityv
	movl	4(%rdi), %eax
	testl	%eax, %eax
	jle	.L564
	.p2align 4,,10
	.p2align 3
.L565:
	movl	(%rdi), %eax
	imull	%eax, %eax
	movl	%eax, %ebx
	testl	%eax, %eax
	jne	.L566
	.p2align 4,,10
	.p2align 3
.L569:
	call	GOMP_barrier
	incq	%rsi
	cmpl	%esi, 4(%rdi)
	jg	.L565
	jmp	.L564
	.p2align 4,,10
	.p2align 3
.L566:
	call	omp_get_num_threads
	movl	%eax, %ebp
	call	omp_get_thread_num
	movslq	%ebp, %r8
	xorl	%edx, %edx
	movslq	%eax, %rcx
	movq	%rbx, %rax
	divq	%r8
	cmpq	%rdx, %rcx
	jb	.L568
.L571:
	imulq	%rax, %rcx
	addq	%rcx, %rdx
	addq	%rdx, %rax
	cmpq	%rax, %rdx
	jnb	.L569
	leaq	0(,%rsi,8), %r10
	.p2align 4,,10
	.p2align 3
.L570:
	movq	56(%rdi), %rcx
	movq	24(%rdi), %r8
	movq	(%rcx,%r10), %rbx
	addq	%rdx, %rbx
	movzbl	(%rbx), %r9d
	addl	%r9d, (%r8,%rdx,4)
	incq	%rdx
	movb	$0, (%rbx)
	cmpq	%rdx, %rax
	jne	.L570
	jmp	.L569
	.p2align 4,,10
	.p2align 3
.L568:
	incq	%rax
	xorl	%edx, %edx
	jmp	.L571
	.p2align 4,,10
	.p2align 3
.L564:
	addq	$40, %rsp
	popq	%rbx
	popq	%rsi
	popq	%rdi
	popq	%rbp
	ret
	.seh_handler	__gxx_personality_seh0, @unwind, @except
	.seh_handlerdata
.LLSDA17075:
	.byte	0xff
	.byte	0xff
	.byte	0x1
	.uleb128 .LLSDACSE17075-.LLSDACSB17075
.LLSDACSB17075:
.LLSDACSE17075:
	.text
	.seh_endproc
	.p2align 4
	.def	_ZN11Histogram2DIjhE10accumulateIhEEvPT_S3_y._omp_fn.0;	.scl	3;	.type	32;	.endef
	.seh_proc	_ZN11Histogram2DIjhE10accumulateIhEEvPT_S3_y._omp_fn.0
_ZN11Histogram2DIjhE10accumulateIhEEvPT_S3_y._omp_fn.0:
.LFB17076:
	pushq	%r12
	.seh_pushreg	%r12
	pushq	%rbp
	.seh_pushreg	%rbp
	pushq	%rdi
	.seh_pushreg	%rdi
	pushq	%rsi
	.seh_pushreg	%rsi
	pushq	%rbx
	.seh_pushreg	%rbx
	subq	$32, %rsp
	.seh_stackalloc	32
	.seh_endprologue
	movq	16(%rcx), %rbp
	movq	24(%rcx), %rbx
	movq	8(%rcx), %rsi
	movq	(%rcx), %rdi
	call	_Z22manage_thread_affinityv
	call	omp_get_thread_num
	movl	%eax, %r12d
	testq	%rbp, %rbp
	je	.L575
	call	omp_get_num_threads
	xorl	%edx, %edx
	movslq	%r12d, %r9
	movslq	%eax, %rcx
	movq	%rbp, %rax
	divq	%rcx
	cmpq	%rdx, %r9
	jb	.L577
.L582:
	movq	%rax, %rcx
	imulq	%r9, %rcx
	addq	%rcx, %rdx
	addq	%rdx, %rax
	cmpq	%rax, %rdx
	jnb	.L575
	salq	$3, %r9
	.p2align 4,,10
	.p2align 3
.L581:
	movzbl	(%rdi,%rdx), %ecx
	movzbl	(%rsi,%rdx), %r8d
	sall	$8, %ecx
	addl	%r8d, %ecx
	movq	56(%rbx), %r8
	movslq	%ecx, %rcx
	movq	(%r8,%r9), %r10
	addq	%rcx, %r10
	movzbl	(%r10), %r8d
	cmpb	$-1, %r8b
	jne	.L579
	movq	24(%rbx), %r8
	lock addl	$256, (%r8,%rcx,4)
	movq	56(%rbx), %r8
	addq	(%r8,%r9), %rcx
	incb	(%rcx)
	incq	%rdx
	cmpq	%rdx, %rax
	jne	.L581
	jmp	.L575
	.p2align 4,,10
	.p2align 3
.L579:
	incl	%r8d
	incq	%rdx
	movb	%r8b, (%r10)
	cmpq	%rdx, %rax
	jne	.L581
	jmp	.L575
	.p2align 4,,10
	.p2align 3
.L577:
	incq	%rax
	xorl	%edx, %edx
	jmp	.L582
	.p2align 4,,10
	.p2align 3
.L575:
	addq	$32, %rsp
	popq	%rbx
	popq	%rsi
	popq	%rdi
	popq	%rbp
	popq	%r12
	ret
	.seh_handler	__gxx_personality_seh0, @unwind, @except
	.seh_handlerdata
.LLSDA17076:
	.byte	0xff
	.byte	0xff
	.byte	0x1
	.uleb128 .LLSDACSE17076-.LLSDACSB17076
.LLSDACSB17076:
.LLSDACSE17076:
	.text
	.seh_endproc
	.p2align 4
	.def	_ZN11Histogram2DIjhE19reduction_and_resetEv._omp_fn.0;	.scl	3;	.type	32;	.endef
	.seh_proc	_ZN11Histogram2DIjhE19reduction_and_resetEv._omp_fn.0
_ZN11Histogram2DIjhE19reduction_and_resetEv._omp_fn.0:
.LFB17077:
	pushq	%rbp
	.seh_pushreg	%rbp
	pushq	%rdi
	.seh_pushreg	%rdi
	pushq	%rsi
	.seh_pushreg	%rsi
	pushq	%rbx
	.seh_pushreg	%rbx
	subq	$40, %rsp
	.seh_stackalloc	40
	.seh_endprologue
	movq	(%rcx), %rdi
	xorl	%esi, %esi
	call	_Z22manage_thread_affinityv
	movl	4(%rdi), %eax
	testl	%eax, %eax
	jle	.L583
	.p2align 4,,10
	.p2align 3
.L584:
	movl	(%rdi), %eax
	imull	%eax, %eax
	movl	%eax, %ebx
	testl	%eax, %eax
	jne	.L585
	.p2align 4,,10
	.p2align 3
.L588:
	call	GOMP_barrier
	incq	%rsi
	cmpl	%esi, 4(%rdi)
	jg	.L584
	jmp	.L583
	.p2align 4,,10
	.p2align 3
.L585:
	call	omp_get_num_threads
	movl	%eax, %ebp
	call	omp_get_thread_num
	movslq	%ebp, %r8
	xorl	%edx, %edx
	movslq	%eax, %rcx
	movq	%rbx, %rax
	divq	%r8
	cmpq	%rdx, %rcx
	jb	.L587
.L590:
	imulq	%rax, %rcx
	addq	%rcx, %rdx
	addq	%rdx, %rax
	cmpq	%rax, %rdx
	jnb	.L588
	leaq	0(,%rsi,8), %r10
	.p2align 4,,10
	.p2align 3
.L589:
	movq	56(%rdi), %rcx
	movq	24(%rdi), %r8
	movq	(%rcx,%r10), %rbx
	addq	%rdx, %rbx
	movzbl	(%rbx), %r9d
	addl	%r9d, (%r8,%rdx,4)
	incq	%rdx
	movb	$0, (%rbx)
	cmpq	%rdx, %rax
	jne	.L589
	jmp	.L588
	.p2align 4,,10
	.p2align 3
.L587:
	incq	%rax
	xorl	%edx, %edx
	jmp	.L590
	.p2align 4,,10
	.p2align 3
.L583:
	addq	$40, %rsp
	popq	%rbx
	popq	%rsi
	popq	%rdi
	popq	%rbp
	ret
	.seh_handler	__gxx_personality_seh0, @unwind, @except
	.seh_handlerdata
.LLSDA17077:
	.byte	0xff
	.byte	0xff
	.byte	0x1
	.uleb128 .LLSDACSE17077-.LLSDACSB17077
.LLSDACSB17077:
.LLSDACSE17077:
	.text
	.seh_endproc
	.p2align 4
	.def	_ZN11Histogram2DIjtE10accumulateItEEvPT_S3_y._omp_fn.0;	.scl	3;	.type	32;	.endef
	.seh_proc	_ZN11Histogram2DIjtE10accumulateItEEvPT_S3_y._omp_fn.0
_ZN11Histogram2DIjtE10accumulateItEEvPT_S3_y._omp_fn.0:
.LFB17078:
	pushq	%r14
	.seh_pushreg	%r14
	pushq	%r13
	.seh_pushreg	%r13
	pushq	%r12
	.seh_pushreg	%r12
	pushq	%rbp
	.seh_pushreg	%rbp
	pushq	%rdi
	.seh_pushreg	%rdi
	pushq	%rsi
	.seh_pushreg	%rsi
	pushq	%rbx
	.seh_pushreg	%rbx
	subq	$32, %rsp
	.seh_stackalloc	32
	.seh_endprologue
	movq	16(%rcx), %r13
	movl	36(%rcx), %ebx
	movl	32(%rcx), %edi
	movq	24(%rcx), %rsi
	movq	8(%rcx), %rbp
	movq	(%rcx), %r12
	call	_Z22manage_thread_affinityv
	call	omp_get_thread_num
	movl	%eax, %r14d
	testq	%r13, %r13
	je	.L594
	call	omp_get_num_threads
	xorl	%edx, %edx
	movslq	%r14d, %r9
	movslq	%eax, %rcx
	movq	%r13, %rax
	divq	%rcx
	cmpq	%rdx, %r9
	jb	.L596
.L601:
	movq	%rax, %rcx
	imulq	%r9, %rcx
	addq	%rcx, %rdx
	addq	%rdx, %rax
	cmpq	%rax, %rdx
	jnb	.L594
	salq	$3, %r9
	.p2align 4,,10
	.p2align 3
.L600:
	movzwl	(%r12,%rdx,2), %ecx
	movzwl	0(%rbp,%rdx,2), %r8d
	sarx	%ebx, %ecx, %ecx
	sarx	%ebx, %r8d, %r8d
	shlx	%edi, %ecx, %ecx
	addl	%ecx, %r8d
	movq	56(%rsi), %rcx
	movq	(%rcx,%r9), %r10
	addq	%r8, %r10
	movzbl	(%r10), %ecx
	cmpb	$-1, %cl
	jne	.L598
	movq	24(%rsi), %rcx
	lock addl	$256, (%rcx,%r8,4)
	movq	56(%rsi), %rcx
	addq	(%rcx,%r9), %r8
	incb	(%r8)
	incq	%rdx
	cmpq	%rdx, %rax
	jne	.L600
	jmp	.L594
	.p2align 4,,10
	.p2align 3
.L598:
	incl	%ecx
	incq	%rdx
	movb	%cl, (%r10)
	cmpq	%rdx, %rax
	jne	.L600
	jmp	.L594
	.p2align 4,,10
	.p2align 3
.L596:
	incq	%rax
	xorl	%edx, %edx
	jmp	.L601
	.p2align 4,,10
	.p2align 3
.L594:
	addq	$32, %rsp
	popq	%rbx
	popq	%rsi
	popq	%rdi
	popq	%rbp
	popq	%r12
	popq	%r13
	popq	%r14
	ret
	.seh_handler	__gxx_personality_seh0, @unwind, @except
	.seh_handlerdata
.LLSDA17078:
	.byte	0xff
	.byte	0xff
	.byte	0x1
	.uleb128 .LLSDACSE17078-.LLSDACSB17078
.LLSDACSB17078:
.LLSDACSE17078:
	.text
	.seh_endproc
	.p2align 4
	.def	_ZN11Histogram2DIjtE19reduction_and_resetEv._omp_fn.0;	.scl	3;	.type	32;	.endef
	.seh_proc	_ZN11Histogram2DIjtE19reduction_and_resetEv._omp_fn.0
_ZN11Histogram2DIjtE19reduction_and_resetEv._omp_fn.0:
.LFB17079:
	pushq	%rbp
	.seh_pushreg	%rbp
	pushq	%rdi
	.seh_pushreg	%rdi
	pushq	%rsi
	.seh_pushreg	%rsi
	pushq	%rbx
	.seh_pushreg	%rbx
	subq	$40, %rsp
	.seh_stackalloc	40
	.seh_endprologue
	movq	(%rcx), %rdi
	xorl	%esi, %esi
	call	_Z22manage_thread_affinityv
	movl	4(%rdi), %eax
	testl	%eax, %eax
	jle	.L602
	.p2align 4,,10
	.p2align 3
.L603:
	movl	(%rdi), %eax
	imull	%eax, %eax
	movl	%eax, %ebx
	testl	%eax, %eax
	jne	.L604
	.p2align 4,,10
	.p2align 3
.L607:
	call	GOMP_barrier
	incq	%rsi
	cmpl	%esi, 4(%rdi)
	jg	.L603
	jmp	.L602
	.p2align 4,,10
	.p2align 3
.L604:
	call	omp_get_num_threads
	movl	%eax, %ebp
	call	omp_get_thread_num
	movslq	%ebp, %r8
	xorl	%edx, %edx
	movslq	%eax, %rcx
	movq	%rbx, %rax
	divq	%r8
	cmpq	%rdx, %rcx
	jb	.L606
.L609:
	imulq	%rax, %rcx
	addq	%rcx, %rdx
	addq	%rdx, %rax
	cmpq	%rax, %rdx
	jnb	.L607
	leaq	0(,%rsi,8), %r10
	.p2align 4,,10
	.p2align 3
.L608:
	movq	56(%rdi), %rcx
	movq	24(%rdi), %r8
	movq	(%rcx,%r10), %rbx
	addq	%rdx, %rbx
	movzbl	(%rbx), %r9d
	addl	%r9d, (%r8,%rdx,4)
	incq	%rdx
	movb	$0, (%rbx)
	cmpq	%rdx, %rax
	jne	.L608
	jmp	.L607
	.p2align 4,,10
	.p2align 3
.L606:
	incq	%rax
	xorl	%edx, %edx
	jmp	.L609
	.p2align 4,,10
	.p2align 3
.L602:
	addq	$40, %rsp
	popq	%rbx
	popq	%rsi
	popq	%rdi
	popq	%rbp
	ret
	.seh_handler	__gxx_personality_seh0, @unwind, @except
	.seh_handlerdata
.LLSDA17079:
	.byte	0xff
	.byte	0xff
	.byte	0x1
	.uleb128 .LLSDACSE17079-.LLSDACSB17079
.LLSDACSB17079:
.LLSDACSE17079:
	.text
	.seh_endproc
	.p2align 4
	.def	_ZN11Histogram2DIjaE10accumulateIaEEvPT_S3_y._omp_fn.0;	.scl	3;	.type	32;	.endef
	.seh_proc	_ZN11Histogram2DIjaE10accumulateIaEEvPT_S3_y._omp_fn.0
_ZN11Histogram2DIjaE10accumulateIaEEvPT_S3_y._omp_fn.0:
.LFB17080:
	pushq	%r12
	.seh_pushreg	%r12
	pushq	%rbp
	.seh_pushreg	%rbp
	pushq	%rdi
	.seh_pushreg	%rdi
	pushq	%rsi
	.seh_pushreg	%rsi
	pushq	%rbx
	.seh_pushreg	%rbx
	subq	$32, %rsp
	.seh_stackalloc	32
	.seh_endprologue
	movq	(%rcx), %rbp
	movq	24(%rcx), %rsi
	movq	16(%rcx), %rdi
	movq	8(%rcx), %rbx
	call	_Z22manage_thread_affinityv
	call	omp_get_thread_num
	movl	%eax, %r12d
	testq	%rbp, %rbp
	je	.L613
	call	omp_get_num_threads
	xorl	%edx, %edx
	movslq	%r12d, %r9
	movslq	%eax, %rcx
	movq	%rbp, %rax
	divq	%rcx
	cmpq	%rdx, %r9
	jb	.L615
.L620:
	movq	%rax, %rcx
	imulq	%r9, %rcx
	addq	%rcx, %rdx
	addq	%rdx, %rax
	cmpq	%rax, %rdx
	jnb	.L613
	salq	$3, %r9
	.p2align 4,,10
	.p2align 3
.L619:
	movzbl	(%rdi,%rdx), %ecx
	movzbl	(%rsi,%rdx), %r8d
	sall	$8, %ecx
	addl	%r8d, %ecx
	movq	56(%rbx), %r8
	movslq	%ecx, %rcx
	movq	(%r8,%r9), %r10
	addq	%rcx, %r10
	movzbl	(%r10), %r8d
	cmpb	$-1, %r8b
	jne	.L617
	movq	24(%rbx), %r8
	lock addl	$256, (%r8,%rcx,4)
	movq	56(%rbx), %r8
	addq	(%r8,%r9), %rcx
	incb	(%rcx)
	incq	%rdx
	cmpq	%rdx, %rax
	jne	.L619
	jmp	.L613
	.p2align 4,,10
	.p2align 3
.L617:
	incl	%r8d
	incq	%rdx
	movb	%r8b, (%r10)
	cmpq	%rdx, %rax
	jne	.L619
	jmp	.L613
	.p2align 4,,10
	.p2align 3
.L615:
	incq	%rax
	xorl	%edx, %edx
	jmp	.L620
	.p2align 4,,10
	.p2align 3
.L613:
	addq	$32, %rsp
	popq	%rbx
	popq	%rsi
	popq	%rdi
	popq	%rbp
	popq	%r12
	ret
	.seh_handler	__gxx_personality_seh0, @unwind, @except
	.seh_handlerdata
.LLSDA17080:
	.byte	0xff
	.byte	0xff
	.byte	0x1
	.uleb128 .LLSDACSE17080-.LLSDACSB17080
.LLSDACSB17080:
.LLSDACSE17080:
	.text
	.seh_endproc
	.p2align 4
	.def	_ZN11Histogram2DIjaE19reduction_and_resetEv._omp_fn.0;	.scl	3;	.type	32;	.endef
	.seh_proc	_ZN11Histogram2DIjaE19reduction_and_resetEv._omp_fn.0
_ZN11Histogram2DIjaE19reduction_and_resetEv._omp_fn.0:
.LFB17081:
	pushq	%rbp
	.seh_pushreg	%rbp
	pushq	%rdi
	.seh_pushreg	%rdi
	pushq	%rsi
	.seh_pushreg	%rsi
	pushq	%rbx
	.seh_pushreg	%rbx
	subq	$40, %rsp
	.seh_stackalloc	40
	.seh_endprologue
	movq	(%rcx), %rdi
	xorl	%esi, %esi
	call	_Z22manage_thread_affinityv
	movl	4(%rdi), %eax
	testl	%eax, %eax
	jle	.L621
	.p2align 4,,10
	.p2align 3
.L622:
	movl	(%rdi), %eax
	imull	%eax, %eax
	movl	%eax, %ebx
	testl	%eax, %eax
	jne	.L623
	.p2align 4,,10
	.p2align 3
.L626:
	call	GOMP_barrier
	incq	%rsi
	cmpl	%esi, 4(%rdi)
	jg	.L622
	jmp	.L621
	.p2align 4,,10
	.p2align 3
.L623:
	call	omp_get_num_threads
	movl	%eax, %ebp
	call	omp_get_thread_num
	movslq	%ebp, %r8
	xorl	%edx, %edx
	movslq	%eax, %rcx
	movq	%rbx, %rax
	divq	%r8
	cmpq	%rdx, %rcx
	jb	.L625
.L628:
	imulq	%rax, %rcx
	addq	%rcx, %rdx
	addq	%rdx, %rax
	cmpq	%rax, %rdx
	jnb	.L626
	leaq	0(,%rsi,8), %r10
	.p2align 4,,10
	.p2align 3
.L627:
	movq	56(%rdi), %rcx
	movq	24(%rdi), %r8
	movq	(%rcx,%r10), %rbx
	addq	%rdx, %rbx
	movzbl	(%rbx), %r9d
	addl	%r9d, (%r8,%rdx,4)
	incq	%rdx
	movb	$0, (%rbx)
	cmpq	%rdx, %rax
	jne	.L627
	jmp	.L626
	.p2align 4,,10
	.p2align 3
.L625:
	incq	%rax
	xorl	%edx, %edx
	jmp	.L628
	.p2align 4,,10
	.p2align 3
.L621:
	addq	$40, %rsp
	popq	%rbx
	popq	%rsi
	popq	%rdi
	popq	%rbp
	ret
	.seh_handler	__gxx_personality_seh0, @unwind, @except
	.seh_handlerdata
.LLSDA17081:
	.byte	0xff
	.byte	0xff
	.byte	0x1
	.uleb128 .LLSDACSE17081-.LLSDACSB17081
.LLSDACSB17081:
.LLSDACSE17081:
	.text
	.seh_endproc
	.p2align 4
	.def	_ZN11Histogram2DIjsE10accumulateIsEEvPT_S3_y._omp_fn.0;	.scl	3;	.type	32;	.endef
	.seh_proc	_ZN11Histogram2DIjsE10accumulateIsEEvPT_S3_y._omp_fn.0
_ZN11Histogram2DIjsE10accumulateIsEEvPT_S3_y._omp_fn.0:
.LFB17082:
	pushq	%r14
	.seh_pushreg	%r14
	pushq	%r13
	.seh_pushreg	%r13
	pushq	%r12
	.seh_pushreg	%r12
	pushq	%rbp
	.seh_pushreg	%rbp
	pushq	%rdi
	.seh_pushreg	%rdi
	pushq	%rsi
	.seh_pushreg	%rsi
	pushq	%rbx
	.seh_pushreg	%rbx
	subq	$32, %rsp
	.seh_stackalloc	32
	.seh_endprologue
	movq	(%rcx), %r13
	movl	36(%rcx), %ebx
	movl	32(%rcx), %edi
	movq	24(%rcx), %rbp
	movq	16(%rcx), %r12
	movq	8(%rcx), %rsi
	call	_Z22manage_thread_affinityv
	call	omp_get_thread_num
	movl	%eax, %r14d
	testq	%r13, %r13
	je	.L632
	call	omp_get_num_threads
	xorl	%edx, %edx
	movslq	%r14d, %r9
	movslq	%eax, %rcx
	movq	%r13, %rax
	divq	%rcx
	cmpq	%rdx, %r9
	jb	.L634
.L639:
	movq	%rax, %rcx
	imulq	%r9, %rcx
	addq	%rcx, %rdx
	addq	%rdx, %rax
	cmpq	%rax, %rdx
	jnb	.L632
	salq	$3, %r9
	.p2align 4,,10
	.p2align 3
.L638:
	movzbl	(%r12,%rdx), %ecx
	movzbl	0(%rbp,%rdx), %r8d
	sarx	%ebx, %ecx, %ecx
	sarx	%ebx, %r8d, %r8d
	shlx	%edi, %ecx, %ecx
	addl	%ecx, %r8d
	movq	56(%rsi), %rcx
	movq	(%rcx,%r9), %r10
	addq	%r8, %r10
	movzbl	(%r10), %ecx
	cmpb	$-1, %cl
	jne	.L636
	movq	24(%rsi), %rcx
	lock addl	$256, (%rcx,%r8,4)
	movq	56(%rsi), %rcx
	addq	(%rcx,%r9), %r8
	incb	(%r8)
	incq	%rdx
	cmpq	%rdx, %rax
	jne	.L638
	jmp	.L632
	.p2align 4,,10
	.p2align 3
.L636:
	incl	%ecx
	incq	%rdx
	movb	%cl, (%r10)
	cmpq	%rdx, %rax
	jne	.L638
	jmp	.L632
	.p2align 4,,10
	.p2align 3
.L634:
	incq	%rax
	xorl	%edx, %edx
	jmp	.L639
	.p2align 4,,10
	.p2align 3
.L632:
	addq	$32, %rsp
	popq	%rbx
	popq	%rsi
	popq	%rdi
	popq	%rbp
	popq	%r12
	popq	%r13
	popq	%r14
	ret
	.seh_handler	__gxx_personality_seh0, @unwind, @except
	.seh_handlerdata
.LLSDA17082:
	.byte	0xff
	.byte	0xff
	.byte	0x1
	.uleb128 .LLSDACSE17082-.LLSDACSB17082
.LLSDACSB17082:
.LLSDACSE17082:
	.text
	.seh_endproc
	.p2align 4
	.def	_ZN11Histogram2DIjsE19reduction_and_resetEv._omp_fn.0;	.scl	3;	.type	32;	.endef
	.seh_proc	_ZN11Histogram2DIjsE19reduction_and_resetEv._omp_fn.0
_ZN11Histogram2DIjsE19reduction_and_resetEv._omp_fn.0:
.LFB17083:
	pushq	%rbp
	.seh_pushreg	%rbp
	pushq	%rdi
	.seh_pushreg	%rdi
	pushq	%rsi
	.seh_pushreg	%rsi
	pushq	%rbx
	.seh_pushreg	%rbx
	subq	$40, %rsp
	.seh_stackalloc	40
	.seh_endprologue
	movq	(%rcx), %rdi
	xorl	%esi, %esi
	call	_Z22manage_thread_affinityv
	movl	4(%rdi), %eax
	testl	%eax, %eax
	jle	.L640
	.p2align 4,,10
	.p2align 3
.L641:
	movl	(%rdi), %eax
	imull	%eax, %eax
	movl	%eax, %ebx
	testl	%eax, %eax
	jne	.L642
	.p2align 4,,10
	.p2align 3
.L645:
	call	GOMP_barrier
	incq	%rsi
	cmpl	%esi, 4(%rdi)
	jg	.L641
	jmp	.L640
	.p2align 4,,10
	.p2align 3
.L642:
	call	omp_get_num_threads
	movl	%eax, %ebp
	call	omp_get_thread_num
	movslq	%ebp, %r8
	xorl	%edx, %edx
	movslq	%eax, %rcx
	movq	%rbx, %rax
	divq	%r8
	cmpq	%rdx, %rcx
	jb	.L644
.L647:
	imulq	%rax, %rcx
	addq	%rcx, %rdx
	addq	%rdx, %rax
	cmpq	%rax, %rdx
	jnb	.L645
	leaq	0(,%rsi,8), %r10
	.p2align 4,,10
	.p2align 3
.L646:
	movq	56(%rdi), %rcx
	movq	24(%rdi), %r8
	movq	(%rcx,%r10), %rbx
	addq	%rdx, %rbx
	movzbl	(%rbx), %r9d
	addl	%r9d, (%r8,%rdx,4)
	incq	%rdx
	movb	$0, (%rbx)
	cmpq	%rdx, %rax
	jne	.L646
	jmp	.L645
	.p2align 4,,10
	.p2align 3
.L644:
	incq	%rax
	xorl	%edx, %edx
	jmp	.L647
	.p2align 4,,10
	.p2align 3
.L640:
	addq	$40, %rsp
	popq	%rbx
	popq	%rsi
	popq	%rdi
	popq	%rbp
	ret
	.seh_handler	__gxx_personality_seh0, @unwind, @except
	.seh_handlerdata
.LLSDA17083:
	.byte	0xff
	.byte	0xff
	.byte	0x1
	.uleb128 .LLSDACSE17083-.LLSDACSB17083
.LLSDACSB17083:
.LLSDACSE17083:
	.text
	.seh_endproc
	.section	.text$_ZNK8pybind1110cast_error9set_errorEv,"x"
	.linkonce discard
	.align 2
	.p2align 4
	.globl	_ZNK8pybind1110cast_error9set_errorEv
	.def	_ZNK8pybind1110cast_error9set_errorEv;	.scl	2;	.type	32;	.endef
	.seh_proc	_ZNK8pybind1110cast_error9set_errorEv
_ZNK8pybind1110cast_error9set_errorEv:
.LFB9255:
	subq	$40, %rsp
	.seh_stackalloc	40
	.seh_endprologue
	movq	(%rcx), %rax
	call	*16(%rax)
	movq	%rax, %rdx
	movq	__imp_PyExc_RuntimeError(%rip), %rax
	movq	(%rax), %rcx
	addq	$40, %rsp
	rex.W jmp	*__imp_PyErr_SetString(%rip)
	.seh_endproc
	.section	.text$_ZN8pybind1110cast_errorD1Ev,"x"
	.linkonce discard
	.align 2
	.p2align 4
	.globl	_ZN8pybind1110cast_errorD1Ev
	.def	_ZN8pybind1110cast_errorD1Ev;	.scl	2;	.type	32;	.endef
	.seh_proc	_ZN8pybind1110cast_errorD1Ev
_ZN8pybind1110cast_errorD1Ev:
.LFB16998:
	.seh_endprologue
	leaq	16+_ZTVN8pybind1117builtin_exceptionE(%rip), %rax
	movq	%rax, (%rcx)
	jmp	_ZNSt13runtime_errorD2Ev
	.seh_endproc
	.section	.text$_ZN8pybind1110cast_errorD0Ev,"x"
	.linkonce discard
	.align 2
	.p2align 4
	.globl	_ZN8pybind1110cast_errorD0Ev
	.def	_ZN8pybind1110cast_errorD0Ev;	.scl	2;	.type	32;	.endef
	.seh_proc	_ZN8pybind1110cast_errorD0Ev
_ZN8pybind1110cast_errorD0Ev:
.LFB16999:
	pushq	%r12
	.seh_pushreg	%r12
	subq	$32, %rsp
	.seh_stackalloc	32
	.seh_endprologue
	leaq	16+_ZTVN8pybind1117builtin_exceptionE(%rip), %rax
	movq	%rax, (%rcx)
	movq	%rcx, %r12
	call	_ZNSt13runtime_errorD2Ev
	movl	$16, %edx
	movq	%r12, %rcx
	addq	$32, %rsp
	popq	%r12
	jmp	_ZdlPvy
	.seh_endproc
	.section	.text$_ZZN8pybind1112cpp_function18initialize_genericEPNS_6detail15function_recordEPKcPKPKSt9type_infoyENUlPvE_4_FUNESB_,"x"
	.linkonce discard
	.p2align 4
	.globl	_ZZN8pybind1112cpp_function18initialize_genericEPNS_6detail15function_recordEPKcPKPKSt9type_infoyENUlPvE_4_FUNESB_
	.def	_ZZN8pybind1112cpp_function18initialize_genericEPNS_6detail15function_recordEPKcPKPKSt9type_infoyENUlPvE_4_FUNESB_;	.scl	2;	.type	32;	.endef
	.seh_proc	_ZZN8pybind1112cpp_function18initialize_genericEPNS_6detail15function_recordEPKcPKPKSt9type_infoyENUlPvE_4_FUNESB_
_ZZN8pybind1112cpp_function18initialize_genericEPNS_6detail15function_recordEPKcPKPKSt9type_infoyENUlPvE_4_FUNESB_:
.LFB10951:
	pushq	%r12
	.seh_pushreg	%r12
	pushq	%rdi
	.seh_pushreg	%rdi
	pushq	%rsi
	.seh_pushreg	%rsi
	pushq	%rbx
	.seh_pushreg	%rbx
	subq	$40, %rsp
	.seh_stackalloc	40
	.seh_endprologue
	movq	%rcx, %r12
	testq	%rcx, %rcx
	je	.L684
	.p2align 4,,10
	.p2align 3
.L667:
	movq	80(%r12), %rax
	movq	120(%r12), %rsi
	testq	%rax, %rax
	je	.L656
	movq	%r12, %rcx
	call	*%rax
.L656:
	movq	(%r12), %rcx
	call	free
	movq	8(%r12), %rcx
	call	free
	movq	16(%r12), %rcx
	call	free
	movq	24(%r12), %rbx
	movq	32(%r12), %rdi
	cmpq	%rdi, %rbx
	je	.L657
	.p2align 4,,10
	.p2align 3
.L661:
	movq	(%rbx), %rcx
	call	free
	movq	8(%rbx), %rcx
	call	free
	movq	16(%rbx), %rcx
	testq	%rcx, %rcx
	je	.L659
	decq	(%rcx)
	jne	.L659
	movq	8(%rcx), %rax
	call	*48(%rax)
.L659:
	addq	$32, %rbx
	cmpq	%rbx, %rdi
	jne	.L661
.L657:
	movq	96(%r12), %rax
	testq	%rax, %rax
	je	.L663
	movq	24(%rax), %rcx
	call	free
	movq	96(%r12), %rcx
	testq	%rcx, %rcx
	je	.L663
	movl	$32, %edx
	call	_ZdlPvy
.L663:
	movq	24(%r12), %rcx
	testq	%rcx, %rcx
	je	.L665
	call	_ZdlPv
.L665:
	movl	$128, %edx
	movq	%r12, %rcx
	call	_ZdlPvy
	testq	%rsi, %rsi
	je	.L684
	movq	%rsi, %r12
	jmp	.L667
	.p2align 4,,10
	.p2align 3
.L684:
	addq	$40, %rsp
	popq	%rbx
	popq	%rsi
	popq	%rdi
	popq	%r12
	ret
	.seh_endproc
	.section .rdata,"dr"
.LC4:
	.ascii "Caught an unknown exception!\0"
	.section	.text$_ZZN8pybind116detail13get_internalsEvENUlNSt15__exception_ptr13exception_ptrEE_4_FUNES2_,"x"
	.linkonce discard
	.p2align 4
	.globl	_ZZN8pybind116detail13get_internalsEvENUlNSt15__exception_ptr13exception_ptrEE_4_FUNES2_
	.def	_ZZN8pybind116detail13get_internalsEvENUlNSt15__exception_ptr13exception_ptrEE_4_FUNES2_;	.scl	2;	.type	32;	.endef
	.seh_proc	_ZZN8pybind116detail13get_internalsEvENUlNSt15__exception_ptr13exception_ptrEE_4_FUNES2_
_ZZN8pybind116detail13get_internalsEvENUlNSt15__exception_ptr13exception_ptrEE_4_FUNES2_:
.LFB10354:
	pushq	%r13
	.seh_pushreg	%r13
	pushq	%r12
	.seh_pushreg	%r12
	pushq	%rbx
	.seh_pushreg	%rbx
	subq	$48, %rsp
	.seh_stackalloc	48
	.seh_endprologue
	cmpq	$0, (%rcx)
	je	.L685
	leaq	40(%rsp), %r13
	movq	%rcx, %rdx
	movq	%r13, %rcx
	call	_ZNSt15__exception_ptr13exception_ptrC1ERKS0_
	movq	%r13, %rcx
.LEHB0:
	call	_ZSt17rethrow_exceptionNSt15__exception_ptr13exception_ptrE
.LEHE0:
.L720:
	movq	%rax, %r12
	movq	%rdx, %rbx
	movq	%r13, %rcx
	vzeroupper
	call	_ZNSt15__exception_ptr13exception_ptrD1Ev
	leaq	-1(%rbx), %rax
	cmpq	$8, %rax
	ja	.L688
	leaq	.L690(%rip), %rdx
	movslq	(%rdx,%rax,4), %rax
	addq	%rdx, %rax
	jmp	*%rax
	.section .rdata,"dr"
	.align 4
.L690:
	.long	.L698-.L690
	.long	.L697-.L690
	.long	.L696-.L690
	.long	.L695-.L690
	.long	.L694-.L690
	.long	.L693-.L690
	.long	.L692-.L690
	.long	.L691-.L690
	.long	.L689-.L690
	.section	.text$_ZZN8pybind116detail13get_internalsEvENUlNSt15__exception_ptr13exception_ptrEE_4_FUNES2_,"x"
	.linkonce discard
.L698:
	movq	%r12, %rcx
	call	__cxa_begin_catch
	vpxor	%xmm0, %xmm0, %xmm0
	movq	32(%rax), %r8
	movq	24(%rax), %rdx
	movq	$0, 32(%rax)
	movq	16(%rax), %rcx
	vmovups	%xmm0, 16(%rax)
.LEHB1:
	call	*__imp_PyErr_Restore(%rip)
.LEHE1:
.L699:
.LEHB2:
	call	__cxa_end_catch
.LEHE2:
	jmp	.L685
.L697:
	movq	%r12, %rcx
	call	__cxa_begin_catch
	movq	%rax, %rcx
	movq	(%rax), %rax
.LEHB3:
	call	*24(%rax)
.LEHE3:
	jmp	.L699
.L696:
	movq	%r12, %rcx
	call	__cxa_begin_catch
	movq	%rax, %rcx
	movq	(%rax), %rax
	call	*16(%rax)
	movq	%rax, %rdx
	movq	__imp_PyExc_MemoryError(%rip), %rax
	movq	(%rax), %rcx
.LEHB4:
	call	*__imp_PyErr_SetString(%rip)
.LEHE4:
	jmp	.L699
.L695:
	movq	%r12, %rcx
	call	__cxa_begin_catch
	movq	%rax, %rcx
	movq	(%rax), %rax
	call	*16(%rax)
	movq	%rax, %rdx
	movq	__imp_PyExc_ValueError(%rip), %rax
	movq	(%rax), %rcx
.LEHB5:
	call	*__imp_PyErr_SetString(%rip)
.LEHE5:
	jmp	.L699
.L694:
	movq	%r12, %rcx
	call	__cxa_begin_catch
	movq	%rax, %rcx
	movq	(%rax), %rax
	call	*16(%rax)
	movq	%rax, %rdx
	movq	__imp_PyExc_ValueError(%rip), %rax
	movq	(%rax), %rcx
.LEHB6:
	call	*__imp_PyErr_SetString(%rip)
.LEHE6:
	jmp	.L699
.L693:
	movq	%r12, %rcx
	call	__cxa_begin_catch
	movq	%rax, %rcx
	movq	(%rax), %rax
	call	*16(%rax)
	movq	%rax, %rdx
	movq	__imp_PyExc_ValueError(%rip), %rax
	movq	(%rax), %rcx
.LEHB7:
	call	*__imp_PyErr_SetString(%rip)
.LEHE7:
	jmp	.L699
.L692:
	movq	%r12, %rcx
	call	__cxa_begin_catch
	movq	%rax, %rcx
	movq	(%rax), %rax
	call	*16(%rax)
	movq	%rax, %rdx
	movq	__imp_PyExc_IndexError(%rip), %rax
	movq	(%rax), %rcx
.LEHB8:
	call	*__imp_PyErr_SetString(%rip)
.LEHE8:
	jmp	.L699
.L691:
	movq	%r12, %rcx
	call	__cxa_begin_catch
	movq	%rax, %rcx
	movq	(%rax), %rax
	call	*16(%rax)
	movq	%rax, %rdx
	movq	__imp_PyExc_ValueError(%rip), %rax
	movq	(%rax), %rcx
.LEHB9:
	call	*__imp_PyErr_SetString(%rip)
.LEHE9:
	jmp	.L699
.L689:
	movq	%r12, %rcx
	call	__cxa_begin_catch
	movq	%rax, %rcx
	movq	(%rax), %rax
	call	*16(%rax)
	movq	%rax, %rdx
	movq	__imp_PyExc_RuntimeError(%rip), %rax
	movq	(%rax), %rcx
.LEHB10:
	call	*__imp_PyErr_SetString(%rip)
.LEHE10:
	jmp	.L699
.L688:
	movq	%r12, %rcx
	call	__cxa_begin_catch
	movq	__imp_PyExc_RuntimeError(%rip), %rax
	leaq	.LC4(%rip), %rdx
	movq	(%rax), %rcx
.LEHB11:
	call	*__imp_PyErr_SetString(%rip)
.LEHE11:
	jmp	.L699
.L719:
	movq	%rax, %r12
	vzeroupper
	call	__cxa_end_catch
	movq	%r12, %rcx
.LEHB12:
	call	_Unwind_Resume
.L718:
	movq	%rax, %r12
	vzeroupper
	call	__cxa_end_catch
	movq	%r12, %rcx
	call	_Unwind_Resume
.L717:
	movq	%rax, %r12
	vzeroupper
	call	__cxa_end_catch
	movq	%r12, %rcx
	call	_Unwind_Resume
.L716:
	movq	%rax, %r12
	vzeroupper
	call	__cxa_end_catch
	movq	%r12, %rcx
	call	_Unwind_Resume
.L715:
	movq	%rax, %r12
	vzeroupper
	call	__cxa_end_catch
	movq	%r12, %rcx
	call	_Unwind_Resume
.L714:
	movq	%rax, %r12
	vzeroupper
	call	__cxa_end_catch
	movq	%r12, %rcx
	call	_Unwind_Resume
.L713:
	movq	%rax, %r12
	vzeroupper
	call	__cxa_end_catch
	movq	%r12, %rcx
	call	_Unwind_Resume
.L712:
	movq	%rax, %r12
	vzeroupper
	call	__cxa_end_catch
	movq	%r12, %rcx
	call	_Unwind_Resume
.L711:
	movq	%rax, %r12
	vzeroupper
	call	__cxa_end_catch
	movq	%r12, %rcx
	call	_Unwind_Resume
.LEHE12:
.L710:
	movq	%rax, %r12
	vzeroupper
	call	__cxa_end_catch
	movq	%r12, %rcx
.LEHB13:
	call	_Unwind_Resume
	nop
.LEHE13:
	.p2align 4,,10
	.p2align 3
.L685:
	addq	$48, %rsp
	popq	%rbx
	popq	%r12
	popq	%r13
	ret
	.seh_handler	__gxx_personality_seh0, @unwind, @except
	.seh_handlerdata
	.align 4
.LLSDA10354:
	.byte	0xff
	.byte	0x9b
	.uleb128 .LLSDATT10354-.LLSDATTD10354
.LLSDATTD10354:
	.byte	0x1
	.uleb128 .LLSDACSE10354-.LLSDACSB10354
.LLSDACSB10354:
	.uleb128 .LEHB0-.LFB10354
	.uleb128 .LEHE0-.LEHB0
	.uleb128 .L720-.LFB10354
	.uleb128 0x15
	.uleb128 .LEHB1-.LFB10354
	.uleb128 .LEHE1-.LEHB1
	.uleb128 .L719-.LFB10354
	.uleb128 0
	.uleb128 .LEHB2-.LFB10354
	.uleb128 .LEHE2-.LEHB2
	.uleb128 0
	.uleb128 0
	.uleb128 .LEHB3-.LFB10354
	.uleb128 .LEHE3-.LEHB3
	.uleb128 .L718-.LFB10354
	.uleb128 0
	.uleb128 .LEHB4-.LFB10354
	.uleb128 .LEHE4-.LEHB4
	.uleb128 .L717-.LFB10354
	.uleb128 0
	.uleb128 .LEHB5-.LFB10354
	.uleb128 .LEHE5-.LEHB5
	.uleb128 .L716-.LFB10354
	.uleb128 0
	.uleb128 .LEHB6-.LFB10354
	.uleb128 .LEHE6-.LEHB6
	.uleb128 .L715-.LFB10354
	.uleb128 0
	.uleb128 .LEHB7-.LFB10354
	.uleb128 .LEHE7-.LEHB7
	.uleb128 .L714-.LFB10354
	.uleb128 0
	.uleb128 .LEHB8-.LFB10354
	.uleb128 .LEHE8-.LEHB8
	.uleb128 .L713-.LFB10354
	.uleb128 0
	.uleb128 .LEHB9-.LFB10354
	.uleb128 .LEHE9-.LEHB9
	.uleb128 .L712-.LFB10354
	.uleb128 0
	.uleb128 .LEHB10-.LFB10354
	.uleb128 .LEHE10-.LEHB10
	.uleb128 .L711-.LFB10354
	.uleb128 0
	.uleb128 .LEHB11-.LFB10354
	.uleb128 .LEHE11-.LEHB11
	.uleb128 .L710-.LFB10354
	.uleb128 0
	.uleb128 .LEHB12-.LFB10354
	.uleb128 .LEHE12-.LEHB12
	.uleb128 0
	.uleb128 0
	.uleb128 .LEHB13-.LFB10354
	.uleb128 .LEHE13-.LEHB13
	.uleb128 0
	.uleb128 0
.LLSDACSE10354:
	.byte	0xa
	.byte	0
	.byte	0x9
	.byte	0x7d
	.byte	0x8
	.byte	0x7d
	.byte	0x7
	.byte	0x7d
	.byte	0x6
	.byte	0x7d
	.byte	0x5
	.byte	0x7d
	.byte	0x4
	.byte	0x7d
	.byte	0x3
	.byte	0x7d
	.byte	0x2
	.byte	0x7d
	.byte	0x1
	.byte	0x7d
	.byte	0
	.byte	0x7d
	.align 4
	.long	0

	.long	.LDFCM0-.
	.long	.LDFCM1-.
	.long	.LDFCM2-.
	.long	.LDFCM3-.
	.long	.LDFCM4-.
	.long	.LDFCM5-.
	.long	.LDFCM6-.
	.long	.LDFCM7-.
	.long	.LDFCM8-.
.LLSDATT10354:
	.section	.text$_ZZN8pybind116detail13get_internalsEvENUlNSt15__exception_ptr13exception_ptrEE_4_FUNES2_,"x"
	.linkonce discard
	.seh_endproc
	.text
	.p2align 4
	.def	__tcf_2;	.scl	3;	.type	32;	.endef
	.seh_proc	__tcf_2
__tcf_2:
.LFB10357:
	pushq	%rbx
	.seh_pushreg	%rbx
	subq	$32, %rsp
	.seh_stackalloc	32
	.seh_endprologue
	movq	16+_ZZN8pybind116detail26registered_local_types_cppEvE6locals(%rip), %rbx
	testq	%rbx, %rbx
	je	.L722
	.p2align 4,,10
	.p2align 3
.L723:
	movq	%rbx, %rcx
	movq	(%rbx), %rbx
	call	_ZdlPv
	testq	%rbx, %rbx
	jne	.L723
.L722:
	movq	8+_ZZN8pybind116detail26registered_local_types_cppEvE6locals(%rip), %r8
	movq	_ZZN8pybind116detail26registered_local_types_cppEvE6locals(%rip), %rcx
	xorl	%edx, %edx
	salq	$3, %r8
	call	memset
	movq	_ZZN8pybind116detail26registered_local_types_cppEvE6locals(%rip), %rcx
	leaq	48+_ZZN8pybind116detail26registered_local_types_cppEvE6locals(%rip), %rax
	movq	$0, 24+_ZZN8pybind116detail26registered_local_types_cppEvE6locals(%rip)
	movq	$0, 16+_ZZN8pybind116detail26registered_local_types_cppEvE6locals(%rip)
	cmpq	%rax, %rcx
	je	.L729
	addq	$32, %rsp
	popq	%rbx
	jmp	_ZdlPv
	.p2align 4,,10
	.p2align 3
.L729:
	addq	$32, %rsp
	popq	%rbx
	ret
	.seh_endproc
	.p2align 4
	.def	_ZL9vsnprintfPcyPKcS_;	.scl	3;	.type	32;	.endef
	.seh_proc	_ZL9vsnprintfPcyPKcS_
_ZL9vsnprintfPcyPKcS_:
.LFB6876:
	.seh_endprologue
	jmp	__mingw_vsnprintf
	.seh_endproc
	.section	.text$_ZZN8pybind117capsuleC4EPKvPFvPvEENUlP7_objectE_4_FUNES7_,"x"
	.linkonce discard
	.p2align 4
	.globl	_ZZN8pybind117capsuleC4EPKvPFvPvEENUlP7_objectE_4_FUNES7_
	.def	_ZZN8pybind117capsuleC4EPKvPFvPvEENUlP7_objectE_4_FUNES7_;	.scl	2;	.type	32;	.endef
	.seh_proc	_ZZN8pybind117capsuleC4EPKvPFvPvEENUlP7_objectE_4_FUNES7_
_ZZN8pybind117capsuleC4EPKvPFvPvEENUlP7_objectE_4_FUNES7_:
.LFB9810:
	pushq	%r12
	.seh_pushreg	%r12
	pushq	%rbx
	.seh_pushreg	%rbx
	subq	$40, %rsp
	.seh_stackalloc	40
	.seh_endprologue
	movq	%rcx, %r12
	call	*__imp_PyCapsule_GetContext(%rip)
	movq	%r12, %rcx
	xorl	%edx, %edx
	movq	%rax, %rbx
	call	*__imp_PyCapsule_GetPointer(%rip)
	movq	%rax, %rcx
	movq	%rbx, %rax
	addq	$40, %rsp
	popq	%rbx
	popq	%r12
	rex.W jmp	*%rax
	.seh_endproc
	.text
	.p2align 4
	.def	_ZN9HistogramIydE10accumulateIdEEvPT_y._omp_fn.0;	.scl	3;	.type	32;	.endef
	.seh_proc	_ZN9HistogramIydE10accumulateIdEEvPT_y._omp_fn.0
_ZN9HistogramIydE10accumulateIdEEvPT_y._omp_fn.0:
.LFB17036:
	pushq	%rbp
	.seh_pushreg	%rbp
	pushq	%r15
	.seh_pushreg	%r15
	pushq	%r14
	.seh_pushreg	%r14
	pushq	%r13
	.seh_pushreg	%r13
	pushq	%r12
	.seh_pushreg	%r12
	pushq	%rdi
	.seh_pushreg	%rdi
	pushq	%rsi
	.seh_pushreg	%rsi
	pushq	%rbx
	.seh_pushreg	%rbx
	subq	$88, %rsp
	.seh_stackalloc	88
	leaq	128(%rsp), %rbp
	.seh_setframe	%rbp, 128
	vmovaps	%xmm6, -64(%rbp)
	.seh_savexmm	%xmm6, 64
	.seh_endprologue
	movq	8(%rcx), %rax
	movq	16(%rcx), %r14
	movq	32(%rcx), %rsi
	vmovsd	24(%rcx), %xmm6
	movq	%rax, -72(%rbp)
	movq	(%rcx), %rax
	movq	%rax, -88(%rbp)
	call	_Z22manage_thread_affinityv
	movl	(%r14), %r15d
	leaq	15(,%r15,8), %rax
	movq	%r15, %r10
	leaq	-1(%r15), %r13
	shrq	$4, %rax
	salq	$4, %rax
	call	___chkstk_ms
	subq	%rax, %rsp
	leaq	32(%rsp), %rbx
	movq	%rbx, %rdi
	cmpl	$6, %r15d
	jbe	.L752
	leaq	-4(%r15), %rax
	xorl	%ecx, %ecx
	vpxor	%xmm0, %xmm0, %xmm0
	shrq	$2, %rax
	incq	%rax
	.p2align 4,,10
	.p2align 3
.L734:
	movq	%rcx, %rdx
	incq	%rcx
	salq	$5, %rdx
	vmovdqu	%ymm0, (%rbx,%rdx)
	cmpq	%rcx, %rax
	ja	.L734
	leaq	0(,%rax,4), %rdx
	salq	$5, %rax
	addq	%rbx, %rax
	cmpq	%rdx, %r15
	je	.L763
	leaq	1(%rdx), %rcx
	movq	$0, (%rax)
	cmpq	%rcx, %r13
	jb	.L764
	addq	$2, %rdx
	movq	$0, 8(%rax)
	cmpq	%rdx, %r13
	jb	.L765
	movq	$0, 16(%rax)
	vzeroupper
	jmp	.L736
	.p2align 4,,10
	.p2align 3
.L752:
	xorl	%eax, %eax
	.p2align 4,,10
	.p2align 3
.L733:
	movq	$0, (%rbx,%rax,8)
	incq	%rax
	cmpq	%rax, %r13
	jnb	.L733
	jmp	.L736
	.p2align 4,,10
	.p2align 3
.L763:
	vzeroupper
	jmp	.L736
.L764:
	vzeroupper
	jmp	.L736
.L765:
	vzeroupper
	.p2align 4,,10
	.p2align 3
.L736:
	cmpq	$0, -72(%rbp)
	jne	.L737
	.p2align 4,,10
	.p2align 3
.L742:
	call	GOMP_atomic_start
	cmpq	$2, %r13
	jbe	.L753
	leaq	-4(%r15), %rcx
	xorl	%eax, %eax
	xorl	%edx, %edx
	shrq	$2, %rcx
	incq	%rcx
	.p2align 4,,10
	.p2align 3
.L739:
	vmovdqu	(%rsi,%rax), %ymm4
	vpaddq	(%rbx,%rax), %ymm4, %ymm0
	incq	%rdx
	vmovdqu	%ymm0, (%rsi,%rax)
	addq	$32, %rax
	cmpq	%rcx, %rdx
	jb	.L739
	leaq	0(,%rcx,4), %rax
	salq	$5, %rcx
	leaq	(%rbx,%rcx), %rdi
	addq	%rcx, %rsi
	cmpq	%rax, %r15
	jne	.L766
	vzeroupper
	jmp	.L740
	.p2align 4,,10
	.p2align 3
.L753:
	xorl	%eax, %eax
	jmp	.L738
	.p2align 4,,10
	.p2align 3
.L766:
	vzeroupper
.L738:
	movq	(%rdi), %rdx
	addq	%rdx, (%rsi)
	leaq	1(%rax), %rdx
	cmpq	%rdx, %r13
	jb	.L740
	addq	$2, %rax
	movq	8(%rdi), %rdx
	addq	%rdx, 8(%rsi)
	cmpq	%rax, %r13
	jb	.L740
	movq	16(%rdi), %rax
	addq	%rax, 16(%rsi)
.L740:
	call	GOMP_atomic_end
	jmp	.L760
	.p2align 4,,10
	.p2align 3
.L737:
	movl	%r10d, -76(%rbp)
	call	omp_get_num_threads
	movslq	%eax, %r12
	call	omp_get_thread_num
	xorl	%edx, %edx
	movl	-76(%rbp), %r10d
	movslq	%eax, %rcx
	movq	-72(%rbp), %rax
	divq	%r12
	cmpq	%rdx, %rcx
	jb	.L741
.L751:
	imulq	%rax, %rcx
	addq	%rcx, %rdx
	addq	%rdx, %rax
	cmpq	%rax, %rdx
	jnb	.L742
	leal	-1(%r10), %ecx
	vmovsd	48(%r14), %xmm1
	vmovsd	.LC1(%rip), %xmm3
	movabsq	$-9223372036854775808, %r11
	leaq	(%rbx,%rcx,8), %r10
	movq	-88(%rbp), %rcx
	vmovapd	%xmm1, %xmm2
	vxorpd	.LC0(%rip), %xmm2, %xmm2
	leaq	(%rcx,%rdx,8), %rdx
	leaq	(%rcx,%rax,8), %rcx
	.p2align 4,,10
	.p2align 3
.L750:
	vmovsd	(%rdx), %xmm0
	vcomisd	%xmm1, %xmm0
	jb	.L761
	incq	(%r10)
	jmp	.L745
	.p2align 4,,10
	.p2align 3
.L761:
	vcomisd	%xmm0, %xmm2
	jbe	.L762
	incq	(%rbx)
	jmp	.L745
	.p2align 4,,10
	.p2align 3
.L762:
	vaddsd	%xmm0, %xmm1, %xmm0
	vdivsd	%xmm6, %xmm0, %xmm0
	vcomisd	%xmm3, %xmm0
	jnb	.L748
	vcvttsd2siq	%xmm0, %rax
	jmp	.L749
	.p2align 4,,10
	.p2align 3
.L748:
	vsubsd	%xmm3, %xmm0, %xmm0
	vcvttsd2siq	%xmm0, %rax
	xorq	%r11, %rax
.L749:
	incq	(%rbx,%rax,8)
.L745:
	addq	$8, %rdx
	cmpq	%rcx, %rdx
	jne	.L750
	jmp	.L742
	.p2align 4,,10
	.p2align 3
.L741:
	incq	%rax
	xorl	%edx, %edx
	jmp	.L751
	.p2align 4,,10
	.p2align 3
.L760:
	vmovaps	-64(%rbp), %xmm6
	leaq	-40(%rbp), %rsp
	popq	%rbx
	popq	%rsi
	popq	%rdi
	popq	%r12
	popq	%r13
	popq	%r14
	popq	%r15
	popq	%rbp
	ret
	.seh_handler	__gxx_personality_seh0, @unwind, @except
	.seh_handlerdata
.LLSDA17036:
	.byte	0xff
	.byte	0xff
	.byte	0x1
	.uleb128 .LLSDACSE17036-.LLSDACSB17036
.LLSDACSB17036:
.LLSDACSE17036:
	.text
	.seh_endproc
	.p2align 4
	.def	_ZN9HistogramIyfE10accumulateIfEEvPT_y._omp_fn.0;	.scl	3;	.type	32;	.endef
	.seh_proc	_ZN9HistogramIyfE10accumulateIfEEvPT_y._omp_fn.0
_ZN9HistogramIyfE10accumulateIfEEvPT_y._omp_fn.0:
.LFB17037:
	pushq	%rbp
	.seh_pushreg	%rbp
	pushq	%r15
	.seh_pushreg	%r15
	pushq	%r14
	.seh_pushreg	%r14
	pushq	%r13
	.seh_pushreg	%r13
	pushq	%r12
	.seh_pushreg	%r12
	pushq	%rdi
	.seh_pushreg	%rdi
	pushq	%rsi
	.seh_pushreg	%rsi
	pushq	%rbx
	.seh_pushreg	%rbx
	subq	$88, %rsp
	.seh_stackalloc	88
	leaq	128(%rsp), %rbp
	.seh_setframe	%rbp, 128
	vmovaps	%xmm6, -64(%rbp)
	.seh_savexmm	%xmm6, 64
	.seh_endprologue
	movq	8(%rcx), %rax
	movq	16(%rcx), %r14
	movq	24(%rcx), %rsi
	vmovss	32(%rcx), %xmm6
	movq	%rax, -72(%rbp)
	movq	(%rcx), %rax
	movq	%rax, -88(%rbp)
	call	_Z22manage_thread_affinityv
	movl	(%r14), %r15d
	leaq	15(,%r15,8), %rax
	movq	%r15, %r10
	leaq	-1(%r15), %r13
	shrq	$4, %rax
	salq	$4, %rax
	call	___chkstk_ms
	subq	%rax, %rsp
	leaq	32(%rsp), %rbx
	movq	%rbx, %rdi
	cmpl	$6, %r15d
	jbe	.L787
	leaq	-4(%r15), %rax
	xorl	%ecx, %ecx
	vpxor	%xmm0, %xmm0, %xmm0
	shrq	$2, %rax
	incq	%rax
	.p2align 4,,10
	.p2align 3
.L769:
	movq	%rcx, %rdx
	incq	%rcx
	salq	$5, %rdx
	vmovdqu	%ymm0, (%rbx,%rdx)
	cmpq	%rcx, %rax
	ja	.L769
	leaq	0(,%rax,4), %rdx
	salq	$5, %rax
	addq	%rbx, %rax
	cmpq	%rdx, %r15
	je	.L798
	leaq	1(%rdx), %rcx
	movq	$0, (%rax)
	cmpq	%rcx, %r13
	jb	.L799
	addq	$2, %rdx
	movq	$0, 8(%rax)
	cmpq	%rdx, %r13
	jb	.L800
	movq	$0, 16(%rax)
	vzeroupper
	jmp	.L771
	.p2align 4,,10
	.p2align 3
.L787:
	xorl	%eax, %eax
	.p2align 4,,10
	.p2align 3
.L768:
	movq	$0, (%rbx,%rax,8)
	incq	%rax
	cmpq	%rax, %r13
	jnb	.L768
	jmp	.L771
	.p2align 4,,10
	.p2align 3
.L798:
	vzeroupper
	jmp	.L771
.L799:
	vzeroupper
	jmp	.L771
.L800:
	vzeroupper
	.p2align 4,,10
	.p2align 3
.L771:
	cmpq	$0, -72(%rbp)
	jne	.L772
	.p2align 4,,10
	.p2align 3
.L777:
	call	GOMP_atomic_start
	cmpq	$2, %r13
	jbe	.L788
	leaq	-4(%r15), %rcx
	xorl	%eax, %eax
	xorl	%edx, %edx
	shrq	$2, %rcx
	incq	%rcx
	.p2align 4,,10
	.p2align 3
.L774:
	vmovdqu	(%rsi,%rax), %ymm4
	vpaddq	(%rbx,%rax), %ymm4, %ymm0
	incq	%rdx
	vmovdqu	%ymm0, (%rsi,%rax)
	addq	$32, %rax
	cmpq	%rcx, %rdx
	jb	.L774
	leaq	0(,%rcx,4), %rax
	salq	$5, %rcx
	leaq	(%rbx,%rcx), %rdi
	addq	%rcx, %rsi
	cmpq	%rax, %r15
	jne	.L801
	vzeroupper
	jmp	.L775
	.p2align 4,,10
	.p2align 3
.L788:
	xorl	%eax, %eax
	jmp	.L773
	.p2align 4,,10
	.p2align 3
.L801:
	vzeroupper
.L773:
	movq	(%rdi), %rdx
	addq	%rdx, (%rsi)
	leaq	1(%rax), %rdx
	cmpq	%rdx, %r13
	jb	.L775
	addq	$2, %rax
	movq	8(%rdi), %rdx
	addq	%rdx, 8(%rsi)
	cmpq	%rax, %r13
	jb	.L775
	movq	16(%rdi), %rax
	addq	%rax, 16(%rsi)
.L775:
	call	GOMP_atomic_end
	jmp	.L795
	.p2align 4,,10
	.p2align 3
.L772:
	movl	%r10d, -76(%rbp)
	call	omp_get_num_threads
	movslq	%eax, %r12
	call	omp_get_thread_num
	xorl	%edx, %edx
	movl	-76(%rbp), %r10d
	movslq	%eax, %rcx
	movq	-72(%rbp), %rax
	divq	%r12
	cmpq	%rdx, %rcx
	jb	.L776
.L786:
	imulq	%rax, %rcx
	addq	%rcx, %rdx
	addq	%rdx, %rax
	cmpq	%rax, %rdx
	jnb	.L777
	leal	-1(%r10), %ecx
	vmovss	48(%r14), %xmm1
	vmovss	.LC3(%rip), %xmm3
	movabsq	$-9223372036854775808, %r11
	leaq	(%rbx,%rcx,8), %r10
	movq	-88(%rbp), %rcx
	vmovaps	%xmm1, %xmm2
	vxorps	.LC2(%rip), %xmm2, %xmm2
	leaq	(%rcx,%rdx,4), %rdx
	leaq	(%rcx,%rax,4), %rcx
	.p2align 4,,10
	.p2align 3
.L785:
	vmovss	(%rdx), %xmm0
	vcomiss	%xmm1, %xmm0
	jb	.L796
	incq	(%r10)
	jmp	.L780
	.p2align 4,,10
	.p2align 3
.L796:
	vcomiss	%xmm0, %xmm2
	jbe	.L797
	incq	(%rbx)
	jmp	.L780
	.p2align 4,,10
	.p2align 3
.L797:
	vaddss	%xmm0, %xmm1, %xmm0
	vdivss	%xmm6, %xmm0, %xmm0
	vcomiss	.LC3(%rip), %xmm0
	jnb	.L783
	vcvttss2siq	%xmm0, %rax
	jmp	.L784
	.p2align 4,,10
	.p2align 3
.L783:
	vsubss	%xmm3, %xmm0, %xmm0
	vcvttss2siq	%xmm0, %rax
	xorq	%r11, %rax
.L784:
	incq	(%rbx,%rax,8)
.L780:
	addq	$4, %rdx
	cmpq	%rcx, %rdx
	jne	.L785
	jmp	.L777
	.p2align 4,,10
	.p2align 3
.L776:
	incq	%rax
	xorl	%edx, %edx
	jmp	.L786
	.p2align 4,,10
	.p2align 3
.L795:
	vmovaps	-64(%rbp), %xmm6
	leaq	-40(%rbp), %rsp
	popq	%rbx
	popq	%rsi
	popq	%rdi
	popq	%r12
	popq	%r13
	popq	%r14
	popq	%r15
	popq	%rbp
	ret
	.seh_handler	__gxx_personality_seh0, @unwind, @except
	.seh_handlerdata
.LLSDA17037:
	.byte	0xff
	.byte	0xff
	.byte	0x1
	.uleb128 .LLSDACSE17037-.LLSDACSB17037
.LLSDACSB17037:
.LLSDACSE17037:
	.text
	.seh_endproc
	.p2align 4
	.def	_ZN9HistogramIjdE10accumulateIdEEvPT_y._omp_fn.0;	.scl	3;	.type	32;	.endef
	.seh_proc	_ZN9HistogramIjdE10accumulateIdEEvPT_y._omp_fn.0
_ZN9HistogramIjdE10accumulateIdEEvPT_y._omp_fn.0:
.LFB17042:
	pushq	%rbp
	.seh_pushreg	%rbp
	pushq	%r15
	.seh_pushreg	%r15
	pushq	%r14
	.seh_pushreg	%r14
	pushq	%r13
	.seh_pushreg	%r13
	pushq	%r12
	.seh_pushreg	%r12
	pushq	%rdi
	.seh_pushreg	%rdi
	pushq	%rsi
	.seh_pushreg	%rsi
	pushq	%rbx
	.seh_pushreg	%rbx
	subq	$88, %rsp
	.seh_stackalloc	88
	leaq	128(%rsp), %rbp
	.seh_setframe	%rbp, 128
	vmovaps	%xmm6, -64(%rbp)
	.seh_savexmm	%xmm6, 64
	.seh_endprologue
	movq	8(%rcx), %rax
	movq	16(%rcx), %r14
	movq	32(%rcx), %rbx
	vmovsd	24(%rcx), %xmm6
	movq	%rax, -72(%rbp)
	movq	(%rcx), %rax
	movq	%rax, -88(%rbp)
	call	_Z22manage_thread_affinityv
	movl	(%r14), %r13d
	leaq	15(,%r13,4), %rax
	movq	%r13, %r10
	leaq	-1(%r13), %rdi
	shrq	$4, %rax
	salq	$4, %rax
	call	___chkstk_ms
	subq	%rax, %rsp
	leaq	32(%rsp), %rsi
	movq	%rsi, %r12
	cmpl	$7, %r13d
	jbe	.L822
	leaq	-8(%r13), %rax
	xorl	%ecx, %ecx
	vpxor	%xmm0, %xmm0, %xmm0
	shrq	$3, %rax
	incq	%rax
	.p2align 4,,10
	.p2align 3
.L804:
	movq	%rcx, %rdx
	incq	%rcx
	salq	$5, %rdx
	vmovdqu	%ymm0, (%rsi,%rdx)
	cmpq	%rcx, %rax
	ja	.L804
	leaq	0(,%rax,8), %rdx
	salq	$5, %rax
	addq	%rsi, %rax
	cmpq	%rdx, %r13
	je	.L833
	leaq	1(%rdx), %rcx
	movl	$0, (%rax)
	cmpq	%rcx, %rdi
	jb	.L834
	leaq	2(%rdx), %rcx
	movl	$0, 4(%rax)
	cmpq	%rcx, %rdi
	jb	.L835
	leaq	3(%rdx), %rcx
	movl	$0, 8(%rax)
	cmpq	%rcx, %rdi
	jb	.L836
	leaq	4(%rdx), %rcx
	movl	$0, 12(%rax)
	cmpq	%rcx, %rdi
	jb	.L837
	leaq	5(%rdx), %rcx
	movl	$0, 16(%rax)
	cmpq	%rcx, %rdi
	jb	.L838
	addq	$6, %rdx
	movl	$0, 20(%rax)
	cmpq	%rdx, %rdi
	jb	.L839
	movl	$0, 24(%rax)
	vzeroupper
	jmp	.L806
	.p2align 4,,10
	.p2align 3
.L822:
	xorl	%eax, %eax
	.p2align 4,,10
	.p2align 3
.L803:
	movl	$0, (%rsi,%rax,4)
	incq	%rax
	cmpq	%rax, %rdi
	jnb	.L803
	jmp	.L806
	.p2align 4,,10
	.p2align 3
.L833:
	vzeroupper
	jmp	.L806
.L834:
	vzeroupper
	jmp	.L806
.L835:
	vzeroupper
	jmp	.L806
.L836:
	vzeroupper
	jmp	.L806
.L837:
	vzeroupper
	jmp	.L806
.L838:
	vzeroupper
	jmp	.L806
.L839:
	vzeroupper
	.p2align 4,,10
	.p2align 3
.L806:
	cmpq	$0, -72(%rbp)
	jne	.L807
	.p2align 4,,10
	.p2align 3
.L812:
	call	GOMP_atomic_start
	cmpq	$6, %rdi
	jbe	.L823
	leaq	-8(%r13), %rcx
	xorl	%eax, %eax
	xorl	%edx, %edx
	shrq	$3, %rcx
	incq	%rcx
	.p2align 4,,10
	.p2align 3
.L809:
	vmovdqu	(%rbx,%rax), %ymm4
	vpaddd	(%rsi,%rax), %ymm4, %ymm0
	incq	%rdx
	vmovdqu	%ymm0, (%rbx,%rax)
	addq	$32, %rax
	cmpq	%rcx, %rdx
	jb	.L809
	leaq	0(,%rcx,8), %rax
	salq	$5, %rcx
	leaq	(%rsi,%rcx), %r12
	addq	%rcx, %rbx
	cmpq	%rax, %r13
	jne	.L840
	vzeroupper
	jmp	.L810
	.p2align 4,,10
	.p2align 3
.L823:
	xorl	%eax, %eax
	jmp	.L808
	.p2align 4,,10
	.p2align 3
.L840:
	vzeroupper
.L808:
	movl	(%r12), %edx
	addl	%edx, (%rbx)
	leaq	1(%rax), %rdx
	cmpq	%rdx, %rdi
	jb	.L810
	movl	4(%r12), %edx
	addl	%edx, 4(%rbx)
	leaq	2(%rax), %rdx
	cmpq	%rdx, %rdi
	jb	.L810
	movl	8(%r12), %edx
	addl	%edx, 8(%rbx)
	leaq	3(%rax), %rdx
	cmpq	%rdx, %rdi
	jb	.L810
	movl	12(%r12), %edx
	addl	%edx, 12(%rbx)
	leaq	4(%rax), %rdx
	cmpq	%rdx, %rdi
	jb	.L810
	movl	16(%r12), %edx
	addl	%edx, 16(%rbx)
	leaq	5(%rax), %rdx
	cmpq	%rdx, %rdi
	jb	.L810
	addq	$6, %rax
	movl	20(%r12), %edx
	addl	%edx, 20(%rbx)
	cmpq	%rax, %rdi
	jb	.L810
	movl	24(%r12), %eax
	addl	%eax, 24(%rbx)
.L810:
	call	GOMP_atomic_end
	jmp	.L830
	.p2align 4,,10
	.p2align 3
.L807:
	movl	%r10d, -76(%rbp)
	call	omp_get_num_threads
	movslq	%eax, %r15
	call	omp_get_thread_num
	xorl	%edx, %edx
	movl	-76(%rbp), %r10d
	movslq	%eax, %rcx
	movq	-72(%rbp), %rax
	divq	%r15
	cmpq	%rdx, %rcx
	jb	.L811
.L821:
	imulq	%rax, %rcx
	addq	%rcx, %rdx
	addq	%rdx, %rax
	cmpq	%rax, %rdx
	jnb	.L812
	leal	-1(%r10), %ecx
	vmovsd	48(%r14), %xmm1
	vmovsd	.LC1(%rip), %xmm3
	movabsq	$-9223372036854775808, %r11
	leaq	(%rsi,%rcx,4), %r10
	movq	-88(%rbp), %rcx
	vmovapd	%xmm1, %xmm2
	vxorpd	.LC0(%rip), %xmm2, %xmm2
	leaq	(%rcx,%rdx,8), %rdx
	leaq	(%rcx,%rax,8), %rcx
	.p2align 4,,10
	.p2align 3
.L820:
	vmovsd	(%rdx), %xmm0
	vcomisd	%xmm1, %xmm0
	jb	.L831
	incl	(%r10)
	jmp	.L815
	.p2align 4,,10
	.p2align 3
.L831:
	vcomisd	%xmm0, %xmm2
	jbe	.L832
	incl	(%rsi)
	jmp	.L815
	.p2align 4,,10
	.p2align 3
.L832:
	vaddsd	%xmm0, %xmm1, %xmm0
	vdivsd	%xmm6, %xmm0, %xmm0
	vcomisd	%xmm3, %xmm0
	jnb	.L818
	vcvttsd2siq	%xmm0, %rax
	jmp	.L819
	.p2align 4,,10
	.p2align 3
.L818:
	vsubsd	%xmm3, %xmm0, %xmm0
	vcvttsd2siq	%xmm0, %rax
	xorq	%r11, %rax
.L819:
	incl	(%rsi,%rax,4)
.L815:
	addq	$8, %rdx
	cmpq	%rcx, %rdx
	jne	.L820
	jmp	.L812
	.p2align 4,,10
	.p2align 3
.L811:
	incq	%rax
	xorl	%edx, %edx
	jmp	.L821
	.p2align 4,,10
	.p2align 3
.L830:
	vmovaps	-64(%rbp), %xmm6
	leaq	-40(%rbp), %rsp
	popq	%rbx
	popq	%rsi
	popq	%rdi
	popq	%r12
	popq	%r13
	popq	%r14
	popq	%r15
	popq	%rbp
	ret
	.seh_handler	__gxx_personality_seh0, @unwind, @except
	.seh_handlerdata
.LLSDA17042:
	.byte	0xff
	.byte	0xff
	.byte	0x1
	.uleb128 .LLSDACSE17042-.LLSDACSB17042
.LLSDACSB17042:
.LLSDACSE17042:
	.text
	.seh_endproc
	.p2align 4
	.def	_ZN9HistogramIjfE10accumulateIfEEvPT_y._omp_fn.0;	.scl	3;	.type	32;	.endef
	.seh_proc	_ZN9HistogramIjfE10accumulateIfEEvPT_y._omp_fn.0
_ZN9HistogramIjfE10accumulateIfEEvPT_y._omp_fn.0:
.LFB17043:
	pushq	%rbp
	.seh_pushreg	%rbp
	pushq	%r15
	.seh_pushreg	%r15
	pushq	%r14
	.seh_pushreg	%r14
	pushq	%r13
	.seh_pushreg	%r13
	pushq	%r12
	.seh_pushreg	%r12
	pushq	%rdi
	.seh_pushreg	%rdi
	pushq	%rsi
	.seh_pushreg	%rsi
	pushq	%rbx
	.seh_pushreg	%rbx
	subq	$88, %rsp
	.seh_stackalloc	88
	leaq	128(%rsp), %rbp
	.seh_setframe	%rbp, 128
	vmovaps	%xmm6, -64(%rbp)
	.seh_savexmm	%xmm6, 64
	.seh_endprologue
	movq	8(%rcx), %rax
	movq	16(%rcx), %r14
	movq	24(%rcx), %rbx
	vmovss	32(%rcx), %xmm6
	movq	%rax, -72(%rbp)
	movq	(%rcx), %rax
	movq	%rax, -88(%rbp)
	call	_Z22manage_thread_affinityv
	movl	(%r14), %r13d
	leaq	15(,%r13,4), %rax
	movq	%r13, %r10
	leaq	-1(%r13), %rdi
	shrq	$4, %rax
	salq	$4, %rax
	call	___chkstk_ms
	subq	%rax, %rsp
	leaq	32(%rsp), %rsi
	movq	%rsi, %r12
	cmpl	$7, %r13d
	jbe	.L861
	leaq	-8(%r13), %rax
	xorl	%ecx, %ecx
	vpxor	%xmm0, %xmm0, %xmm0
	shrq	$3, %rax
	incq	%rax
	.p2align 4,,10
	.p2align 3
.L843:
	movq	%rcx, %rdx
	incq	%rcx
	salq	$5, %rdx
	vmovdqu	%ymm0, (%rsi,%rdx)
	cmpq	%rcx, %rax
	ja	.L843
	leaq	0(,%rax,8), %rdx
	salq	$5, %rax
	addq	%rsi, %rax
	cmpq	%rdx, %r13
	je	.L872
	leaq	1(%rdx), %rcx
	movl	$0, (%rax)
	cmpq	%rcx, %rdi
	jb	.L873
	leaq	2(%rdx), %rcx
	movl	$0, 4(%rax)
	cmpq	%rcx, %rdi
	jb	.L874
	leaq	3(%rdx), %rcx
	movl	$0, 8(%rax)
	cmpq	%rcx, %rdi
	jb	.L875
	leaq	4(%rdx), %rcx
	movl	$0, 12(%rax)
	cmpq	%rcx, %rdi
	jb	.L876
	leaq	5(%rdx), %rcx
	movl	$0, 16(%rax)
	cmpq	%rcx, %rdi
	jb	.L877
	addq	$6, %rdx
	movl	$0, 20(%rax)
	cmpq	%rdx, %rdi
	jb	.L878
	movl	$0, 24(%rax)
	vzeroupper
	jmp	.L845
	.p2align 4,,10
	.p2align 3
.L861:
	xorl	%eax, %eax
	.p2align 4,,10
	.p2align 3
.L842:
	movl	$0, (%rsi,%rax,4)
	incq	%rax
	cmpq	%rax, %rdi
	jnb	.L842
	jmp	.L845
	.p2align 4,,10
	.p2align 3
.L872:
	vzeroupper
	jmp	.L845
.L873:
	vzeroupper
	jmp	.L845
.L874:
	vzeroupper
	jmp	.L845
.L875:
	vzeroupper
	jmp	.L845
.L876:
	vzeroupper
	jmp	.L845
.L877:
	vzeroupper
	jmp	.L845
.L878:
	vzeroupper
	.p2align 4,,10
	.p2align 3
.L845:
	cmpq	$0, -72(%rbp)
	jne	.L846
	.p2align 4,,10
	.p2align 3
.L851:
	call	GOMP_atomic_start
	cmpq	$6, %rdi
	jbe	.L862
	leaq	-8(%r13), %rcx
	xorl	%eax, %eax
	xorl	%edx, %edx
	shrq	$3, %rcx
	incq	%rcx
	.p2align 4,,10
	.p2align 3
.L848:
	vmovdqu	(%rbx,%rax), %ymm4
	vpaddd	(%rsi,%rax), %ymm4, %ymm0
	incq	%rdx
	vmovdqu	%ymm0, (%rbx,%rax)
	addq	$32, %rax
	cmpq	%rcx, %rdx
	jb	.L848
	leaq	0(,%rcx,8), %rax
	salq	$5, %rcx
	leaq	(%rsi,%rcx), %r12
	addq	%rcx, %rbx
	cmpq	%rax, %r13
	jne	.L879
	vzeroupper
	jmp	.L849
	.p2align 4,,10
	.p2align 3
.L862:
	xorl	%eax, %eax
	jmp	.L847
	.p2align 4,,10
	.p2align 3
.L879:
	vzeroupper
.L847:
	movl	(%r12), %edx
	addl	%edx, (%rbx)
	leaq	1(%rax), %rdx
	cmpq	%rdx, %rdi
	jb	.L849
	movl	4(%r12), %edx
	addl	%edx, 4(%rbx)
	leaq	2(%rax), %rdx
	cmpq	%rdx, %rdi
	jb	.L849
	movl	8(%r12), %edx
	addl	%edx, 8(%rbx)
	leaq	3(%rax), %rdx
	cmpq	%rdx, %rdi
	jb	.L849
	movl	12(%r12), %edx
	addl	%edx, 12(%rbx)
	leaq	4(%rax), %rdx
	cmpq	%rdx, %rdi
	jb	.L849
	movl	16(%r12), %edx
	addl	%edx, 16(%rbx)
	leaq	5(%rax), %rdx
	cmpq	%rdx, %rdi
	jb	.L849
	addq	$6, %rax
	movl	20(%r12), %edx
	addl	%edx, 20(%rbx)
	cmpq	%rax, %rdi
	jb	.L849
	movl	24(%r12), %eax
	addl	%eax, 24(%rbx)
.L849:
	call	GOMP_atomic_end
	jmp	.L869
	.p2align 4,,10
	.p2align 3
.L846:
	movl	%r10d, -76(%rbp)
	call	omp_get_num_threads
	movslq	%eax, %r15
	call	omp_get_thread_num
	xorl	%edx, %edx
	movl	-76(%rbp), %r10d
	movslq	%eax, %rcx
	movq	-72(%rbp), %rax
	divq	%r15
	cmpq	%rdx, %rcx
	jb	.L850
.L860:
	imulq	%rax, %rcx
	addq	%rcx, %rdx
	addq	%rdx, %rax
	cmpq	%rax, %rdx
	jnb	.L851
	leal	-1(%r10), %ecx
	vmovss	48(%r14), %xmm1
	vmovss	.LC3(%rip), %xmm3
	movabsq	$-9223372036854775808, %r11
	leaq	(%rsi,%rcx,4), %r10
	movq	-88(%rbp), %rcx
	vmovaps	%xmm1, %xmm2
	vxorps	.LC2(%rip), %xmm2, %xmm2
	leaq	(%rcx,%rdx,4), %rdx
	leaq	(%rcx,%rax,4), %rcx
	.p2align 4,,10
	.p2align 3
.L859:
	vmovss	(%rdx), %xmm0
	vcomiss	%xmm1, %xmm0
	jb	.L870
	incl	(%r10)
	jmp	.L854
	.p2align 4,,10
	.p2align 3
.L870:
	vcomiss	%xmm0, %xmm2
	jbe	.L871
	incl	(%rsi)
	jmp	.L854
	.p2align 4,,10
	.p2align 3
.L871:
	vaddss	%xmm0, %xmm1, %xmm0
	vdivss	%xmm6, %xmm0, %xmm0
	vcomiss	.LC3(%rip), %xmm0
	jnb	.L857
	vcvttss2siq	%xmm0, %rax
	jmp	.L858
	.p2align 4,,10
	.p2align 3
.L857:
	vsubss	%xmm3, %xmm0, %xmm0
	vcvttss2siq	%xmm0, %rax
	xorq	%r11, %rax
.L858:
	incl	(%rsi,%rax,4)
.L854:
	addq	$4, %rdx
	cmpq	%rcx, %rdx
	jne	.L859
	jmp	.L851
	.p2align 4,,10
	.p2align 3
.L850:
	incq	%rax
	xorl	%edx, %edx
	jmp	.L860
	.p2align 4,,10
	.p2align 3
.L869:
	vmovaps	-64(%rbp), %xmm6
	leaq	-40(%rbp), %rsp
	popq	%rbx
	popq	%rsi
	popq	%rdi
	popq	%r12
	popq	%r13
	popq	%r14
	popq	%r15
	popq	%rbp
	ret
	.seh_handler	__gxx_personality_seh0, @unwind, @except
	.seh_handlerdata
.LLSDA17043:
	.byte	0xff
	.byte	0xff
	.byte	0x1
	.uleb128 .LLSDACSE17043-.LLSDACSB17043
.LLSDACSB17043:
.LLSDACSE17043:
	.text
	.seh_endproc
	.p2align 4
	.def	_ZN9HistogramItdE10accumulateIdEEvPT_y._omp_fn.0;	.scl	3;	.type	32;	.endef
	.seh_proc	_ZN9HistogramItdE10accumulateIdEEvPT_y._omp_fn.0
_ZN9HistogramItdE10accumulateIdEEvPT_y._omp_fn.0:
.LFB17048:
	pushq	%rbp
	.seh_pushreg	%rbp
	pushq	%r15
	.seh_pushreg	%r15
	pushq	%r14
	.seh_pushreg	%r14
	pushq	%r13
	.seh_pushreg	%r13
	pushq	%r12
	.seh_pushreg	%r12
	pushq	%rdi
	.seh_pushreg	%rdi
	pushq	%rsi
	.seh_pushreg	%rsi
	pushq	%rbx
	.seh_pushreg	%rbx
	subq	$88, %rsp
	.seh_stackalloc	88
	leaq	128(%rsp), %rbp
	.seh_setframe	%rbp, 128
	vmovaps	%xmm6, -64(%rbp)
	.seh_savexmm	%xmm6, 64
	.seh_endprologue
	movq	8(%rcx), %rax
	movq	16(%rcx), %r14
	movq	32(%rcx), %rbx
	vmovsd	24(%rcx), %xmm6
	movq	%rax, -72(%rbp)
	movq	(%rcx), %rax
	movq	%rax, -88(%rbp)
	call	_Z22manage_thread_affinityv
	movl	(%r14), %r13d
	leaq	15(%r13,%r13), %rax
	movq	%r13, %r10
	leaq	-1(%r13), %rdi
	shrq	$4, %rax
	salq	$4, %rax
	call	___chkstk_ms
	subq	%rax, %rsp
	leaq	32(%rsp), %rsi
	movq	%rsi, %r12
	cmpl	$15, %r13d
	jbe	.L900
	leaq	-16(%r13), %rax
	xorl	%ecx, %ecx
	vpxor	%xmm0, %xmm0, %xmm0
	shrq	$4, %rax
	incq	%rax
	.p2align 4,,10
	.p2align 3
.L882:
	movq	%rcx, %rdx
	incq	%rcx
	salq	$5, %rdx
	vmovdqu	%ymm0, (%rsi,%rdx)
	cmpq	%rcx, %rax
	ja	.L882
	movq	%rax, %rdx
	salq	$5, %rax
	salq	$4, %rdx
	addq	%rsi, %rax
	cmpq	%rdx, %r13
	je	.L911
	xorl	%r15d, %r15d
	leaq	1(%rdx), %rcx
	movw	%r15w, (%rax)
	cmpq	%rcx, %rdi
	jb	.L912
	xorl	%r11d, %r11d
	leaq	2(%rdx), %rcx
	movw	%r11w, 2(%rax)
	cmpq	%rcx, %rdi
	jb	.L913
	xorl	%r9d, %r9d
	leaq	3(%rdx), %rcx
	movw	%r9w, 4(%rax)
	cmpq	%rcx, %rdi
	jb	.L914
	xorl	%r8d, %r8d
	leaq	4(%rdx), %rcx
	movw	%r8w, 6(%rax)
	cmpq	%rcx, %rdi
	jb	.L915
	xorl	%ecx, %ecx
	movw	%cx, 8(%rax)
	leaq	5(%rdx), %rcx
	cmpq	%rcx, %rdi
	jb	.L916
	xorl	%r15d, %r15d
	leaq	6(%rdx), %rcx
	movw	%r15w, 10(%rax)
	cmpq	%rcx, %rdi
	jb	.L917
	xorl	%r11d, %r11d
	leaq	7(%rdx), %rcx
	movw	%r11w, 12(%rax)
	cmpq	%rcx, %rdi
	jb	.L918
	xorl	%r9d, %r9d
	leaq	8(%rdx), %rcx
	movw	%r9w, 14(%rax)
	cmpq	%rcx, %rdi
	jb	.L919
	xorl	%r8d, %r8d
	leaq	9(%rdx), %rcx
	movw	%r8w, 16(%rax)
	cmpq	%rcx, %rdi
	jb	.L920
	xorl	%ecx, %ecx
	movw	%cx, 18(%rax)
	leaq	10(%rdx), %rcx
	cmpq	%rcx, %rdi
	jb	.L921
	xorl	%r15d, %r15d
	leaq	11(%rdx), %rcx
	movw	%r15w, 20(%rax)
	cmpq	%rcx, %rdi
	jb	.L922
	xorl	%r11d, %r11d
	leaq	12(%rdx), %rcx
	movw	%r11w, 22(%rax)
	cmpq	%rcx, %rdi
	jb	.L923
	xorl	%r9d, %r9d
	leaq	13(%rdx), %rcx
	movw	%r9w, 24(%rax)
	cmpq	%rcx, %rdi
	jb	.L924
	xorl	%r8d, %r8d
	addq	$14, %rdx
	movw	%r8w, 26(%rax)
	cmpq	%rdx, %rdi
	jb	.L925
	xorl	%ecx, %ecx
	movw	%cx, 28(%rax)
	vzeroupper
	jmp	.L884
	.p2align 4,,10
	.p2align 3
.L900:
	xorl	%eax, %eax
	.p2align 4,,10
	.p2align 3
.L881:
	xorl	%edx, %edx
	movw	%dx, (%rsi,%rax,2)
	incq	%rax
	cmpq	%rax, %rdi
	jnb	.L881
	jmp	.L884
.L911:
	vzeroupper
	jmp	.L884
.L912:
	vzeroupper
	jmp	.L884
.L913:
	vzeroupper
	jmp	.L884
.L914:
	vzeroupper
	jmp	.L884
.L915:
	vzeroupper
	jmp	.L884
.L916:
	vzeroupper
	jmp	.L884
.L917:
	vzeroupper
	jmp	.L884
.L918:
	vzeroupper
	jmp	.L884
.L919:
	vzeroupper
	jmp	.L884
.L920:
	vzeroupper
	jmp	.L884
.L921:
	vzeroupper
	jmp	.L884
.L922:
	vzeroupper
	jmp	.L884
.L923:
	vzeroupper
	jmp	.L884
.L924:
	vzeroupper
	jmp	.L884
.L925:
	vzeroupper
	.p2align 4,,10
	.p2align 3
.L884:
	cmpq	$0, -72(%rbp)
	jne	.L885
	.p2align 4,,10
	.p2align 3
.L890:
	call	GOMP_atomic_start
	cmpq	$14, %rdi
	jbe	.L901
	leaq	-16(%r13), %rcx
	xorl	%eax, %eax
	xorl	%edx, %edx
	shrq	$4, %rcx
	incq	%rcx
	.p2align 4,,10
	.p2align 3
.L887:
	vmovdqu	(%rbx,%rax), %ymm4
	vpaddw	(%rsi,%rax), %ymm4, %ymm0
	incq	%rdx
	vmovdqu	%ymm0, (%rbx,%rax)
	addq	$32, %rax
	cmpq	%rcx, %rdx
	jb	.L887
	movq	%rcx, %rax
	salq	$5, %rcx
	salq	$4, %rax
	leaq	(%rsi,%rcx), %r12
	addq	%rcx, %rbx
	cmpq	%rax, %r13
	jne	.L926
	vzeroupper
	jmp	.L888
	.p2align 4,,10
	.p2align 3
.L901:
	xorl	%eax, %eax
	jmp	.L886
	.p2align 4,,10
	.p2align 3
.L926:
	vzeroupper
.L886:
	movzwl	(%r12), %edx
	addw	%dx, (%rbx)
	leaq	1(%rax), %rdx
	cmpq	%rdx, %rdi
	jb	.L888
	movzwl	2(%r12), %edx
	addw	%dx, 2(%rbx)
	leaq	2(%rax), %rdx
	cmpq	%rdx, %rdi
	jb	.L888
	movzwl	4(%r12), %edx
	addw	%dx, 4(%rbx)
	leaq	3(%rax), %rdx
	cmpq	%rdx, %rdi
	jb	.L888
	movzwl	6(%r12), %edx
	addw	%dx, 6(%rbx)
	leaq	4(%rax), %rdx
	cmpq	%rdx, %rdi
	jb	.L888
	movzwl	8(%r12), %edx
	addw	%dx, 8(%rbx)
	leaq	5(%rax), %rdx
	cmpq	%rdx, %rdi
	jb	.L888
	movzwl	10(%r12), %edx
	addw	%dx, 10(%rbx)
	leaq	6(%rax), %rdx
	cmpq	%rdx, %rdi
	jb	.L888
	movzwl	12(%r12), %edx
	addw	%dx, 12(%rbx)
	leaq	7(%rax), %rdx
	cmpq	%rdx, %rdi
	jb	.L888
	movzwl	14(%r12), %edx
	addw	%dx, 14(%rbx)
	leaq	8(%rax), %rdx
	cmpq	%rdx, %rdi
	jb	.L888
	movzwl	16(%r12), %edx
	addw	%dx, 16(%rbx)
	leaq	9(%rax), %rdx
	cmpq	%rdx, %rdi
	jb	.L888
	movzwl	18(%r12), %edx
	addw	%dx, 18(%rbx)
	leaq	10(%rax), %rdx
	cmpq	%rdx, %rdi
	jb	.L888
	movzwl	20(%r12), %edx
	addw	%dx, 20(%rbx)
	leaq	11(%rax), %rdx
	cmpq	%rdx, %rdi
	jb	.L888
	movzwl	22(%r12), %edx
	addw	%dx, 22(%rbx)
	leaq	12(%rax), %rdx
	cmpq	%rdx, %rdi
	jb	.L888
	movzwl	24(%r12), %edx
	addw	%dx, 24(%rbx)
	leaq	13(%rax), %rdx
	cmpq	%rdx, %rdi
	jb	.L888
	addq	$14, %rax
	movzwl	26(%r12), %edx
	addw	%dx, 26(%rbx)
	cmpq	%rax, %rdi
	jb	.L888
	movzwl	28(%r12), %eax
	addw	%ax, 28(%rbx)
	.p2align 4,,10
	.p2align 3
.L888:
	call	GOMP_atomic_end
	jmp	.L908
	.p2align 4,,10
	.p2align 3
.L885:
	movl	%r10d, -76(%rbp)
	call	omp_get_num_threads
	movslq	%eax, %r15
	call	omp_get_thread_num
	xorl	%edx, %edx
	movl	-76(%rbp), %r10d
	movslq	%eax, %rcx
	movq	-72(%rbp), %rax
	divq	%r15
	cmpq	%rdx, %rcx
	jb	.L889
.L899:
	imulq	%rax, %rcx
	addq	%rcx, %rdx
	addq	%rdx, %rax
	cmpq	%rax, %rdx
	jnb	.L890
	leal	-1(%r10), %ecx
	vmovsd	48(%r14), %xmm1
	vmovsd	.LC1(%rip), %xmm3
	movabsq	$-9223372036854775808, %r11
	leaq	(%rsi,%rcx,2), %r10
	movq	-88(%rbp), %rcx
	vmovapd	%xmm1, %xmm2
	vxorpd	.LC0(%rip), %xmm2, %xmm2
	leaq	(%rcx,%rdx,8), %rdx
	leaq	(%rcx,%rax,8), %rcx
	.p2align 4,,10
	.p2align 3
.L898:
	vmovsd	(%rdx), %xmm0
	vcomisd	%xmm1, %xmm0
	jb	.L909
	incw	(%r10)
	jmp	.L893
	.p2align 4,,10
	.p2align 3
.L909:
	vcomisd	%xmm0, %xmm2
	jbe	.L910
	incw	(%rsi)
	jmp	.L893
	.p2align 4,,10
	.p2align 3
.L910:
	vaddsd	%xmm0, %xmm1, %xmm0
	vdivsd	%xmm6, %xmm0, %xmm0
	vcomisd	%xmm3, %xmm0
	jnb	.L896
	vcvttsd2siq	%xmm0, %rax
	jmp	.L897
	.p2align 4,,10
	.p2align 3
.L896:
	vsubsd	%xmm3, %xmm0, %xmm0
	vcvttsd2siq	%xmm0, %rax
	xorq	%r11, %rax
.L897:
	incw	(%rsi,%rax,2)
.L893:
	addq	$8, %rdx
	cmpq	%rcx, %rdx
	jne	.L898
	jmp	.L890
	.p2align 4,,10
	.p2align 3
.L889:
	incq	%rax
	xorl	%edx, %edx
	jmp	.L899
	.p2align 4,,10
	.p2align 3
.L908:
	vmovaps	-64(%rbp), %xmm6
	leaq	-40(%rbp), %rsp
	popq	%rbx
	popq	%rsi
	popq	%rdi
	popq	%r12
	popq	%r13
	popq	%r14
	popq	%r15
	popq	%rbp
	ret
	.seh_handler	__gxx_personality_seh0, @unwind, @except
	.seh_handlerdata
.LLSDA17048:
	.byte	0xff
	.byte	0xff
	.byte	0x1
	.uleb128 .LLSDACSE17048-.LLSDACSB17048
.LLSDACSB17048:
.LLSDACSE17048:
	.text
	.seh_endproc
	.p2align 4
	.def	_ZN9HistogramItfE10accumulateIfEEvPT_y._omp_fn.0;	.scl	3;	.type	32;	.endef
	.seh_proc	_ZN9HistogramItfE10accumulateIfEEvPT_y._omp_fn.0
_ZN9HistogramItfE10accumulateIfEEvPT_y._omp_fn.0:
.LFB17049:
	pushq	%rbp
	.seh_pushreg	%rbp
	pushq	%r15
	.seh_pushreg	%r15
	pushq	%r14
	.seh_pushreg	%r14
	pushq	%r13
	.seh_pushreg	%r13
	pushq	%r12
	.seh_pushreg	%r12
	pushq	%rdi
	.seh_pushreg	%rdi
	pushq	%rsi
	.seh_pushreg	%rsi
	pushq	%rbx
	.seh_pushreg	%rbx
	subq	$88, %rsp
	.seh_stackalloc	88
	leaq	128(%rsp), %rbp
	.seh_setframe	%rbp, 128
	vmovaps	%xmm6, -64(%rbp)
	.seh_savexmm	%xmm6, 64
	.seh_endprologue
	movq	8(%rcx), %rax
	movq	16(%rcx), %r14
	movq	24(%rcx), %rbx
	vmovss	32(%rcx), %xmm6
	movq	%rax, -72(%rbp)
	movq	(%rcx), %rax
	movq	%rax, -88(%rbp)
	call	_Z22manage_thread_affinityv
	movl	(%r14), %r13d
	leaq	15(%r13,%r13), %rax
	movq	%r13, %r10
	leaq	-1(%r13), %rdi
	shrq	$4, %rax
	salq	$4, %rax
	call	___chkstk_ms
	subq	%rax, %rsp
	leaq	32(%rsp), %rsi
	movq	%rsi, %r12
	cmpl	$15, %r13d
	jbe	.L947
	leaq	-16(%r13), %rax
	xorl	%ecx, %ecx
	vpxor	%xmm0, %xmm0, %xmm0
	shrq	$4, %rax
	incq	%rax
	.p2align 4,,10
	.p2align 3
.L929:
	movq	%rcx, %rdx
	incq	%rcx
	salq	$5, %rdx
	vmovdqu	%ymm0, (%rsi,%rdx)
	cmpq	%rcx, %rax
	ja	.L929
	movq	%rax, %rdx
	salq	$5, %rax
	salq	$4, %rdx
	addq	%rsi, %rax
	cmpq	%rdx, %r13
	je	.L958
	xorl	%r15d, %r15d
	leaq	1(%rdx), %rcx
	movw	%r15w, (%rax)
	cmpq	%rcx, %rdi
	jb	.L959
	xorl	%r11d, %r11d
	leaq	2(%rdx), %rcx
	movw	%r11w, 2(%rax)
	cmpq	%rcx, %rdi
	jb	.L960
	xorl	%r9d, %r9d
	leaq	3(%rdx), %rcx
	movw	%r9w, 4(%rax)
	cmpq	%rcx, %rdi
	jb	.L961
	xorl	%r8d, %r8d
	leaq	4(%rdx), %rcx
	movw	%r8w, 6(%rax)
	cmpq	%rcx, %rdi
	jb	.L962
	xorl	%ecx, %ecx
	movw	%cx, 8(%rax)
	leaq	5(%rdx), %rcx
	cmpq	%rcx, %rdi
	jb	.L963
	xorl	%r15d, %r15d
	leaq	6(%rdx), %rcx
	movw	%r15w, 10(%rax)
	cmpq	%rcx, %rdi
	jb	.L964
	xorl	%r11d, %r11d
	leaq	7(%rdx), %rcx
	movw	%r11w, 12(%rax)
	cmpq	%rcx, %rdi
	jb	.L965
	xorl	%r9d, %r9d
	leaq	8(%rdx), %rcx
	movw	%r9w, 14(%rax)
	cmpq	%rcx, %rdi
	jb	.L966
	xorl	%r8d, %r8d
	leaq	9(%rdx), %rcx
	movw	%r8w, 16(%rax)
	cmpq	%rcx, %rdi
	jb	.L967
	xorl	%ecx, %ecx
	movw	%cx, 18(%rax)
	leaq	10(%rdx), %rcx
	cmpq	%rcx, %rdi
	jb	.L968
	xorl	%r15d, %r15d
	leaq	11(%rdx), %rcx
	movw	%r15w, 20(%rax)
	cmpq	%rcx, %rdi
	jb	.L969
	xorl	%r11d, %r11d
	leaq	12(%rdx), %rcx
	movw	%r11w, 22(%rax)
	cmpq	%rcx, %rdi
	jb	.L970
	xorl	%r9d, %r9d
	leaq	13(%rdx), %rcx
	movw	%r9w, 24(%rax)
	cmpq	%rcx, %rdi
	jb	.L971
	xorl	%r8d, %r8d
	addq	$14, %rdx
	movw	%r8w, 26(%rax)
	cmpq	%rdx, %rdi
	jb	.L972
	xorl	%ecx, %ecx
	movw	%cx, 28(%rax)
	vzeroupper
	jmp	.L931
	.p2align 4,,10
	.p2align 3
.L947:
	xorl	%eax, %eax
	.p2align 4,,10
	.p2align 3
.L928:
	xorl	%edx, %edx
	movw	%dx, (%rsi,%rax,2)
	incq	%rax
	cmpq	%rax, %rdi
	jnb	.L928
	jmp	.L931
.L958:
	vzeroupper
	jmp	.L931
.L959:
	vzeroupper
	jmp	.L931
.L960:
	vzeroupper
	jmp	.L931
.L961:
	vzeroupper
	jmp	.L931
.L962:
	vzeroupper
	jmp	.L931
.L963:
	vzeroupper
	jmp	.L931
.L964:
	vzeroupper
	jmp	.L931
.L965:
	vzeroupper
	jmp	.L931
.L966:
	vzeroupper
	jmp	.L931
.L967:
	vzeroupper
	jmp	.L931
.L968:
	vzeroupper
	jmp	.L931
.L969:
	vzeroupper
	jmp	.L931
.L970:
	vzeroupper
	jmp	.L931
.L971:
	vzeroupper
	jmp	.L931
.L972:
	vzeroupper
	.p2align 4,,10
	.p2align 3
.L931:
	cmpq	$0, -72(%rbp)
	jne	.L932
	.p2align 4,,10
	.p2align 3
.L937:
	call	GOMP_atomic_start
	cmpq	$14, %rdi
	jbe	.L948
	leaq	-16(%r13), %rcx
	xorl	%eax, %eax
	xorl	%edx, %edx
	shrq	$4, %rcx
	incq	%rcx
	.p2align 4,,10
	.p2align 3
.L934:
	vmovdqu	(%rbx,%rax), %ymm4
	vpaddw	(%rsi,%rax), %ymm4, %ymm0
	incq	%rdx
	vmovdqu	%ymm0, (%rbx,%rax)
	addq	$32, %rax
	cmpq	%rcx, %rdx
	jb	.L934
	movq	%rcx, %rax
	salq	$5, %rcx
	salq	$4, %rax
	leaq	(%rsi,%rcx), %r12
	addq	%rcx, %rbx
	cmpq	%rax, %r13
	jne	.L973
	vzeroupper
	jmp	.L935
	.p2align 4,,10
	.p2align 3
.L948:
	xorl	%eax, %eax
	jmp	.L933
	.p2align 4,,10
	.p2align 3
.L973:
	vzeroupper
.L933:
	movzwl	(%r12), %edx
	addw	%dx, (%rbx)
	leaq	1(%rax), %rdx
	cmpq	%rdx, %rdi
	jb	.L935
	movzwl	2(%r12), %edx
	addw	%dx, 2(%rbx)
	leaq	2(%rax), %rdx
	cmpq	%rdx, %rdi
	jb	.L935
	movzwl	4(%r12), %edx
	addw	%dx, 4(%rbx)
	leaq	3(%rax), %rdx
	cmpq	%rdx, %rdi
	jb	.L935
	movzwl	6(%r12), %edx
	addw	%dx, 6(%rbx)
	leaq	4(%rax), %rdx
	cmpq	%rdx, %rdi
	jb	.L935
	movzwl	8(%r12), %edx
	addw	%dx, 8(%rbx)
	leaq	5(%rax), %rdx
	cmpq	%rdx, %rdi
	jb	.L935
	movzwl	10(%r12), %edx
	addw	%dx, 10(%rbx)
	leaq	6(%rax), %rdx
	cmpq	%rdx, %rdi
	jb	.L935
	movzwl	12(%r12), %edx
	addw	%dx, 12(%rbx)
	leaq	7(%rax), %rdx
	cmpq	%rdx, %rdi
	jb	.L935
	movzwl	14(%r12), %edx
	addw	%dx, 14(%rbx)
	leaq	8(%rax), %rdx
	cmpq	%rdx, %rdi
	jb	.L935
	movzwl	16(%r12), %edx
	addw	%dx, 16(%rbx)
	leaq	9(%rax), %rdx
	cmpq	%rdx, %rdi
	jb	.L935
	movzwl	18(%r12), %edx
	addw	%dx, 18(%rbx)
	leaq	10(%rax), %rdx
	cmpq	%rdx, %rdi
	jb	.L935
	movzwl	20(%r12), %edx
	addw	%dx, 20(%rbx)
	leaq	11(%rax), %rdx
	cmpq	%rdx, %rdi
	jb	.L935
	movzwl	22(%r12), %edx
	addw	%dx, 22(%rbx)
	leaq	12(%rax), %rdx
	cmpq	%rdx, %rdi
	jb	.L935
	movzwl	24(%r12), %edx
	addw	%dx, 24(%rbx)
	leaq	13(%rax), %rdx
	cmpq	%rdx, %rdi
	jb	.L935
	addq	$14, %rax
	movzwl	26(%r12), %edx
	addw	%dx, 26(%rbx)
	cmpq	%rax, %rdi
	jb	.L935
	movzwl	28(%r12), %eax
	addw	%ax, 28(%rbx)
	.p2align 4,,10
	.p2align 3
.L935:
	call	GOMP_atomic_end
	jmp	.L955
	.p2align 4,,10
	.p2align 3
.L932:
	movl	%r10d, -76(%rbp)
	call	omp_get_num_threads
	movslq	%eax, %r15
	call	omp_get_thread_num
	xorl	%edx, %edx
	movl	-76(%rbp), %r10d
	movslq	%eax, %rcx
	movq	-72(%rbp), %rax
	divq	%r15
	cmpq	%rdx, %rcx
	jb	.L936
.L946:
	imulq	%rax, %rcx
	addq	%rcx, %rdx
	addq	%rdx, %rax
	cmpq	%rax, %rdx
	jnb	.L937
	leal	-1(%r10), %ecx
	vmovss	48(%r14), %xmm1
	vmovss	.LC3(%rip), %xmm3
	movabsq	$-9223372036854775808, %r11
	leaq	(%rsi,%rcx,2), %r10
	movq	-88(%rbp), %rcx
	vmovaps	%xmm1, %xmm2
	vxorps	.LC2(%rip), %xmm2, %xmm2
	leaq	(%rcx,%rdx,4), %rdx
	leaq	(%rcx,%rax,4), %rcx
	.p2align 4,,10
	.p2align 3
.L945:
	vmovss	(%rdx), %xmm0
	vcomiss	%xmm1, %xmm0
	jb	.L956
	incw	(%r10)
	jmp	.L940
	.p2align 4,,10
	.p2align 3
.L956:
	vcomiss	%xmm0, %xmm2
	jbe	.L957
	incw	(%rsi)
	jmp	.L940
	.p2align 4,,10
	.p2align 3
.L957:
	vaddss	%xmm0, %xmm1, %xmm0
	vdivss	%xmm6, %xmm0, %xmm0
	vcomiss	.LC3(%rip), %xmm0
	jnb	.L943
	vcvttss2siq	%xmm0, %rax
	jmp	.L944
	.p2align 4,,10
	.p2align 3
.L943:
	vsubss	%xmm3, %xmm0, %xmm0
	vcvttss2siq	%xmm0, %rax
	xorq	%r11, %rax
.L944:
	incw	(%rsi,%rax,2)
.L940:
	addq	$4, %rdx
	cmpq	%rcx, %rdx
	jne	.L945
	jmp	.L937
	.p2align 4,,10
	.p2align 3
.L936:
	incq	%rax
	xorl	%edx, %edx
	jmp	.L946
	.p2align 4,,10
	.p2align 3
.L955:
	vmovaps	-64(%rbp), %xmm6
	leaq	-40(%rbp), %rsp
	popq	%rbx
	popq	%rsi
	popq	%rdi
	popq	%r12
	popq	%r13
	popq	%r14
	popq	%r15
	popq	%rbp
	ret
	.seh_handler	__gxx_personality_seh0, @unwind, @except
	.seh_handlerdata
.LLSDA17049:
	.byte	0xff
	.byte	0xff
	.byte	0x1
	.uleb128 .LLSDACSE17049-.LLSDACSB17049
.LLSDACSB17049:
.LLSDACSE17049:
	.text
	.seh_endproc
	.align 2
	.p2align 4
	.def	_ZN8pybind1112cpp_function20make_function_recordEv.isra.0;	.scl	3;	.type	32;	.endef
	.seh_proc	_ZN8pybind1112cpp_function20make_function_recordEv.isra.0
_ZN8pybind1112cpp_function20make_function_recordEv.isra.0:
.LFB17300:
	subq	$40, %rsp
	.seh_stackalloc	40
	.seh_endprologue
	movl	$128, %ecx
	call	_Znwy
	vpxor	%xmm0, %xmm0, %xmm0
	andw	$-32768, 88(%rax)
	movq	$0, 32(%rax)
	movq	$0, 40(%rax)
	movq	$0, 48(%rax)
	movq	$0, 56(%rax)
	movq	$0, 64(%rax)
	movq	$0, 72(%rax)
	movq	$0, 80(%rax)
	vmovdqu	%ymm0, (%rax)
	vmovdqu	%ymm0, 96(%rax)
	vzeroupper
	addq	$40, %rsp
	ret
	.seh_endproc
	.section .rdata,"dr"
.LC5:
	.ascii "%i.%i\0"
	.text
	.p2align 4
	.def	_ZL6sscanfPKcS0_z.constprop.0;	.scl	3;	.type	32;	.endef
	.seh_proc	_ZL6sscanfPKcS0_z.constprop.0
_ZL6sscanfPKcS0_z.constprop.0:
.LFB17650:
	subq	$56, %rsp
	.seh_stackalloc	56
	.seh_endprologue
	leaq	.LC5(%rip), %rdx
	movq	%r8, 80(%rsp)
	leaq	80(%rsp), %r8
	movq	%r9, 88(%rsp)
	movq	%r8, 40(%rsp)
	call	__mingw_vsscanf
	addq	$56, %rsp
	ret
	.seh_endproc
	.p2align 4
	.def	_ZN9__gnu_cxx12__to_xstringINSt7__cxx1112basic_stringIcSt11char_traitsIcESaIcEEEcEET_PFiPT0_yPKS8_PcEySB_z.constprop.0;	.scl	3;	.type	32;	.endef
	.seh_proc	_ZN9__gnu_cxx12__to_xstringINSt7__cxx1112basic_stringIcSt11char_traitsIcESaIcEEEcEET_PFiPT0_yPKS8_PcEySB_z.constprop.0
_ZN9__gnu_cxx12__to_xstringINSt7__cxx1112basic_stringIcSt11char_traitsIcESaIcEEEcEET_PFiPT0_yPKS8_PcEySB_z.constprop.0:
.LFB17651:
	pushq	%rbp
	.seh_pushreg	%rbp
	pushq	%r13
	.seh_pushreg	%r13
	pushq	%r12
	.seh_pushreg	%r12
	pushq	%rbx
	.seh_pushreg	%rbx
	subq	$56, %rsp
	.seh_stackalloc	56
	leaq	128(%rsp), %rbp
	.seh_setframe	%rbp, 128
	.seh_endprologue
	movq	%r8, %rdx
	movq	%rcx, %r12
	movq	%r9, %r8
	leaq	31(%rdx), %rax
	andq	$-16, %rax
	call	___chkstk_ms
	subq	%rax, %rsp
	movq	%rbp, %r9
	movq	%rbp, -96(%rbp)
	leaq	63(%rsp), %r13
	andq	$-32, %r13
	movq	%r13, %rcx
	call	__mingw_vsnprintf
	leaq	16(%r12), %rcx
	movslq	%eax, %rbx
	movq	%rcx, (%r12)
	movq	%rbx, -88(%rbp)
	cmpq	$15, %rbx
	ja	.L984
	cmpq	$1, %rbx
	jne	.L979
	movzbl	0(%r13), %eax
	movb	%al, 16(%r12)
.L980:
	movq	%r12, %rax
	movq	%rbx, 8(%r12)
	movb	$0, (%rcx,%rbx)
	leaq	-72(%rbp), %rsp
	popq	%rbx
	popq	%r12
	popq	%r13
	popq	%rbp
	ret
	.p2align 4,,10
	.p2align 3
.L979:
	testq	%rbx, %rbx
	je	.L980
	jmp	.L978
	.p2align 4,,10
	.p2align 3
.L984:
	movq	%r12, %rcx
	leaq	-88(%rbp), %rdx
	xorl	%r8d, %r8d
	call	_ZNSt7__cxx1112basic_stringIcSt11char_traitsIcESaIcEE9_M_createERyy
	movq	%rax, (%r12)
	movq	%rax, %rcx
	movq	-88(%rbp), %rax
	movq	%rax, 16(%r12)
.L978:
	movq	%rbx, %r8
	movq	%r13, %rdx
	call	memcpy
	movq	-88(%rbp), %rbx
	movq	(%r12), %rcx
	jmp	.L980
	.seh_endproc
	.section .rdata,"dr"
.LC6:
	.ascii "basic_string::append\0"
.LC7:
	.ascii ": No constructor defined!\0"
	.section	.text$pybind11_object_init,"x"
	.linkonce discard
	.p2align 4
	.globl	pybind11_object_init
	.def	pybind11_object_init;	.scl	2;	.type	32;	.endef
	.seh_proc	pybind11_object_init
pybind11_object_init:
.LFB10845:
	pushq	%r13
	.seh_pushreg	%r13
	pushq	%r12
	.seh_pushreg	%r12
	pushq	%rbx
	.seh_pushreg	%rbx
	subq	$64, %rsp
	.seh_stackalloc	64
	.seh_endprologue
	movq	8(%rcx), %rax
	leaq	48(%rsp), %rbx
	movb	$0, 48(%rsp)
	leaq	32(%rsp), %r13
	movq	%rbx, 32(%rsp)
	movq	$0, 40(%rsp)
	movq	24(%rax), %r12
	movq	%r12, %rcx
	call	strlen
	movq	%rax, %r8
	movabsq	$4611686018427387903, %rax
	cmpq	%rax, %r8
	jbe	.L986
	leaq	.LC6(%rip), %rcx
.LEHB14:
	call	_ZSt20__throw_length_errorPKc
	.p2align 4,,10
	.p2align 3
.L986:
	movq	%r12, %rdx
	movq	%r13, %rcx
	call	_ZNSt7__cxx1112basic_stringIcSt11char_traitsIcESaIcEE9_M_appendEPKcy
	movabsq	$4611686018427387903, %rax
	subq	40(%rsp), %rax
	cmpq	$24, %rax
	ja	.L987
	leaq	.LC6(%rip), %rcx
	call	_ZSt20__throw_length_errorPKc
	.p2align 4,,10
	.p2align 3
.L987:
	movl	$25, %r8d
	leaq	.LC7(%rip), %rdx
	movq	%r13, %rcx
	call	_ZNSt7__cxx1112basic_stringIcSt11char_traitsIcESaIcEE9_M_appendEPKcy
	movq	__imp_PyExc_TypeError(%rip), %rax
	movq	32(%rsp), %rdx
	movq	(%rax), %rcx
	call	*__imp_PyErr_SetString(%rip)
.LEHE14:
	movq	32(%rsp), %rcx
	cmpq	%rbx, %rcx
	je	.L992
	call	_ZdlPv
	jmp	.L992
.L991:
	movq	32(%rsp), %rcx
	movq	%rax, %r12
	cmpq	%rbx, %rcx
	je	.L993
	vzeroupper
	call	_ZdlPv
	jmp	.L990
.L993:
	vzeroupper
.L990:
	movq	%r12, %rcx
.LEHB15:
	call	_Unwind_Resume
.LEHE15:
	.p2align 4,,10
	.p2align 3
.L992:
	movl	$-1, %eax
	addq	$64, %rsp
	popq	%rbx
	popq	%r12
	popq	%r13
	ret
	.seh_handler	__gxx_personality_seh0, @unwind, @except
	.seh_handlerdata
.LLSDA10845:
	.byte	0xff
	.byte	0xff
	.byte	0x1
	.uleb128 .LLSDACSE10845-.LLSDACSB10845
.LLSDACSB10845:
	.uleb128 .LEHB14-.LFB10845
	.uleb128 .LEHE14-.LEHB14
	.uleb128 .L991-.LFB10845
	.uleb128 0
	.uleb128 .LEHB15-.LFB10845
	.uleb128 .LEHE15-.LEHB15
	.uleb128 0
	.uleb128 0
.LLSDACSE10845:
	.section	.text$pybind11_object_init,"x"
	.linkonce discard
	.seh_endproc
	.section .rdata,"dr"
	.align 8
.LC8:
	.ascii "basic_string::_M_construct null not valid\0"
	.text
	.align 2
	.p2align 4
	.def	_ZNSt7__cxx1112basic_stringIcSt11char_traitsIcESaIcEEC2EPKcRKS3_.isra.0;	.scl	3;	.type	32;	.endef
	.seh_proc	_ZNSt7__cxx1112basic_stringIcSt11char_traitsIcESaIcEEC2EPKcRKS3_.isra.0
_ZNSt7__cxx1112basic_stringIcSt11char_traitsIcESaIcEEC2EPKcRKS3_.isra.0:
.LFB17419:
	pushq	%r13
	.seh_pushreg	%r13
	pushq	%r12
	.seh_pushreg	%r12
	pushq	%rsi
	.seh_pushreg	%rsi
	pushq	%rbx
	.seh_pushreg	%rbx
	subq	$56, %rsp
	.seh_stackalloc	56
	.seh_endprologue
	leaq	16(%rcx), %r13
	movq	%rcx, %rbx
	movq	%rdx, %r12
	movq	%r13, (%rcx)
	testq	%rdx, %rdx
	je	.L1003
	movq	%rdx, %rcx
	call	strlen
	movq	%rax, 40(%rsp)
	movq	%rax, %rsi
	cmpq	$15, %rax
	ja	.L1004
	cmpq	$1, %rax
	jne	.L998
	movzbl	(%r12), %edx
	movb	%dl, 16(%rbx)
.L999:
	movq	%rax, 8(%rbx)
	movb	$0, 0(%r13,%rax)
	addq	$56, %rsp
	popq	%rbx
	popq	%rsi
	popq	%r12
	popq	%r13
	ret
	.p2align 4,,10
	.p2align 3
.L998:
	testq	%rax, %rax
	je	.L999
	jmp	.L997
	.p2align 4,,10
	.p2align 3
.L1004:
	leaq	40(%rsp), %rdx
	xorl	%r8d, %r8d
	movq	%rbx, %rcx
	call	_ZNSt7__cxx1112basic_stringIcSt11char_traitsIcESaIcEE9_M_createERyy
	movq	%rax, (%rbx)
	movq	%rax, %r13
	movq	40(%rsp), %rax
	movq	%rax, 16(%rbx)
.L997:
	movq	%r13, %rcx
	movq	%rsi, %r8
	movq	%r12, %rdx
	call	memcpy
	movq	40(%rsp), %rax
	movq	(%rbx), %r13
	jmp	.L999
	.p2align 4,,10
	.p2align 3
.L1003:
	leaq	.LC8(%rip), %rcx
	call	_ZSt19__throw_logic_errorPKc
	nop
	.seh_endproc
	.section	.text$_ZN8pybind1113pybind11_failEPKc,"x"
	.linkonce discard
	.globl	_ZN8pybind1113pybind11_failEPKc
	.def	_ZN8pybind1113pybind11_failEPKc;	.scl	2;	.type	32;	.endef
	.seh_proc	_ZN8pybind1113pybind11_failEPKc
_ZN8pybind1113pybind11_failEPKc:
.LFB9263:
	pushq	%r13
	.seh_pushreg	%r13
	pushq	%r12
	.seh_pushreg	%r12
	subq	$40, %rsp
	.seh_stackalloc	40
	.seh_endprologue
	movq	%rcx, %r13
	movl	$16, %ecx
	call	__cxa_allocate_exception
	movq	%r13, %rdx
	movq	%rax, %rcx
	movq	%rax, %r12
.LEHB16:
	call	_ZNSt13runtime_errorC1EPKc
.LEHE16:
	leaq	_ZNSt13runtime_errorD1Ev(%rip), %r8
	leaq	_ZTISt13runtime_error(%rip), %rdx
	movq	%r12, %rcx
.LEHB17:
	call	__cxa_throw
.L1007:
	movq	%rax, %r13
	movq	%r12, %rcx
	vzeroupper
	call	__cxa_free_exception
	movq	%r13, %rcx
	call	_Unwind_Resume
	nop
.LEHE17:
	.seh_handler	__gxx_personality_seh0, @unwind, @except
	.seh_handlerdata
.LLSDA9263:
	.byte	0xff
	.byte	0xff
	.byte	0x1
	.uleb128 .LLSDACSE9263-.LLSDACSB9263
.LLSDACSB9263:
	.uleb128 .LEHB16-.LFB9263
	.uleb128 .LEHE16-.LEHB16
	.uleb128 .L1007-.LFB9263
	.uleb128 0
	.uleb128 .LEHB17-.LFB9263
	.uleb128 .LEHE17-.LEHB17
	.uleb128 0
	.uleb128 0
.LLSDACSE9263:
	.section	.text$_ZN8pybind1113pybind11_failEPKc,"x"
	.linkonce discard
	.seh_endproc
	.section	.text$_ZN8pybind1113pybind11_failERKNSt7__cxx1112basic_stringIcSt11char_traitsIcESaIcEEE,"x"
	.linkonce discard
	.globl	_ZN8pybind1113pybind11_failERKNSt7__cxx1112basic_stringIcSt11char_traitsIcESaIcEEE
	.def	_ZN8pybind1113pybind11_failERKNSt7__cxx1112basic_stringIcSt11char_traitsIcESaIcEEE;	.scl	2;	.type	32;	.endef
	.seh_proc	_ZN8pybind1113pybind11_failERKNSt7__cxx1112basic_stringIcSt11char_traitsIcESaIcEEE
_ZN8pybind1113pybind11_failERKNSt7__cxx1112basic_stringIcSt11char_traitsIcESaIcEEE:
.LFB9264:
	pushq	%r13
	.seh_pushreg	%r13
	pushq	%r12
	.seh_pushreg	%r12
	subq	$40, %rsp
	.seh_stackalloc	40
	.seh_endprologue
	movq	%rcx, %r13
	movl	$16, %ecx
	call	__cxa_allocate_exception
	movq	%r13, %rdx
	movq	%rax, %rcx
	movq	%rax, %r12
.LEHB18:
	call	_ZNSt13runtime_errorC1ERKNSt7__cxx1112basic_stringIcSt11char_traitsIcESaIcEEE
.LEHE18:
	leaq	_ZNSt13runtime_errorD1Ev(%rip), %r8
	leaq	_ZTISt13runtime_error(%rip), %rdx
	movq	%r12, %rcx
.LEHB19:
	call	__cxa_throw
.L1010:
	movq	%rax, %r13
	movq	%r12, %rcx
	vzeroupper
	call	__cxa_free_exception
	movq	%r13, %rcx
	call	_Unwind_Resume
	nop
.LEHE19:
	.seh_handler	__gxx_personality_seh0, @unwind, @except
	.seh_handlerdata
.LLSDA9264:
	.byte	0xff
	.byte	0xff
	.byte	0x1
	.uleb128 .LLSDACSE9264-.LLSDACSB9264
.LLSDACSB9264:
	.uleb128 .LEHB18-.LFB9264
	.uleb128 .LEHE18-.LEHB18
	.uleb128 .L1010-.LFB9264
	.uleb128 0
	.uleb128 .LEHB19-.LFB9264
	.uleb128 .LEHE19-.LEHB19
	.uleb128 0
	.uleb128 0
.LLSDACSE9264:
	.section	.text$_ZN8pybind1113pybind11_failERKNSt7__cxx1112basic_stringIcSt11char_traitsIcESaIcEEE,"x"
	.linkonce discard
	.seh_endproc
	.section .rdata,"dr"
	.align 8
.LC9:
	.ascii "Unable to extract string contents! (encoding issue)\0"
	.align 8
.LC10:
	.ascii "Unable to extract string contents! (invalid type)\0"
	.section	.text$_ZNK8pybind113strcvNSt7__cxx1112basic_stringIcSt11char_traitsIcESaIcEEEEv,"x"
	.linkonce discard
	.align 2
	.p2align 4
	.globl	_ZNK8pybind113strcvNSt7__cxx1112basic_stringIcSt11char_traitsIcESaIcEEEEv
	.def	_ZNK8pybind113strcvNSt7__cxx1112basic_stringIcSt11char_traitsIcESaIcEEEEv;	.scl	2;	.type	32;	.endef
	.seh_proc	_ZNK8pybind113strcvNSt7__cxx1112basic_stringIcSt11char_traitsIcESaIcEEEEv
_ZNK8pybind113strcvNSt7__cxx1112basic_stringIcSt11char_traitsIcESaIcEEEEv:
.LFB9593:
	pushq	%r14
	.seh_pushreg	%r14
	pushq	%r13
	.seh_pushreg	%r13
	pushq	%r12
	.seh_pushreg	%r12
	pushq	%rbx
	.seh_pushreg	%rbx
	subq	$72, %rsp
	.seh_stackalloc	72
	.seh_endprologue
	movq	(%rdx), %r12
	movq	%rcx, %r13
	testq	%r12, %r12
	je	.L1012
	incq	(%r12)
.L1012:
	movq	8(%r12), %rax
	testb	$16, 171(%rax)
	je	.L1013
	movq	%r12, %rcx
.LEHB20:
	call	*__imp_PyUnicodeUCS2_AsUTF8String(%rip)
.LEHE20:
	decq	(%r12)
	movq	%rax, %rbx
	jne	.L1014
	movq	8(%r12), %rax
	movq	%r12, %rcx
	call	*48(%rax)
.L1014:
	testq	%rbx, %rbx
	jne	.L1026
	leaq	.LC9(%rip), %rcx
.LEHB21:
	call	_ZN8pybind1113pybind11_failEPKc
.LEHE21:
	.p2align 4,,10
	.p2align 3
.L1026:
	movq	%rbx, %r12
.L1013:
	leaq	40(%rsp), %rdx
	leaq	48(%rsp), %r8
	movq	%r12, %rcx
.LEHB22:
	call	*__imp_PyString_AsStringAndSize(%rip)
	testl	%eax, %eax
	je	.L1015
	leaq	.LC10(%rip), %rcx
	call	_ZN8pybind1113pybind11_failEPKc
	.p2align 4,,10
	.p2align 3
.L1015:
	movq	40(%rsp), %r14
	movq	48(%rsp), %rbx
	leaq	16(%r13), %rcx
	movq	%rcx, 0(%r13)
	movq	%r14, %rax
	addq	%rbx, %rax
	je	.L1016
	testq	%r14, %r14
	jne	.L1016
	leaq	.LC8(%rip), %rcx
	call	_ZSt19__throw_logic_errorPKc
	.p2align 4,,10
	.p2align 3
.L1016:
	movq	%rbx, 56(%rsp)
	cmpq	$15, %rbx
	jbe	.L1017
	leaq	56(%rsp), %rdx
	xorl	%r8d, %r8d
	movq	%r13, %rcx
	call	_ZNSt7__cxx1112basic_stringIcSt11char_traitsIcESaIcEE9_M_createERyy
.LEHE22:
	movq	%rax, 0(%r13)
	movq	%rax, %rcx
	movq	56(%rsp), %rax
	movq	%rax, 16(%r13)
	jmp	.L1018
	.p2align 4,,10
	.p2align 3
.L1017:
	cmpq	$1, %rbx
	jne	.L1019
	movzbl	(%r14), %eax
	movb	%al, 16(%r13)
	jmp	.L1020
	.p2align 4,,10
	.p2align 3
.L1019:
	testq	%rbx, %rbx
	je	.L1020
	.p2align 4,,10
	.p2align 3
.L1018:
	movq	%rbx, %r8
	movq	%r14, %rdx
	call	memcpy
	movq	56(%rsp), %rbx
	movq	0(%r13), %rcx
	jmp	.L1020
	.p2align 4,,10
	.p2align 3
.L1044:
	movq	8(%r12), %rax
	movq	%r12, %rcx
	call	*48(%rax)
	jmp	.L1011
.L1028:
	movq	%rax, %r13
	vzeroupper
	jmp	.L1022
.L1027:
	decq	(%r12)
	movq	%rax, %r13
	jne	.L1045
	movq	8(%r12), %rax
	movq	%r12, %rcx
	vzeroupper
	call	*48(%rax)
	jmp	.L1022
.L1045:
	vzeroupper
.L1022:
	movq	%r13, %rcx
.LEHB23:
	call	_Unwind_Resume
.LEHE23:
	.p2align 4,,10
	.p2align 3
.L1020:
	movq	%rbx, 8(%r13)
	movb	$0, (%rcx,%rbx)
	decq	(%r12)
	je	.L1044
.L1011:
	movq	%r13, %rax
	addq	$72, %rsp
	popq	%rbx
	popq	%r12
	popq	%r13
	popq	%r14
	ret
	.seh_handler	__gxx_personality_seh0, @unwind, @except
	.seh_handlerdata
.LLSDA9593:
	.byte	0xff
	.byte	0xff
	.byte	0x1
	.uleb128 .LLSDACSE9593-.LLSDACSB9593
.LLSDACSB9593:
	.uleb128 .LEHB20-.LFB9593
	.uleb128 .LEHE20-.LEHB20
	.uleb128 .L1027-.LFB9593
	.uleb128 0
	.uleb128 .LEHB21-.LFB9593
	.uleb128 .LEHE21-.LEHB21
	.uleb128 .L1028-.LFB9593
	.uleb128 0
	.uleb128 .LEHB22-.LFB9593
	.uleb128 .LEHE22-.LEHB22
	.uleb128 .L1027-.LFB9593
	.uleb128 0
	.uleb128 .LEHB23-.LFB9593
	.uleb128 .LEHE23-.LEHB23
	.uleb128 0
	.uleb128 0
.LLSDACSE9593:
	.section	.text$_ZNK8pybind113strcvNSt7__cxx1112basic_stringIcSt11char_traitsIcESaIcEEEEv,"x"
	.linkonce discard
	.seh_endproc
	.section .rdata,"dr"
.LC11:
	.ascii "basic_string::erase\0"
	.align 8
.LC12:
	.ascii "%s: __pos (which is %zu) > this->size() (which is %zu)\0"
	.section	.text$_ZN8pybind116detail13clean_type_idERNSt7__cxx1112basic_stringIcSt11char_traitsIcESaIcEEE,"x"
	.linkonce discard
	.p2align 4
	.globl	_ZN8pybind116detail13clean_type_idERNSt7__cxx1112basic_stringIcSt11char_traitsIcESaIcEEE
	.def	_ZN8pybind116detail13clean_type_idERNSt7__cxx1112basic_stringIcSt11char_traitsIcESaIcEEE;	.scl	2;	.type	32;	.endef
	.seh_proc	_ZN8pybind116detail13clean_type_idERNSt7__cxx1112basic_stringIcSt11char_traitsIcESaIcEEE
_ZN8pybind116detail13clean_type_idERNSt7__cxx1112basic_stringIcSt11char_traitsIcESaIcEEE:
.LFB10132:
	pushq	%r12
	.seh_pushreg	%r12
	pushq	%rdi
	.seh_pushreg	%rdi
	pushq	%rsi
	.seh_pushreg	%rsi
	pushq	%rbx
	.seh_pushreg	%rbx
	subq	$104, %rsp
	.seh_stackalloc	104
	.seh_endprologue
	movq	%rcx, %rsi
	movq	(%rcx), %rcx
	xorl	%edx, %edx
	leaq	60(%rsp), %r9
	xorl	%r8d, %r8d
	movl	$0, 60(%rsp)
.LEHB24:
	call	__cxa_demangle
.LEHE24:
	movl	60(%rsp), %edx
	movq	%rax, %r12
	testl	%edx, %edx
	je	.L1047
.L1049:
	leaq	80(%rsp), %rdi
	movb	$0, 90(%rsp)
	movl	$10, %r9d
	xorl	%ebx, %ebx
	movabsq	$3544724807094532464, %rax
	movq	%rdi, 64(%rsp)
	movq	%rdi, %rdx
	movq	%rax, 80(%rsp)
	movl	$14906, %eax
	movw	%ax, 88(%rsp)
	movq	$10, 72(%rsp)
	jmp	.L1048
	.p2align 4,,10
	.p2align 3
.L1047:
	movq	%rax, %rcx
	call	strlen
	movq	8(%rsi), %r8
	movq	%r12, %r9
	xorl	%edx, %edx
	movq	%rax, 32(%rsp)
	movq	%rsi, %rcx
.LEHB25:
	call	_ZNSt7__cxx1112basic_stringIcSt11char_traitsIcESaIcEE10_M_replaceEyyPKcy
.LEHE25:
	jmp	.L1049
	.p2align 4,,10
	.p2align 3
.L1053:
	movq	64(%rsp), %rdx
.L1048:
	movq	%rbx, %r8
	movq	%rsi, %rcx
	call	_ZNKSt7__cxx1112basic_stringIcSt11char_traitsIcESaIcEE4findEPKcyy
	movq	%rax, %rbx
	cmpq	$-1, %rax
	je	.L1050
	movq	8(%rsi), %r8
	movq	72(%rsp), %r9
	cmpq	%r8, %rax
	jbe	.L1051
	movq	%r8, %r9
	leaq	.LC11(%rip), %rdx
	movq	%rax, %r8
	leaq	.LC12(%rip), %rcx
.LEHB26:
	call	_ZSt24__throw_out_of_range_fmtPKcz
	.p2align 4,,10
	.p2align 3
.L1051:
	cmpq	$-1, %r9
	jne	.L1052
	movq	%rax, 8(%rsi)
	movq	(%rsi), %rax
	movb	$0, (%rax,%rbx)
	movq	72(%rsp), %r9
	jmp	.L1053
	.p2align 4,,10
	.p2align 3
.L1052:
	testq	%r9, %r9
	je	.L1053
	subq	%rax, %r8
	movq	%rax, %rdx
	movq	%rsi, %rcx
	cmpq	%r9, %r8
	cmova	%r9, %r8
	call	_ZNSt7__cxx1112basic_stringIcSt11char_traitsIcESaIcEE8_M_eraseEyy
.LEHE26:
	movq	72(%rsp), %r9
	jmp	.L1053
	.p2align 4,,10
	.p2align 3
.L1050:
	movq	64(%rsp), %rcx
	cmpq	%rdi, %rcx
	je	.L1054
	call	_ZdlPv
.L1054:
	testq	%r12, %r12
	je	.L1046
	movq	%r12, %rcx
	call	free
	jmp	.L1046
.L1061:
	movq	64(%rsp), %rcx
	movq	%rax, %rbx
	cmpq	%rdi, %rcx
	je	.L1069
	vzeroupper
	call	_ZdlPv
	jmp	.L1057
.L1069:
	vzeroupper
.L1057:
	testq	%r12, %r12
	je	.L1059
	jmp	.L1058
.L1062:
	movq	%rax, %rbx
	vzeroupper
.L1058:
	movq	%r12, %rcx
	call	free
.L1059:
	movq	%rbx, %rcx
.LEHB27:
	call	_Unwind_Resume
	nop
.LEHE27:
	.p2align 4,,10
	.p2align 3
.L1046:
	addq	$104, %rsp
	popq	%rbx
	popq	%rsi
	popq	%rdi
	popq	%r12
	ret
	.seh_handler	__gxx_personality_seh0, @unwind, @except
	.seh_handlerdata
.LLSDA10132:
	.byte	0xff
	.byte	0xff
	.byte	0x1
	.uleb128 .LLSDACSE10132-.LLSDACSB10132
.LLSDACSB10132:
	.uleb128 .LEHB24-.LFB10132
	.uleb128 .LEHE24-.LEHB24
	.uleb128 0
	.uleb128 0
	.uleb128 .LEHB25-.LFB10132
	.uleb128 .LEHE25-.LEHB25
	.uleb128 .L1062-.LFB10132
	.uleb128 0
	.uleb128 .LEHB26-.LFB10132
	.uleb128 .LEHE26-.LEHB26
	.uleb128 .L1061-.LFB10132
	.uleb128 0
	.uleb128 .LEHB27-.LFB10132
	.uleb128 .LEHE27-.LEHB27
	.uleb128 0
	.uleb128 0
.LLSDACSE10132:
	.section	.text$_ZN8pybind116detail13clean_type_idERNSt7__cxx1112basic_stringIcSt11char_traitsIcESaIcEEE,"x"
	.linkonce discard
	.seh_endproc
	.section	.text.unlikely,"x"
	.def	_ZN8pybind11L7type_idIbEENSt7__cxx1112basic_stringIcSt11char_traitsIcESaIcEEEv;	.scl	3;	.type	32;	.endef
	.seh_proc	_ZN8pybind11L7type_idIbEENSt7__cxx1112basic_stringIcSt11char_traitsIcESaIcEEEv
_ZN8pybind11L7type_idIbEENSt7__cxx1112basic_stringIcSt11char_traitsIcESaIcEEEv:
.LFB15965:
	pushq	%r13
	.seh_pushreg	%r13
	pushq	%r12
	.seh_pushreg	%r12
	subq	$40, %rsp
	.seh_stackalloc	40
	.seh_endprologue
	movq	.refptr._ZTIb(%rip), %rax
	movq	%rcx, %r12
	movq	8(%rax), %rdx
	cmpb	$42, (%rdx)
	jne	.L1071
	incq	%rdx
.L1071:
	movq	%r12, %rcx
.LEHB28:
	call	_ZNSt7__cxx1112basic_stringIcSt11char_traitsIcESaIcEEC2EPKcRKS3_.isra.0
.LEHE28:
	movq	%r12, %rcx
.LEHB29:
	call	_ZN8pybind116detail13clean_type_idERNSt7__cxx1112basic_stringIcSt11char_traitsIcESaIcEEE
.LEHE29:
	jmp	.L1075
.L1074:
	movq	(%r12), %rcx
	addq	$16, %r12
	movq	%rax, %r13
	cmpq	%r12, %rcx
	je	.L1076
	vzeroupper
	call	_ZdlPv
	jmp	.L1073
.L1076:
	vzeroupper
.L1073:
	movq	%r13, %rcx
.LEHB30:
	call	_Unwind_Resume
.LEHE30:
.L1075:
	movq	%r12, %rax
	addq	$40, %rsp
	popq	%r12
	popq	%r13
	ret
	.seh_handler	__gxx_personality_seh0, @unwind, @except
	.seh_handlerdata
.LLSDA15965:
	.byte	0xff
	.byte	0xff
	.byte	0x1
	.uleb128 .LLSDACSE15965-.LLSDACSB15965
.LLSDACSB15965:
	.uleb128 .LEHB28-.LFB15965
	.uleb128 .LEHE28-.LEHB28
	.uleb128 0
	.uleb128 0
	.uleb128 .LEHB29-.LFB15965
	.uleb128 .LEHE29-.LEHB29
	.uleb128 .L1074-.LFB15965
	.uleb128 0
	.uleb128 .LEHB30-.LFB15965
	.uleb128 .LEHE30-.LEHB30
	.uleb128 0
	.uleb128 0
.LLSDACSE15965:
	.section	.text.unlikely,"x"
	.seh_endproc
	.def	_ZN8pybind11L7type_idINSt7__cxx1112basic_stringIcSt11char_traitsIcESaIcEEEEES6_v;	.scl	3;	.type	32;	.endef
	.seh_proc	_ZN8pybind11L7type_idINSt7__cxx1112basic_stringIcSt11char_traitsIcESaIcEEEEES6_v
_ZN8pybind11L7type_idINSt7__cxx1112basic_stringIcSt11char_traitsIcESaIcEEEEES6_v:
.LFB15639:
	pushq	%r13
	.seh_pushreg	%r13
	pushq	%r12
	.seh_pushreg	%r12
	subq	$40, %rsp
	.seh_stackalloc	40
	.seh_endprologue
	movq	%rcx, %r12
	leaq	_ZTSNSt7__cxx1112basic_stringIcSt11char_traitsIcESaIcEEE(%rip), %rdx
.LEHB31:
	call	_ZNSt7__cxx1112basic_stringIcSt11char_traitsIcESaIcEEC2EPKcRKS3_.isra.0
.LEHE31:
	movq	%r12, %rcx
.LEHB32:
	call	_ZN8pybind116detail13clean_type_idERNSt7__cxx1112basic_stringIcSt11char_traitsIcESaIcEEE
.LEHE32:
	jmp	.L1081
.L1080:
	movq	(%r12), %rcx
	addq	$16, %r12
	movq	%rax, %r13
	cmpq	%r12, %rcx
	je	.L1082
	vzeroupper
	call	_ZdlPv
	jmp	.L1079
.L1082:
	vzeroupper
.L1079:
	movq	%r13, %rcx
.LEHB33:
	call	_Unwind_Resume
.LEHE33:
.L1081:
	movq	%r12, %rax
	addq	$40, %rsp
	popq	%r12
	popq	%r13
	ret
	.seh_handler	__gxx_personality_seh0, @unwind, @except
	.seh_handlerdata
.LLSDA15639:
	.byte	0xff
	.byte	0xff
	.byte	0x1
	.uleb128 .LLSDACSE15639-.LLSDACSB15639
.LLSDACSB15639:
	.uleb128 .LEHB31-.LFB15639
	.uleb128 .LEHE31-.LEHB31
	.uleb128 0
	.uleb128 0
	.uleb128 .LEHB32-.LFB15639
	.uleb128 .LEHE32-.LEHB32
	.uleb128 .L1080-.LFB15639
	.uleb128 0
	.uleb128 .LEHB33-.LFB15639
	.uleb128 .LEHE33-.LEHB33
	.uleb128 0
	.uleb128 0
.LLSDACSE15639:
	.section	.text.unlikely,"x"
	.seh_endproc
	.section	.text$_ZN8pybind116detail8accessorINS0_17accessor_policies12generic_itemEED1Ev,"x"
	.linkonce discard
	.align 2
	.p2align 4
	.globl	_ZN8pybind116detail8accessorINS0_17accessor_policies12generic_itemEED1Ev
	.def	_ZN8pybind116detail8accessorINS0_17accessor_policies12generic_itemEED1Ev;	.scl	2;	.type	32;	.endef
	.seh_proc	_ZN8pybind116detail8accessorINS0_17accessor_policies12generic_itemEED1Ev
_ZN8pybind116detail8accessorINS0_17accessor_policies12generic_itemEED1Ev:
.LFB10172:
	pushq	%rbx
	.seh_pushreg	%rbx
	subq	$32, %rsp
	.seh_stackalloc	32
	.seh_endprologue
	movq	%rcx, %rbx
	movq	24(%rcx), %rcx
	testq	%rcx, %rcx
	je	.L1085
	decq	(%rcx)
	jne	.L1085
	movq	8(%rcx), %rax
	call	*48(%rax)
.L1085:
	movq	16(%rbx), %rcx
	testq	%rcx, %rcx
	je	.L1083
	decq	(%rcx)
	jne	.L1083
	movq	8(%rcx), %rax
	call	*48(%rax)
	nop
.L1083:
	addq	$32, %rsp
	popq	%rbx
	ret
	.seh_handler	__gxx_personality_seh0, @unwind, @except
	.seh_handlerdata
.LLSDA10172:
	.byte	0xff
	.byte	0xff
	.byte	0x1
	.uleb128 .LLSDACSE10172-.LLSDACSB10172
.LLSDACSB10172:
.LLSDACSE10172:
	.section	.text$_ZN8pybind116detail8accessorINS0_17accessor_policies12generic_itemEED1Ev,"x"
	.linkonce discard
	.seh_endproc
	.section	.text$_ZN8pybind116detail8instance17deallocate_layoutEv,"x"
	.linkonce discard
	.align 2
	.p2align 4
	.globl	_ZN8pybind116detail8instance17deallocate_layoutEv
	.def	_ZN8pybind116detail8instance17deallocate_layoutEv;	.scl	2;	.type	32;	.endef
	.seh_proc	_ZN8pybind116detail8instance17deallocate_layoutEv
_ZN8pybind116detail8instance17deallocate_layoutEv:
.LFB10434:
	.seh_endprologue
	testb	$2, 48(%rcx)
	je	.L1093
	ret
	.p2align 4,,10
	.p2align 3
.L1093:
	movq	16(%rcx), %rcx
	rex.W jmp	*__imp_PyMem_Free(%rip)
	.seh_endproc
	.section	.text$_ZN8pybind116detail13function_callD1Ev,"x"
	.linkonce discard
	.align 2
	.p2align 4
	.globl	_ZN8pybind116detail13function_callD1Ev
	.def	_ZN8pybind116detail13function_callD1Ev;	.scl	2;	.type	32;	.endef
	.seh_proc	_ZN8pybind116detail13function_callD1Ev
_ZN8pybind116detail13function_callD1Ev:
.LFB10969:
	pushq	%rbx
	.seh_pushreg	%rbx
	subq	$32, %rsp
	.seh_stackalloc	32
	.seh_endprologue
	movq	%rcx, %rbx
	movq	80(%rcx), %rcx
	testq	%rcx, %rcx
	je	.L1096
	decq	(%rcx)
	jne	.L1096
	movq	8(%rcx), %rax
	call	*48(%rax)
.L1096:
	movq	72(%rbx), %rcx
	testq	%rcx, %rcx
	je	.L1099
	decq	(%rcx)
	jne	.L1099
	movq	8(%rcx), %rax
	call	*48(%rax)
.L1099:
	movq	32(%rbx), %rcx
	testq	%rcx, %rcx
	je	.L1101
	call	_ZdlPv
.L1101:
	movq	8(%rbx), %rcx
	testq	%rcx, %rcx
	je	.L1094
	addq	$32, %rsp
	popq	%rbx
	jmp	_ZdlPv
	.p2align 4,,10
	.p2align 3
.L1094:
	addq	$32, %rsp
	popq	%rbx
	ret
	.seh_handler	__gxx_personality_seh0, @unwind, @except
	.seh_handlerdata
.LLSDA10969:
	.byte	0xff
	.byte	0xff
	.byte	0x1
	.uleb128 .LLSDACSE10969-.LLSDACSB10969
.LLSDACSB10969:
.LLSDACSE10969:
	.section	.text$_ZN8pybind116detail13function_callD1Ev,"x"
	.linkonce discard
	.seh_endproc
	.text
	.align 2
	.p2align 4
	.globl	_ZN9HistogramIydE10accumulateIdEEvPT_y
	.def	_ZN9HistogramIydE10accumulateIdEEvPT_y;	.scl	2;	.type	32;	.endef
	.seh_proc	_ZN9HistogramIydE10accumulateIdEEvPT_y
_ZN9HistogramIydE10accumulateIdEEvPT_y:
.LFB12812:
	subq	$88, %rsp
	.seh_stackalloc	88
	.seh_endprologue
	xorl	%r9d, %r9d
	vmovsd	48(%rcx), %xmm0
	movl	(%rcx), %eax
	vaddsd	%xmm0, %xmm0, %xmm1
	vxorps	%xmm0, %xmm0, %xmm0
	vcvtsi2sdq	%rax, %xmm0, %xmm0
	movq	24(%rcx), %rax
	movq	%rcx, 48(%rsp)
	leaq	_ZN9HistogramIydE10accumulateIdEEvPT_y._omp_fn.0(%rip), %rcx
	movq	%r8, 40(%rsp)
	xorl	%r8d, %r8d
	movq	%rdx, 32(%rsp)
	leaq	32(%rsp), %rdx
	vdivsd	%xmm0, %xmm1, %xmm0
	movq	%rax, 64(%rsp)
	vmovsd	%xmm0, 56(%rsp)
	call	GOMP_parallel
	nop
	addq	$88, %rsp
	ret
	.seh_endproc
	.align 2
	.p2align 4
	.globl	_ZN9HistogramIyfE10accumulateIfEEvPT_y
	.def	_ZN9HistogramIyfE10accumulateIfEEvPT_y;	.scl	2;	.type	32;	.endef
	.seh_proc	_ZN9HistogramIyfE10accumulateIfEEvPT_y
_ZN9HistogramIyfE10accumulateIfEEvPT_y:
.LFB12813:
	subq	$88, %rsp
	.seh_stackalloc	88
	.seh_endprologue
	vxorps	%xmm2, %xmm2, %xmm2
	xorl	%r9d, %r9d
	movl	(%rcx), %eax
	vcvtss2sd	48(%rcx), %xmm2, %xmm0
	vaddsd	%xmm0, %xmm0, %xmm1
	movq	%rcx, 48(%rsp)
	vcvtsi2sdq	%rax, %xmm2, %xmm0
	movq	24(%rcx), %rax
	movq	%r8, 40(%rsp)
	leaq	_ZN9HistogramIyfE10accumulateIfEEvPT_y._omp_fn.0(%rip), %rcx
	movq	%rdx, 32(%rsp)
	xorl	%r8d, %r8d
	leaq	32(%rsp), %rdx
	movq	%rax, 56(%rsp)
	vdivsd	%xmm0, %xmm1, %xmm0
	vcvtsd2ss	%xmm0, %xmm0, %xmm0
	vmovss	%xmm0, 64(%rsp)
	call	GOMP_parallel
	nop
	addq	$88, %rsp
	ret
	.seh_endproc
	.align 2
	.p2align 4
	.globl	_ZN9HistogramIyhE10accumulateIhEEvPT_y
	.def	_ZN9HistogramIyhE10accumulateIhEEvPT_y;	.scl	2;	.type	32;	.endef
	.seh_proc	_ZN9HistogramIyhE10accumulateIhEEvPT_y
_ZN9HistogramIyhE10accumulateIhEEvPT_y:
.LFB12814:
	subq	$72, %rsp
	.seh_stackalloc	72
	.seh_endprologue
	xorl	%r9d, %r9d
	movq	24(%rcx), %rax
	leaq	_ZN9HistogramIyhE10accumulateIhEEvPT_y._omp_fn.0(%rip), %rcx
	movq	%r8, 40(%rsp)
	xorl	%r8d, %r8d
	movq	%rdx, 32(%rsp)
	leaq	32(%rsp), %rdx
	movq	%rax, 48(%rsp)
	call	GOMP_parallel
	nop
	addq	$72, %rsp
	ret
	.seh_endproc
	.align 2
	.p2align 4
	.globl	_ZN9HistogramIytE10accumulateItEEvPT_y
	.def	_ZN9HistogramIytE10accumulateItEEvPT_y;	.scl	2;	.type	32;	.endef
	.seh_proc	_ZN9HistogramIytE10accumulateItEEvPT_y
_ZN9HistogramIytE10accumulateItEEvPT_y:
.LFB12815:
	subq	$72, %rsp
	.seh_stackalloc	72
	.seh_endprologue
	movq	24(%rcx), %rax
	movq	%rdx, %r9
	movl	52(%rcx), %edx
	movq	%rax, 48(%rsp)
	movl	$16, %eax
	movq	%r8, 40(%rsp)
	leaq	_ZN9HistogramIytE10accumulateItEEvPT_y._omp_fn.0(%rip), %rcx
	xorl	%r8d, %r8d
	subl	%edx, %eax
	movl	%edx, 56(%rsp)
	leaq	32(%rsp), %rdx
	movq	%r9, 32(%rsp)
	xorl	%r9d, %r9d
	movl	%eax, 60(%rsp)
	call	GOMP_parallel
	nop
	addq	$72, %rsp
	ret
	.seh_endproc
	.align 2
	.p2align 4
	.globl	_ZN9HistogramIyaE10accumulateIaEEvPT_y
	.def	_ZN9HistogramIyaE10accumulateIaEEvPT_y;	.scl	2;	.type	32;	.endef
	.seh_proc	_ZN9HistogramIyaE10accumulateIaEEvPT_y
_ZN9HistogramIyaE10accumulateIaEEvPT_y:
.LFB12816:
	subq	$72, %rsp
	.seh_stackalloc	72
	.seh_endprologue
	xorl	%r9d, %r9d
	movq	24(%rcx), %rax
	leaq	_ZN9HistogramIyaE10accumulateIaEEvPT_y._omp_fn.0(%rip), %rcx
	movq	%rdx, 48(%rsp)
	leaq	32(%rsp), %rdx
	movq	%r8, 32(%rsp)
	xorl	%r8d, %r8d
	movq	%rax, 40(%rsp)
	call	GOMP_parallel
	nop
	addq	$72, %rsp
	ret
	.seh_endproc
	.align 2
	.p2align 4
	.globl	_ZN9HistogramIysE10accumulateIsEEvPT_y
	.def	_ZN9HistogramIysE10accumulateIsEEvPT_y;	.scl	2;	.type	32;	.endef
	.seh_proc	_ZN9HistogramIysE10accumulateIsEEvPT_y
_ZN9HistogramIysE10accumulateIsEEvPT_y:
.LFB12817:
	subq	$72, %rsp
	.seh_stackalloc	72
	.seh_endprologue
	movq	24(%rcx), %rax
	movq	%rdx, %r9
	movl	52(%rcx), %edx
	movq	%rax, 40(%rsp)
	movl	$16, %eax
	movq	%r9, 48(%rsp)
	leaq	_ZN9HistogramIysE10accumulateIsEEvPT_y._omp_fn.0(%rip), %rcx
	xorl	%r9d, %r9d
	subl	%edx, %eax
	movl	%edx, 56(%rsp)
	leaq	32(%rsp), %rdx
	movq	%r8, 32(%rsp)
	xorl	%r8d, %r8d
	movl	%eax, 60(%rsp)
	call	GOMP_parallel
	nop
	addq	$72, %rsp
	ret
	.seh_endproc
	.align 2
	.p2align 4
	.globl	_ZN9HistogramIjdE10accumulateIdEEvPT_y
	.def	_ZN9HistogramIjdE10accumulateIdEEvPT_y;	.scl	2;	.type	32;	.endef
	.seh_proc	_ZN9HistogramIjdE10accumulateIdEEvPT_y
_ZN9HistogramIjdE10accumulateIdEEvPT_y:
.LFB12818:
	subq	$88, %rsp
	.seh_stackalloc	88
	.seh_endprologue
	xorl	%r9d, %r9d
	vmovsd	48(%rcx), %xmm0
	movl	(%rcx), %eax
	vaddsd	%xmm0, %xmm0, %xmm1
	vxorps	%xmm0, %xmm0, %xmm0
	vcvtsi2sdq	%rax, %xmm0, %xmm0
	movq	24(%rcx), %rax
	movq	%rcx, 48(%rsp)
	leaq	_ZN9HistogramIjdE10accumulateIdEEvPT_y._omp_fn.0(%rip), %rcx
	movq	%r8, 40(%rsp)
	xorl	%r8d, %r8d
	movq	%rdx, 32(%rsp)
	leaq	32(%rsp), %rdx
	vdivsd	%xmm0, %xmm1, %xmm0
	movq	%rax, 64(%rsp)
	vmovsd	%xmm0, 56(%rsp)
	call	GOMP_parallel
	nop
	addq	$88, %rsp
	ret
	.seh_endproc
	.align 2
	.p2align 4
	.globl	_ZN9HistogramIjfE10accumulateIfEEvPT_y
	.def	_ZN9HistogramIjfE10accumulateIfEEvPT_y;	.scl	2;	.type	32;	.endef
	.seh_proc	_ZN9HistogramIjfE10accumulateIfEEvPT_y
_ZN9HistogramIjfE10accumulateIfEEvPT_y:
.LFB12819:
	subq	$88, %rsp
	.seh_stackalloc	88
	.seh_endprologue
	vxorps	%xmm2, %xmm2, %xmm2
	xorl	%r9d, %r9d
	movl	(%rcx), %eax
	vcvtss2sd	48(%rcx), %xmm2, %xmm0
	vaddsd	%xmm0, %xmm0, %xmm1
	movq	%rcx, 48(%rsp)
	vcvtsi2sdq	%rax, %xmm2, %xmm0
	movq	24(%rcx), %rax
	movq	%r8, 40(%rsp)
	leaq	_ZN9HistogramIjfE10accumulateIfEEvPT_y._omp_fn.0(%rip), %rcx
	movq	%rdx, 32(%rsp)
	xorl	%r8d, %r8d
	leaq	32(%rsp), %rdx
	movq	%rax, 56(%rsp)
	vdivsd	%xmm0, %xmm1, %xmm0
	vcvtsd2ss	%xmm0, %xmm0, %xmm0
	vmovss	%xmm0, 64(%rsp)
	call	GOMP_parallel
	nop
	addq	$88, %rsp
	ret
	.seh_endproc
	.align 2
	.p2align 4
	.globl	_ZN9HistogramIjhE10accumulateIhEEvPT_y
	.def	_ZN9HistogramIjhE10accumulateIhEEvPT_y;	.scl	2;	.type	32;	.endef
	.seh_proc	_ZN9HistogramIjhE10accumulateIhEEvPT_y
_ZN9HistogramIjhE10accumulateIhEEvPT_y:
.LFB12820:
	subq	$72, %rsp
	.seh_stackalloc	72
	.seh_endprologue
	xorl	%r9d, %r9d
	movq	24(%rcx), %rax
	leaq	_ZN9HistogramIjhE10accumulateIhEEvPT_y._omp_fn.0(%rip), %rcx
	movq	%r8, 40(%rsp)
	xorl	%r8d, %r8d
	movq	%rdx, 32(%rsp)
	leaq	32(%rsp), %rdx
	movq	%rax, 48(%rsp)
	call	GOMP_parallel
	nop
	addq	$72, %rsp
	ret
	.seh_endproc
	.align 2
	.p2align 4
	.globl	_ZN9HistogramIjtE10accumulateItEEvPT_y
	.def	_ZN9HistogramIjtE10accumulateItEEvPT_y;	.scl	2;	.type	32;	.endef
	.seh_proc	_ZN9HistogramIjtE10accumulateItEEvPT_y
_ZN9HistogramIjtE10accumulateItEEvPT_y:
.LFB12821:
	subq	$72, %rsp
	.seh_stackalloc	72
	.seh_endprologue
	movq	24(%rcx), %rax
	movq	%rdx, %r9
	movl	52(%rcx), %edx
	movq	%rax, 48(%rsp)
	movl	$16, %eax
	movq	%r8, 40(%rsp)
	leaq	_ZN9HistogramIjtE10accumulateItEEvPT_y._omp_fn.0(%rip), %rcx
	xorl	%r8d, %r8d
	subl	%edx, %eax
	movl	%edx, 56(%rsp)
	leaq	32(%rsp), %rdx
	movq	%r9, 32(%rsp)
	xorl	%r9d, %r9d
	movl	%eax, 60(%rsp)
	call	GOMP_parallel
	nop
	addq	$72, %rsp
	ret
	.seh_endproc
	.align 2
	.p2align 4
	.globl	_ZN9HistogramIjaE10accumulateIaEEvPT_y
	.def	_ZN9HistogramIjaE10accumulateIaEEvPT_y;	.scl	2;	.type	32;	.endef
	.seh_proc	_ZN9HistogramIjaE10accumulateIaEEvPT_y
_ZN9HistogramIjaE10accumulateIaEEvPT_y:
.LFB12822:
	subq	$72, %rsp
	.seh_stackalloc	72
	.seh_endprologue
	xorl	%r9d, %r9d
	movq	24(%rcx), %rax
	leaq	_ZN9HistogramIjaE10accumulateIaEEvPT_y._omp_fn.0(%rip), %rcx
	movq	%rdx, 48(%rsp)
	leaq	32(%rsp), %rdx
	movq	%r8, 32(%rsp)
	xorl	%r8d, %r8d
	movq	%rax, 40(%rsp)
	call	GOMP_parallel
	nop
	addq	$72, %rsp
	ret
	.seh_endproc
	.align 2
	.p2align 4
	.globl	_ZN9HistogramIjsE10accumulateIsEEvPT_y
	.def	_ZN9HistogramIjsE10accumulateIsEEvPT_y;	.scl	2;	.type	32;	.endef
	.seh_proc	_ZN9HistogramIjsE10accumulateIsEEvPT_y
_ZN9HistogramIjsE10accumulateIsEEvPT_y:
.LFB12823:
	subq	$72, %rsp
	.seh_stackalloc	72
	.seh_endprologue
	movq	24(%rcx), %rax
	movq	%rdx, %r9
	movl	52(%rcx), %edx
	movq	%rax, 40(%rsp)
	movl	$16, %eax
	movq	%r9, 48(%rsp)
	leaq	_ZN9HistogramIjsE10accumulateIsEEvPT_y._omp_fn.0(%rip), %rcx
	xorl	%r9d, %r9d
	subl	%edx, %eax
	movl	%edx, 56(%rsp)
	leaq	32(%rsp), %rdx
	movq	%r8, 32(%rsp)
	xorl	%r8d, %r8d
	movl	%eax, 60(%rsp)
	call	GOMP_parallel
	nop
	addq	$72, %rsp
	ret
	.seh_endproc
	.align 2
	.p2align 4
	.globl	_ZN9HistogramItdE10accumulateIdEEvPT_y
	.def	_ZN9HistogramItdE10accumulateIdEEvPT_y;	.scl	2;	.type	32;	.endef
	.seh_proc	_ZN9HistogramItdE10accumulateIdEEvPT_y
_ZN9HistogramItdE10accumulateIdEEvPT_y:
.LFB12824:
	subq	$88, %rsp
	.seh_stackalloc	88
	.seh_endprologue
	xorl	%r9d, %r9d
	vmovsd	48(%rcx), %xmm0
	movl	(%rcx), %eax
	vaddsd	%xmm0, %xmm0, %xmm1
	vxorps	%xmm0, %xmm0, %xmm0
	vcvtsi2sdq	%rax, %xmm0, %xmm0
	movq	24(%rcx), %rax
	movq	%rcx, 48(%rsp)
	leaq	_ZN9HistogramItdE10accumulateIdEEvPT_y._omp_fn.0(%rip), %rcx
	movq	%r8, 40(%rsp)
	xorl	%r8d, %r8d
	movq	%rdx, 32(%rsp)
	leaq	32(%rsp), %rdx
	vdivsd	%xmm0, %xmm1, %xmm0
	movq	%rax, 64(%rsp)
	vmovsd	%xmm0, 56(%rsp)
	call	GOMP_parallel
	nop
	addq	$88, %rsp
	ret
	.seh_endproc
	.align 2
	.p2align 4
	.globl	_ZN9HistogramItfE10accumulateIfEEvPT_y
	.def	_ZN9HistogramItfE10accumulateIfEEvPT_y;	.scl	2;	.type	32;	.endef
	.seh_proc	_ZN9HistogramItfE10accumulateIfEEvPT_y
_ZN9HistogramItfE10accumulateIfEEvPT_y:
.LFB12825:
	subq	$88, %rsp
	.seh_stackalloc	88
	.seh_endprologue
	vxorps	%xmm2, %xmm2, %xmm2
	xorl	%r9d, %r9d
	movl	(%rcx), %eax
	vcvtss2sd	48(%rcx), %xmm2, %xmm0
	vaddsd	%xmm0, %xmm0, %xmm1
	movq	%rcx, 48(%rsp)
	vcvtsi2sdq	%rax, %xmm2, %xmm0
	movq	24(%rcx), %rax
	movq	%r8, 40(%rsp)
	leaq	_ZN9HistogramItfE10accumulateIfEEvPT_y._omp_fn.0(%rip), %rcx
	movq	%rdx, 32(%rsp)
	xorl	%r8d, %r8d
	leaq	32(%rsp), %rdx
	movq	%rax, 56(%rsp)
	vdivsd	%xmm0, %xmm1, %xmm0
	vcvtsd2ss	%xmm0, %xmm0, %xmm0
	vmovss	%xmm0, 64(%rsp)
	call	GOMP_parallel
	nop
	addq	$88, %rsp
	ret
	.seh_endproc
	.align 2
	.p2align 4
	.globl	_ZN9HistogramIthE10accumulateIhEEvPT_y
	.def	_ZN9HistogramIthE10accumulateIhEEvPT_y;	.scl	2;	.type	32;	.endef
	.seh_proc	_ZN9HistogramIthE10accumulateIhEEvPT_y
_ZN9HistogramIthE10accumulateIhEEvPT_y:
.LFB12826:
	subq	$72, %rsp
	.seh_stackalloc	72
	.seh_endprologue
	xorl	%r9d, %r9d
	movq	24(%rcx), %rax
	leaq	_ZN9HistogramIthE10accumulateIhEEvPT_y._omp_fn.0(%rip), %rcx
	movq	%r8, 40(%rsp)
	xorl	%r8d, %r8d
	movq	%rdx, 32(%rsp)
	leaq	32(%rsp), %rdx
	movq	%rax, 48(%rsp)
	call	GOMP_parallel
	nop
	addq	$72, %rsp
	ret
	.seh_endproc
	.align 2
	.p2align 4
	.globl	_ZN9HistogramIttE10accumulateItEEvPT_y
	.def	_ZN9HistogramIttE10accumulateItEEvPT_y;	.scl	2;	.type	32;	.endef
	.seh_proc	_ZN9HistogramIttE10accumulateItEEvPT_y
_ZN9HistogramIttE10accumulateItEEvPT_y:
.LFB12827:
	subq	$72, %rsp
	.seh_stackalloc	72
	.seh_endprologue
	movq	24(%rcx), %rax
	movq	%rdx, %r9
	movl	52(%rcx), %edx
	movq	%rax, 48(%rsp)
	movl	$16, %eax
	movq	%r8, 40(%rsp)
	leaq	_ZN9HistogramIttE10accumulateItEEvPT_y._omp_fn.0(%rip), %rcx
	xorl	%r8d, %r8d
	subl	%edx, %eax
	movl	%edx, 56(%rsp)
	leaq	32(%rsp), %rdx
	movq	%r9, 32(%rsp)
	xorl	%r9d, %r9d
	movl	%eax, 60(%rsp)
	call	GOMP_parallel
	nop
	addq	$72, %rsp
	ret
	.seh_endproc
	.align 2
	.p2align 4
	.globl	_ZN9HistogramItaE10accumulateIaEEvPT_y
	.def	_ZN9HistogramItaE10accumulateIaEEvPT_y;	.scl	2;	.type	32;	.endef
	.seh_proc	_ZN9HistogramItaE10accumulateIaEEvPT_y
_ZN9HistogramItaE10accumulateIaEEvPT_y:
.LFB12828:
	subq	$72, %rsp
	.seh_stackalloc	72
	.seh_endprologue
	xorl	%r9d, %r9d
	movq	24(%rcx), %rax
	leaq	_ZN9HistogramItaE10accumulateIaEEvPT_y._omp_fn.0(%rip), %rcx
	movq	%rdx, 48(%rsp)
	leaq	32(%rsp), %rdx
	movq	%r8, 32(%rsp)
	xorl	%r8d, %r8d
	movq	%rax, 40(%rsp)
	call	GOMP_parallel
	nop
	addq	$72, %rsp
	ret
	.seh_endproc
	.align 2
	.p2align 4
	.globl	_ZN9HistogramItsE10accumulateIsEEvPT_y
	.def	_ZN9HistogramItsE10accumulateIsEEvPT_y;	.scl	2;	.type	32;	.endef
	.seh_proc	_ZN9HistogramItsE10accumulateIsEEvPT_y
_ZN9HistogramItsE10accumulateIsEEvPT_y:
.LFB12829:
	subq	$72, %rsp
	.seh_stackalloc	72
	.seh_endprologue
	movq	24(%rcx), %rax
	movq	%rdx, %r9
	movl	52(%rcx), %edx
	movq	%rax, 40(%rsp)
	movl	$16, %eax
	movq	%r9, 48(%rsp)
	leaq	_ZN9HistogramItsE10accumulateIsEEvPT_y._omp_fn.0(%rip), %rcx
	xorl	%r9d, %r9d
	subl	%edx, %eax
	movl	%edx, 56(%rsp)
	leaq	32(%rsp), %rdx
	movq	%r8, 32(%rsp)
	xorl	%r8d, %r8d
	movl	%eax, 60(%rsp)
	call	GOMP_parallel
	nop
	addq	$72, %rsp
	ret
	.seh_endproc
	.align 2
	.p2align 4
	.globl	_ZN9HistogramIhdE10accumulateIdEEvPT_y
	.def	_ZN9HistogramIhdE10accumulateIdEEvPT_y;	.scl	2;	.type	32;	.endef
	.seh_proc	_ZN9HistogramIhdE10accumulateIdEEvPT_y
_ZN9HistogramIhdE10accumulateIdEEvPT_y:
.LFB12830:
	subq	$88, %rsp
	.seh_stackalloc	88
	.seh_endprologue
	xorl	%r9d, %r9d
	vmovsd	48(%rcx), %xmm0
	movl	(%rcx), %eax
	vaddsd	%xmm0, %xmm0, %xmm1
	vxorps	%xmm0, %xmm0, %xmm0
	vcvtsi2sdq	%rax, %xmm0, %xmm0
	movq	24(%rcx), %rax
	movq	%rcx, 48(%rsp)
	leaq	_ZN9HistogramIhdE10accumulateIdEEvPT_y._omp_fn.0(%rip), %rcx
	movq	%r8, 40(%rsp)
	xorl	%r8d, %r8d
	movq	%rdx, 32(%rsp)
	leaq	32(%rsp), %rdx
	vdivsd	%xmm0, %xmm1, %xmm0
	movq	%rax, 64(%rsp)
	vmovsd	%xmm0, 56(%rsp)
	call	GOMP_parallel
	nop
	addq	$88, %rsp
	ret
	.seh_endproc
	.align 2
	.p2align 4
	.globl	_ZN9HistogramIhfE10accumulateIfEEvPT_y
	.def	_ZN9HistogramIhfE10accumulateIfEEvPT_y;	.scl	2;	.type	32;	.endef
	.seh_proc	_ZN9HistogramIhfE10accumulateIfEEvPT_y
_ZN9HistogramIhfE10accumulateIfEEvPT_y:
.LFB12831:
	subq	$88, %rsp
	.seh_stackalloc	88
	.seh_endprologue
	vxorps	%xmm2, %xmm2, %xmm2
	xorl	%r9d, %r9d
	movl	(%rcx), %eax
	vcvtss2sd	48(%rcx), %xmm2, %xmm0
	vaddsd	%xmm0, %xmm0, %xmm1
	movq	%rcx, 48(%rsp)
	vcvtsi2sdq	%rax, %xmm2, %xmm0
	movq	24(%rcx), %rax
	movq	%r8, 40(%rsp)
	leaq	_ZN9HistogramIhfE10accumulateIfEEvPT_y._omp_fn.0(%rip), %rcx
	movq	%rdx, 32(%rsp)
	xorl	%r8d, %r8d
	leaq	32(%rsp), %rdx
	movq	%rax, 56(%rsp)
	vdivsd	%xmm0, %xmm1, %xmm0
	vcvtsd2ss	%xmm0, %xmm0, %xmm0
	vmovss	%xmm0, 64(%rsp)
	call	GOMP_parallel
	nop
	addq	$88, %rsp
	ret
	.seh_endproc
	.align 2
	.p2align 4
	.globl	_ZN9HistogramIhhE10accumulateIhEEvPT_y
	.def	_ZN9HistogramIhhE10accumulateIhEEvPT_y;	.scl	2;	.type	32;	.endef
	.seh_proc	_ZN9HistogramIhhE10accumulateIhEEvPT_y
_ZN9HistogramIhhE10accumulateIhEEvPT_y:
.LFB12832:
	subq	$72, %rsp
	.seh_stackalloc	72
	.seh_endprologue
	xorl	%r9d, %r9d
	movq	24(%rcx), %rax
	leaq	_ZN9HistogramIhhE10accumulateIhEEvPT_y._omp_fn.0(%rip), %rcx
	movq	%r8, 40(%rsp)
	xorl	%r8d, %r8d
	movq	%rdx, 32(%rsp)
	leaq	32(%rsp), %rdx
	movq	%rax, 48(%rsp)
	call	GOMP_parallel
	nop
	addq	$72, %rsp
	ret
	.seh_endproc
	.align 2
	.p2align 4
	.globl	_ZN9HistogramIhtE10accumulateItEEvPT_y
	.def	_ZN9HistogramIhtE10accumulateItEEvPT_y;	.scl	2;	.type	32;	.endef
	.seh_proc	_ZN9HistogramIhtE10accumulateItEEvPT_y
_ZN9HistogramIhtE10accumulateItEEvPT_y:
.LFB12833:
	subq	$72, %rsp
	.seh_stackalloc	72
	.seh_endprologue
	movq	24(%rcx), %rax
	movq	%rdx, %r9
	movl	52(%rcx), %edx
	movq	%rax, 48(%rsp)
	movl	$16, %eax
	movq	%r8, 40(%rsp)
	leaq	_ZN9HistogramIhtE10accumulateItEEvPT_y._omp_fn.0(%rip), %rcx
	xorl	%r8d, %r8d
	subl	%edx, %eax
	movl	%edx, 56(%rsp)
	leaq	32(%rsp), %rdx
	movq	%r9, 32(%rsp)
	xorl	%r9d, %r9d
	movl	%eax, 60(%rsp)
	call	GOMP_parallel
	nop
	addq	$72, %rsp
	ret
	.seh_endproc
	.align 2
	.p2align 4
	.globl	_ZN9HistogramIhaE10accumulateIaEEvPT_y
	.def	_ZN9HistogramIhaE10accumulateIaEEvPT_y;	.scl	2;	.type	32;	.endef
	.seh_proc	_ZN9HistogramIhaE10accumulateIaEEvPT_y
_ZN9HistogramIhaE10accumulateIaEEvPT_y:
.LFB12834:
	subq	$72, %rsp
	.seh_stackalloc	72
	.seh_endprologue
	xorl	%r9d, %r9d
	movq	24(%rcx), %rax
	leaq	_ZN9HistogramIhaE10accumulateIaEEvPT_y._omp_fn.0(%rip), %rcx
	movq	%rdx, 48(%rsp)
	leaq	32(%rsp), %rdx
	movq	%r8, 32(%rsp)
	xorl	%r8d, %r8d
	movq	%rax, 40(%rsp)
	call	GOMP_parallel
	nop
	addq	$72, %rsp
	ret
	.seh_endproc
	.align 2
	.p2align 4
	.globl	_ZN9HistogramIhsE10accumulateIsEEvPT_y
	.def	_ZN9HistogramIhsE10accumulateIsEEvPT_y;	.scl	2;	.type	32;	.endef
	.seh_proc	_ZN9HistogramIhsE10accumulateIsEEvPT_y
_ZN9HistogramIhsE10accumulateIsEEvPT_y:
.LFB12835:
	subq	$72, %rsp
	.seh_stackalloc	72
	.seh_endprologue
	movq	24(%rcx), %rax
	movq	%rdx, %r9
	movl	52(%rcx), %edx
	movq	%rax, 40(%rsp)
	movl	$16, %eax
	movq	%r9, 48(%rsp)
	leaq	_ZN9HistogramIhsE10accumulateIsEEvPT_y._omp_fn.0(%rip), %rcx
	xorl	%r9d, %r9d
	subl	%edx, %eax
	movl	%edx, 56(%rsp)
	leaq	32(%rsp), %rdx
	movq	%r8, 32(%rsp)
	xorl	%r8d, %r8d
	movl	%eax, 60(%rsp)
	call	GOMP_parallel
	nop
	addq	$72, %rsp
	ret
	.seh_endproc
	.align 2
	.p2align 4
	.globl	_ZN11Histogram2DIydE10accumulateIdEEvPT_S3_y
	.def	_ZN11Histogram2DIydE10accumulateIdEEvPT_S3_y;	.scl	2;	.type	32;	.endef
	.seh_proc	_ZN11Histogram2DIydE10accumulateIdEEvPT_S3_y
_ZN11Histogram2DIydE10accumulateIdEEvPT_S3_y:
.LFB12857:
	pushq	%r12
	.seh_pushreg	%r12
	pushq	%rbx
	.seh_pushreg	%rbx
	subq	$88, %rsp
	.seh_stackalloc	88
	.seh_endprologue
	vmovsd	64(%rcx), %xmm0
	movl	(%rcx), %eax
	vaddsd	%xmm0, %xmm0, %xmm1
	vxorps	%xmm0, %xmm0, %xmm0
	vcvtsi2sdq	%rax, %xmm0, %xmm0
	vmovq	%rdx, %xmm2
	leaq	32(%rsp), %r12
	movq	%rcx, 56(%rsp)
	movq	%rcx, %rbx
	movq	%r9, 48(%rsp)
	movq	%r12, %rdx
	xorl	%r9d, %r9d
	leaq	_ZN11Histogram2DIydE10accumulateIdEEvPT_S3_y._omp_fn.0(%rip), %rcx
	vdivsd	%xmm0, %xmm1, %xmm0
	vmovsd	%xmm0, 64(%rsp)
	vpinsrq	$1, %r8, %xmm2, %xmm0
	xorl	%r8d, %r8d
	vmovaps	%xmm0, 32(%rsp)
	call	GOMP_parallel
	xorl	%r9d, %r9d
	xorl	%r8d, %r8d
	movq	%r12, %rdx
	leaq	_ZN11Histogram2DIydE19reduction_and_resetEv._omp_fn.0(%rip), %rcx
	movq	%rbx, 32(%rsp)
	call	GOMP_parallel
	nop
	addq	$88, %rsp
	popq	%rbx
	popq	%r12
	ret
	.seh_endproc
	.align 2
	.p2align 4
	.globl	_ZN11Histogram2DIyfE10accumulateIfEEvPT_S3_y
	.def	_ZN11Histogram2DIyfE10accumulateIfEEvPT_S3_y;	.scl	2;	.type	32;	.endef
	.seh_proc	_ZN11Histogram2DIyfE10accumulateIfEEvPT_S3_y
_ZN11Histogram2DIyfE10accumulateIfEEvPT_S3_y:
.LFB12858:
	pushq	%r12
	.seh_pushreg	%r12
	pushq	%rbx
	.seh_pushreg	%rbx
	subq	$88, %rsp
	.seh_stackalloc	88
	.seh_endprologue
	vxorps	%xmm2, %xmm2, %xmm2
	movl	(%rcx), %eax
	vcvtss2sd	64(%rcx), %xmm2, %xmm0
	vaddsd	%xmm0, %xmm0, %xmm1
	vmovq	%rdx, %xmm3
	leaq	32(%rsp), %r12
	vcvtsi2sdq	%rax, %xmm2, %xmm0
	movq	%rcx, 56(%rsp)
	movq	%rcx, %rbx
	movq	%r12, %rdx
	movq	%r9, 48(%rsp)
	leaq	_ZN11Histogram2DIyfE10accumulateIfEEvPT_S3_y._omp_fn.0(%rip), %rcx
	xorl	%r9d, %r9d
	vdivsd	%xmm0, %xmm1, %xmm0
	vcvtsd2ss	%xmm0, %xmm0, %xmm0
	vmovss	%xmm0, 64(%rsp)
	vpinsrq	$1, %r8, %xmm3, %xmm0
	xorl	%r8d, %r8d
	vmovaps	%xmm0, 32(%rsp)
	call	GOMP_parallel
	xorl	%r9d, %r9d
	xorl	%r8d, %r8d
	movq	%r12, %rdx
	leaq	_ZN11Histogram2DIyfE19reduction_and_resetEv._omp_fn.0(%rip), %rcx
	movq	%rbx, 32(%rsp)
	call	GOMP_parallel
	nop
	addq	$88, %rsp
	popq	%rbx
	popq	%r12
	ret
	.seh_endproc
	.align 2
	.p2align 4
	.globl	_ZN11Histogram2DIyhE10accumulateIhEEvPT_S3_y
	.def	_ZN11Histogram2DIyhE10accumulateIhEEvPT_S3_y;	.scl	2;	.type	32;	.endef
	.seh_proc	_ZN11Histogram2DIyhE10accumulateIhEEvPT_S3_y
_ZN11Histogram2DIyhE10accumulateIhEEvPT_S3_y:
.LFB12859:
	pushq	%r12
	.seh_pushreg	%r12
	pushq	%rbx
	.seh_pushreg	%rbx
	subq	$72, %rsp
	.seh_stackalloc	72
	.seh_endprologue
	vmovq	%rdx, %xmm1
	leaq	32(%rsp), %r12
	movq	%rcx, 56(%rsp)
	movq	%rcx, %rbx
	vpinsrq	$1, %r8, %xmm1, %xmm0
	movq	%r9, 48(%rsp)
	xorl	%r8d, %r8d
	xorl	%r9d, %r9d
	movq	%r12, %rdx
	leaq	_ZN11Histogram2DIyhE10accumulateIhEEvPT_S3_y._omp_fn.0(%rip), %rcx
	vmovaps	%xmm0, 32(%rsp)
	call	GOMP_parallel
	xorl	%r9d, %r9d
	xorl	%r8d, %r8d
	movq	%r12, %rdx
	leaq	_ZN11Histogram2DIyhE19reduction_and_resetEv._omp_fn.0(%rip), %rcx
	movq	%rbx, 32(%rsp)
	call	GOMP_parallel
	nop
	addq	$72, %rsp
	popq	%rbx
	popq	%r12
	ret
	.seh_endproc
	.align 2
	.p2align 4
	.globl	_ZN11Histogram2DIytE10accumulateItEEvPT_S3_y
	.def	_ZN11Histogram2DIytE10accumulateItEEvPT_S3_y;	.scl	2;	.type	32;	.endef
	.seh_proc	_ZN11Histogram2DIytE10accumulateItEEvPT_S3_y
_ZN11Histogram2DIytE10accumulateItEEvPT_S3_y:
.LFB12860:
	pushq	%r12
	.seh_pushreg	%r12
	pushq	%rbx
	.seh_pushreg	%rbx
	subq	$88, %rsp
	.seh_stackalloc	88
	.seh_endprologue
	movl	$16, %eax
	movq	%rcx, %rbx
	movl	68(%rcx), %ecx
	vmovq	%rdx, %xmm1
	leaq	32(%rsp), %r12
	vpinsrq	$1, %r8, %xmm1, %xmm0
	movq	%r9, 48(%rsp)
	xorl	%r8d, %r8d
	xorl	%r9d, %r9d
	subl	%ecx, %eax
	movl	%ecx, 64(%rsp)
	movq	%r12, %rdx
	leaq	_ZN11Histogram2DIytE10accumulateItEEvPT_S3_y._omp_fn.0(%rip), %rcx
	movl	%eax, 68(%rsp)
	vmovaps	%xmm0, 32(%rsp)
	movq	%rbx, 56(%rsp)
	call	GOMP_parallel
	xorl	%r9d, %r9d
	xorl	%r8d, %r8d
	movq	%r12, %rdx
	leaq	_ZN11Histogram2DIytE19reduction_and_resetEv._omp_fn.0(%rip), %rcx
	movq	%rbx, 32(%rsp)
	call	GOMP_parallel
	nop
	addq	$88, %rsp
	popq	%rbx
	popq	%r12
	ret
	.seh_endproc
	.align 2
	.p2align 4
	.globl	_ZN11Histogram2DIyaE10accumulateIaEEvPT_S3_y
	.def	_ZN11Histogram2DIyaE10accumulateIaEEvPT_S3_y;	.scl	2;	.type	32;	.endef
	.seh_proc	_ZN11Histogram2DIyaE10accumulateIaEEvPT_S3_y
_ZN11Histogram2DIyaE10accumulateIaEEvPT_S3_y:
.LFB12861:
	pushq	%r12
	.seh_pushreg	%r12
	pushq	%rbx
	.seh_pushreg	%rbx
	subq	$72, %rsp
	.seh_stackalloc	72
	.seh_endprologue
	vmovq	%rcx, %xmm1
	leaq	32(%rsp), %r12
	movq	%r8, 56(%rsp)
	movq	%rcx, %rbx
	vpinsrq	$1, %rdx, %xmm1, %xmm0
	movq	%r9, 32(%rsp)
	xorl	%r8d, %r8d
	xorl	%r9d, %r9d
	movq	%r12, %rdx
	leaq	_ZN11Histogram2DIyaE10accumulateIaEEvPT_S3_y._omp_fn.0(%rip), %rcx
	vmovups	%xmm0, 40(%rsp)
	call	GOMP_parallel
	xorl	%r9d, %r9d
	xorl	%r8d, %r8d
	movq	%r12, %rdx
	leaq	_ZN11Histogram2DIyaE19reduction_and_resetEv._omp_fn.0(%rip), %rcx
	movq	%rbx, 32(%rsp)
	call	GOMP_parallel
	nop
	addq	$72, %rsp
	popq	%rbx
	popq	%r12
	ret
	.seh_endproc
	.align 2
	.p2align 4
	.globl	_ZN11Histogram2DIysE10accumulateIsEEvPT_S3_y
	.def	_ZN11Histogram2DIysE10accumulateIsEEvPT_S3_y;	.scl	2;	.type	32;	.endef
	.seh_proc	_ZN11Histogram2DIysE10accumulateIsEEvPT_S3_y
_ZN11Histogram2DIysE10accumulateIsEEvPT_S3_y:
.LFB12862:
	pushq	%r12
	.seh_pushreg	%r12
	pushq	%rbx
	.seh_pushreg	%rbx
	subq	$88, %rsp
	.seh_stackalloc	88
	.seh_endprologue
	movl	$16, %eax
	movq	%rcx, %rbx
	movl	68(%rcx), %ecx
	leaq	32(%rsp), %r12
	movq	%r8, 56(%rsp)
	vmovq	%rbx, %xmm1
	movq	%r9, 32(%rsp)
	xorl	%r8d, %r8d
	xorl	%r9d, %r9d
	subl	%ecx, %eax
	vpinsrq	$1, %rdx, %xmm1, %xmm0
	movl	%ecx, 64(%rsp)
	movq	%r12, %rdx
	leaq	_ZN11Histogram2DIysE10accumulateIsEEvPT_S3_y._omp_fn.0(%rip), %rcx
	movl	%eax, 68(%rsp)
	vmovups	%xmm0, 40(%rsp)
	call	GOMP_parallel
	xorl	%r9d, %r9d
	xorl	%r8d, %r8d
	movq	%r12, %rdx
	leaq	_ZN11Histogram2DIysE19reduction_and_resetEv._omp_fn.0(%rip), %rcx
	movq	%rbx, 32(%rsp)
	call	GOMP_parallel
	nop
	addq	$88, %rsp
	popq	%rbx
	popq	%r12
	ret
	.seh_endproc
	.align 2
	.p2align 4
	.globl	_ZN11Histogram2DIjdE10accumulateIdEEvPT_S3_y
	.def	_ZN11Histogram2DIjdE10accumulateIdEEvPT_S3_y;	.scl	2;	.type	32;	.endef
	.seh_proc	_ZN11Histogram2DIjdE10accumulateIdEEvPT_S3_y
_ZN11Histogram2DIjdE10accumulateIdEEvPT_S3_y:
.LFB12863:
	pushq	%r12
	.seh_pushreg	%r12
	pushq	%rbx
	.seh_pushreg	%rbx
	subq	$88, %rsp
	.seh_stackalloc	88
	.seh_endprologue
	vmovsd	64(%rcx), %xmm0
	movl	(%rcx), %eax
	vaddsd	%xmm0, %xmm0, %xmm1
	vxorps	%xmm0, %xmm0, %xmm0
	vcvtsi2sdq	%rax, %xmm0, %xmm0
	vmovq	%rdx, %xmm2
	leaq	32(%rsp), %r12
	movq	%rcx, 56(%rsp)
	movq	%rcx, %rbx
	movq	%r9, 48(%rsp)
	movq	%r12, %rdx
	xorl	%r9d, %r9d
	leaq	_ZN11Histogram2DIjdE10accumulateIdEEvPT_S3_y._omp_fn.0(%rip), %rcx
	vdivsd	%xmm0, %xmm1, %xmm0
	vmovsd	%xmm0, 64(%rsp)
	vpinsrq	$1, %r8, %xmm2, %xmm0
	xorl	%r8d, %r8d
	vmovaps	%xmm0, 32(%rsp)
	call	GOMP_parallel
	xorl	%r9d, %r9d
	xorl	%r8d, %r8d
	movq	%r12, %rdx
	leaq	_ZN11Histogram2DIjdE19reduction_and_resetEv._omp_fn.0(%rip), %rcx
	movq	%rbx, 32(%rsp)
	call	GOMP_parallel
	nop
	addq	$88, %rsp
	popq	%rbx
	popq	%r12
	ret
	.seh_endproc
	.align 2
	.p2align 4
	.globl	_ZN11Histogram2DIjfE10accumulateIfEEvPT_S3_y
	.def	_ZN11Histogram2DIjfE10accumulateIfEEvPT_S3_y;	.scl	2;	.type	32;	.endef
	.seh_proc	_ZN11Histogram2DIjfE10accumulateIfEEvPT_S3_y
_ZN11Histogram2DIjfE10accumulateIfEEvPT_S3_y:
.LFB12864:
	pushq	%r12
	.seh_pushreg	%r12
	pushq	%rbx
	.seh_pushreg	%rbx
	subq	$88, %rsp
	.seh_stackalloc	88
	.seh_endprologue
	vxorps	%xmm2, %xmm2, %xmm2
	movl	(%rcx), %eax
	vcvtss2sd	64(%rcx), %xmm2, %xmm0
	vaddsd	%xmm0, %xmm0, %xmm1
	vmovq	%rdx, %xmm3
	leaq	32(%rsp), %r12
	vcvtsi2sdq	%rax, %xmm2, %xmm0
	movq	%rcx, 56(%rsp)
	movq	%rcx, %rbx
	movq	%r12, %rdx
	movq	%r9, 48(%rsp)
	leaq	_ZN11Histogram2DIjfE10accumulateIfEEvPT_S3_y._omp_fn.0(%rip), %rcx
	xorl	%r9d, %r9d
	vdivsd	%xmm0, %xmm1, %xmm0
	vcvtsd2ss	%xmm0, %xmm0, %xmm0
	vmovss	%xmm0, 64(%rsp)
	vpinsrq	$1, %r8, %xmm3, %xmm0
	xorl	%r8d, %r8d
	vmovaps	%xmm0, 32(%rsp)
	call	GOMP_parallel
	xorl	%r9d, %r9d
	xorl	%r8d, %r8d
	movq	%r12, %rdx
	leaq	_ZN11Histogram2DIjfE19reduction_and_resetEv._omp_fn.0(%rip), %rcx
	movq	%rbx, 32(%rsp)
	call	GOMP_parallel
	nop
	addq	$88, %rsp
	popq	%rbx
	popq	%r12
	ret
	.seh_endproc
	.align 2
	.p2align 4
	.globl	_ZN11Histogram2DIjhE10accumulateIhEEvPT_S3_y
	.def	_ZN11Histogram2DIjhE10accumulateIhEEvPT_S3_y;	.scl	2;	.type	32;	.endef
	.seh_proc	_ZN11Histogram2DIjhE10accumulateIhEEvPT_S3_y
_ZN11Histogram2DIjhE10accumulateIhEEvPT_S3_y:
.LFB12865:
	pushq	%r12
	.seh_pushreg	%r12
	pushq	%rbx
	.seh_pushreg	%rbx
	subq	$72, %rsp
	.seh_stackalloc	72
	.seh_endprologue
	vmovq	%rdx, %xmm1
	leaq	32(%rsp), %r12
	movq	%rcx, 56(%rsp)
	movq	%rcx, %rbx
	vpinsrq	$1, %r8, %xmm1, %xmm0
	movq	%r9, 48(%rsp)
	xorl	%r8d, %r8d
	xorl	%r9d, %r9d
	movq	%r12, %rdx
	leaq	_ZN11Histogram2DIjhE10accumulateIhEEvPT_S3_y._omp_fn.0(%rip), %rcx
	vmovaps	%xmm0, 32(%rsp)
	call	GOMP_parallel
	xorl	%r9d, %r9d
	xorl	%r8d, %r8d
	movq	%r12, %rdx
	leaq	_ZN11Histogram2DIjhE19reduction_and_resetEv._omp_fn.0(%rip), %rcx
	movq	%rbx, 32(%rsp)
	call	GOMP_parallel
	nop
	addq	$72, %rsp
	popq	%rbx
	popq	%r12
	ret
	.seh_endproc
	.align 2
	.p2align 4
	.globl	_ZN11Histogram2DIjtE10accumulateItEEvPT_S3_y
	.def	_ZN11Histogram2DIjtE10accumulateItEEvPT_S3_y;	.scl	2;	.type	32;	.endef
	.seh_proc	_ZN11Histogram2DIjtE10accumulateItEEvPT_S3_y
_ZN11Histogram2DIjtE10accumulateItEEvPT_S3_y:
.LFB12866:
	pushq	%r12
	.seh_pushreg	%r12
	pushq	%rbx
	.seh_pushreg	%rbx
	subq	$88, %rsp
	.seh_stackalloc	88
	.seh_endprologue
	movl	$16, %eax
	movq	%rcx, %rbx
	movl	68(%rcx), %ecx
	vmovq	%rdx, %xmm1
	leaq	32(%rsp), %r12
	vpinsrq	$1, %r8, %xmm1, %xmm0
	movq	%r9, 48(%rsp)
	xorl	%r8d, %r8d
	xorl	%r9d, %r9d
	subl	%ecx, %eax
	movl	%ecx, 64(%rsp)
	movq	%r12, %rdx
	leaq	_ZN11Histogram2DIjtE10accumulateItEEvPT_S3_y._omp_fn.0(%rip), %rcx
	movl	%eax, 68(%rsp)
	vmovaps	%xmm0, 32(%rsp)
	movq	%rbx, 56(%rsp)
	call	GOMP_parallel
	xorl	%r9d, %r9d
	xorl	%r8d, %r8d
	movq	%r12, %rdx
	leaq	_ZN11Histogram2DIjtE19reduction_and_resetEv._omp_fn.0(%rip), %rcx
	movq	%rbx, 32(%rsp)
	call	GOMP_parallel
	nop
	addq	$88, %rsp
	popq	%rbx
	popq	%r12
	ret
	.seh_endproc
	.align 2
	.p2align 4
	.globl	_ZN11Histogram2DIjaE10accumulateIaEEvPT_S3_y
	.def	_ZN11Histogram2DIjaE10accumulateIaEEvPT_S3_y;	.scl	2;	.type	32;	.endef
	.seh_proc	_ZN11Histogram2DIjaE10accumulateIaEEvPT_S3_y
_ZN11Histogram2DIjaE10accumulateIaEEvPT_S3_y:
.LFB12867:
	pushq	%r12
	.seh_pushreg	%r12
	pushq	%rbx
	.seh_pushreg	%rbx
	subq	$72, %rsp
	.seh_stackalloc	72
	.seh_endprologue
	vmovq	%rcx, %xmm1
	leaq	32(%rsp), %r12
	movq	%r8, 56(%rsp)
	movq	%rcx, %rbx
	vpinsrq	$1, %rdx, %xmm1, %xmm0
	movq	%r9, 32(%rsp)
	xorl	%r8d, %r8d
	xorl	%r9d, %r9d
	movq	%r12, %rdx
	leaq	_ZN11Histogram2DIjaE10accumulateIaEEvPT_S3_y._omp_fn.0(%rip), %rcx
	vmovups	%xmm0, 40(%rsp)
	call	GOMP_parallel
	xorl	%r9d, %r9d
	xorl	%r8d, %r8d
	movq	%r12, %rdx
	leaq	_ZN11Histogram2DIjaE19reduction_and_resetEv._omp_fn.0(%rip), %rcx
	movq	%rbx, 32(%rsp)
	call	GOMP_parallel
	nop
	addq	$72, %rsp
	popq	%rbx
	popq	%r12
	ret
	.seh_endproc
	.align 2
	.p2align 4
	.globl	_ZN11Histogram2DIjsE10accumulateIsEEvPT_S3_y
	.def	_ZN11Histogram2DIjsE10accumulateIsEEvPT_S3_y;	.scl	2;	.type	32;	.endef
	.seh_proc	_ZN11Histogram2DIjsE10accumulateIsEEvPT_S3_y
_ZN11Histogram2DIjsE10accumulateIsEEvPT_S3_y:
.LFB12868:
	pushq	%r12
	.seh_pushreg	%r12
	pushq	%rbx
	.seh_pushreg	%rbx
	subq	$88, %rsp
	.seh_stackalloc	88
	.seh_endprologue
	movl	$16, %eax
	movq	%rcx, %rbx
	movl	68(%rcx), %ecx
	leaq	32(%rsp), %r12
	movq	%r8, 56(%rsp)
	vmovq	%rbx, %xmm1
	movq	%r9, 32(%rsp)
	xorl	%r8d, %r8d
	xorl	%r9d, %r9d
	subl	%ecx, %eax
	vpinsrq	$1, %rdx, %xmm1, %xmm0
	movl	%ecx, 64(%rsp)
	movq	%r12, %rdx
	leaq	_ZN11Histogram2DIjsE10accumulateIsEEvPT_S3_y._omp_fn.0(%rip), %rcx
	movl	%eax, 68(%rsp)
	vmovups	%xmm0, 40(%rsp)
	call	GOMP_parallel
	xorl	%r9d, %r9d
	xorl	%r8d, %r8d
	movq	%r12, %rdx
	leaq	_ZN11Histogram2DIjsE19reduction_and_resetEv._omp_fn.0(%rip), %rcx
	movq	%rbx, 32(%rsp)
	call	GOMP_parallel
	nop
	addq	$88, %rsp
	popq	%rbx
	popq	%r12
	ret
	.seh_endproc
	.section	.text$_ZStplIcSt11char_traitsIcESaIcEENSt7__cxx1112basic_stringIT_T0_T1_EEPKS5_RKS8_,"x"
	.linkonce discard
	.p2align 4
	.globl	_ZStplIcSt11char_traitsIcESaIcEENSt7__cxx1112basic_stringIT_T0_T1_EEPKS5_RKS8_
	.def	_ZStplIcSt11char_traitsIcESaIcEENSt7__cxx1112basic_stringIT_T0_T1_EEPKS5_RKS8_;	.scl	2;	.type	32;	.endef
	.seh_proc	_ZStplIcSt11char_traitsIcESaIcEENSt7__cxx1112basic_stringIT_T0_T1_EEPKS5_RKS8_
_ZStplIcSt11char_traitsIcESaIcEENSt7__cxx1112basic_stringIT_T0_T1_EEPKS5_RKS8_:
.LFB13414:
	pushq	%r13
	.seh_pushreg	%r13
	pushq	%r12
	.seh_pushreg	%r12
	pushq	%rdi
	.seh_pushreg	%rdi
	pushq	%rsi
	.seh_pushreg	%rsi
	pushq	%rbx
	.seh_pushreg	%rbx
	subq	$32, %rsp
	.seh_stackalloc	32
	.seh_endprologue
	movq	%rcx, %r12
	movq	%r8, %rsi
	movq	%rdx, %rcx
	movq	%rdx, %r13
	call	strlen
	leaq	16(%r12), %rdi
	movb	$0, 16(%r12)
	movq	%r12, %rcx
	movq	$0, 8(%r12)
	movq	8(%rsi), %rdx
	movq	%rax, %rbx
	movq	%rdi, (%r12)
	addq	%rax, %rdx
.LEHB34:
	call	_ZNSt7__cxx1112basic_stringIcSt11char_traitsIcESaIcEE7reserveEy
	movabsq	$4611686018427387903, %rax
	subq	8(%r12), %rax
	cmpq	%rax, %rbx
	jbe	.L1168
	leaq	.LC6(%rip), %rcx
	call	_ZSt20__throw_length_errorPKc
	.p2align 4,,10
	.p2align 3
.L1168:
	movq	%rbx, %r8
	movq	%r13, %rdx
	movq	%r12, %rcx
	call	_ZNSt7__cxx1112basic_stringIcSt11char_traitsIcESaIcEE9_M_appendEPKcy
	movq	8(%rsi), %r8
	movq	(%rsi), %rdx
	movq	%r12, %rcx
	call	_ZNSt7__cxx1112basic_stringIcSt11char_traitsIcESaIcEE9_M_appendEPKcy
.LEHE34:
	jmp	.L1172
.L1171:
	movq	(%r12), %rcx
	movq	%rax, %r13
	cmpq	%rcx, %rdi
	je	.L1173
	vzeroupper
	call	_ZdlPv
	jmp	.L1170
.L1173:
	vzeroupper
.L1170:
	movq	%r13, %rcx
.LEHB35:
	call	_Unwind_Resume
.LEHE35:
	.p2align 4,,10
	.p2align 3
.L1172:
	movq	%r12, %rax
	addq	$32, %rsp
	popq	%rbx
	popq	%rsi
	popq	%rdi
	popq	%r12
	popq	%r13
	ret
	.seh_handler	__gxx_personality_seh0, @unwind, @except
	.seh_handlerdata
.LLSDA13414:
	.byte	0xff
	.byte	0xff
	.byte	0x1
	.uleb128 .LLSDACSE13414-.LLSDACSB13414
.LLSDACSB13414:
	.uleb128 .LEHB34-.LFB13414
	.uleb128 .LEHE34-.LEHB34
	.uleb128 .L1171-.LFB13414
	.uleb128 0
	.uleb128 .LEHB35-.LFB13414
	.uleb128 .LEHE35-.LEHB35
	.uleb128 0
	.uleb128 0
.LLSDACSE13414:
	.section	.text$_ZStplIcSt11char_traitsIcESaIcEENSt7__cxx1112basic_stringIT_T0_T1_EEPKS5_RKS8_,"x"
	.linkonce discard
	.seh_endproc
	.section	.text$_ZStplIcSt11char_traitsIcESaIcEENSt7__cxx1112basic_stringIT_T0_T1_EEOS8_PKS5_,"x"
	.linkonce discard
	.p2align 4
	.globl	_ZStplIcSt11char_traitsIcESaIcEENSt7__cxx1112basic_stringIT_T0_T1_EEOS8_PKS5_
	.def	_ZStplIcSt11char_traitsIcESaIcEENSt7__cxx1112basic_stringIT_T0_T1_EEOS8_PKS5_;	.scl	2;	.type	32;	.endef
	.seh_proc	_ZStplIcSt11char_traitsIcESaIcEENSt7__cxx1112basic_stringIT_T0_T1_EEOS8_PKS5_
_ZStplIcSt11char_traitsIcESaIcEENSt7__cxx1112basic_stringIT_T0_T1_EEOS8_PKS5_:
.LFB13415:
	pushq	%r14
	.seh_pushreg	%r14
	pushq	%r13
	.seh_pushreg	%r13
	pushq	%r12
	.seh_pushreg	%r12
	subq	$32, %rsp
	.seh_stackalloc	32
	.seh_endprologue
	movq	%rcx, %r12
	movq	%r8, %rcx
	movq	%rdx, %r13
	movq	%r8, %r14
	call	strlen
	movq	%rax, %r8
	movabsq	$4611686018427387903, %rax
	subq	8(%r13), %rax
	cmpq	%rax, %r8
	ja	.L1178
	movq	%r14, %rdx
	movq	%r13, %rcx
	call	_ZNSt7__cxx1112basic_stringIcSt11char_traitsIcESaIcEE9_M_appendEPKcy
	leaq	16(%r12), %rdx
	movq	%rdx, (%r12)
	movq	(%rax), %rcx
	leaq	16(%rax), %rdx
	cmpq	%rdx, %rcx
	je	.L1179
	movq	%rcx, (%r12)
	movq	16(%rax), %rcx
	movq	%rcx, 16(%r12)
.L1177:
	movq	8(%rax), %rcx
	movq	%rdx, (%rax)
	movq	$0, 8(%rax)
	movq	%rcx, 8(%r12)
	movb	$0, 16(%rax)
	movq	%r12, %rax
	addq	$32, %rsp
	popq	%r12
	popq	%r13
	popq	%r14
	ret
	.p2align 4,,10
	.p2align 3
.L1179:
	vmovdqu	16(%rax), %xmm0
	vmovups	%xmm0, 16(%r12)
	jmp	.L1177
.L1178:
	leaq	.LC6(%rip), %rcx
	call	_ZSt20__throw_length_errorPKc
	nop
	.seh_endproc
	.section	.text$_ZStplIcSt11char_traitsIcESaIcEENSt7__cxx1112basic_stringIT_T0_T1_EEPKS5_OS8_,"x"
	.linkonce discard
	.p2align 4
	.globl	_ZStplIcSt11char_traitsIcESaIcEENSt7__cxx1112basic_stringIT_T0_T1_EEPKS5_OS8_
	.def	_ZStplIcSt11char_traitsIcESaIcEENSt7__cxx1112basic_stringIT_T0_T1_EEPKS5_OS8_;	.scl	2;	.type	32;	.endef
	.seh_proc	_ZStplIcSt11char_traitsIcESaIcEENSt7__cxx1112basic_stringIT_T0_T1_EEPKS5_OS8_
_ZStplIcSt11char_traitsIcESaIcEENSt7__cxx1112basic_stringIT_T0_T1_EEPKS5_OS8_:
.LFB13419:
	pushq	%r13
	.seh_pushreg	%r13
	pushq	%r12
	.seh_pushreg	%r12
	pushq	%rbx
	.seh_pushreg	%rbx
	subq	$48, %rsp
	.seh_stackalloc	48
	.seh_endprologue
	movq	%rcx, %r12
	movq	%rdx, %rcx
	movq	%rdx, %rbx
	movq	%r8, %r13
	call	strlen
	xorl	%edx, %edx
	movq	%r13, %rcx
	movq	%rbx, %r9
	movq	%rax, 32(%rsp)
	xorl	%r8d, %r8d
	call	_ZNSt7__cxx1112basic_stringIcSt11char_traitsIcESaIcEE10_M_replaceEyyPKcy
	leaq	16(%r12), %rdx
	movq	%rdx, (%r12)
	movq	(%rax), %rcx
	leaq	16(%rax), %rdx
	cmpq	%rdx, %rcx
	je	.L1183
	movq	%rcx, (%r12)
	movq	16(%rax), %rcx
	movq	%rcx, 16(%r12)
.L1182:
	movq	8(%rax), %rcx
	movq	%rdx, (%rax)
	movq	$0, 8(%rax)
	movq	%rcx, 8(%r12)
	movb	$0, 16(%rax)
	movq	%r12, %rax
	addq	$48, %rsp
	popq	%rbx
	popq	%r12
	popq	%r13
	ret
	.p2align 4,,10
	.p2align 3
.L1183:
	vmovdqu	16(%rax), %xmm0
	vmovups	%xmm0, 16(%r12)
	jmp	.L1182
	.seh_endproc
	.section	.text$_ZStplIcSt11char_traitsIcESaIcEENSt7__cxx1112basic_stringIT_T0_T1_EEOS8_S9_,"x"
	.linkonce discard
	.p2align 4
	.globl	_ZStplIcSt11char_traitsIcESaIcEENSt7__cxx1112basic_stringIT_T0_T1_EEOS8_S9_
	.def	_ZStplIcSt11char_traitsIcESaIcEENSt7__cxx1112basic_stringIT_T0_T1_EEOS8_S9_;	.scl	2;	.type	32;	.endef
	.seh_proc	_ZStplIcSt11char_traitsIcESaIcEENSt7__cxx1112basic_stringIT_T0_T1_EEOS8_S9_
_ZStplIcSt11char_traitsIcESaIcEENSt7__cxx1112basic_stringIT_T0_T1_EEOS8_S9_:
.LFB13420:
	pushq	%r12
	.seh_pushreg	%r12
	pushq	%rbx
	.seh_pushreg	%rbx
	subq	$56, %rsp
	.seh_stackalloc	56
	.seh_endprologue
	movq	8(%rdx), %r11
	movq	(%rdx), %r9
	movq	%r8, %r10
	movq	8(%r8), %r8
	movq	%rcx, %r12
	movq	%rdx, %rcx
	leaq	16(%rdx), %rdx
	leaq	(%r11,%r8), %rax
	cmpq	%rdx, %r9
	je	.L1191
	movq	16(%rcx), %rbx
.L1185:
	movq	(%r10), %rdx
	cmpq	%rbx, %rax
	jbe	.L1186
	leaq	16(%r10), %rbx
	cmpq	%rbx, %rdx
	je	.L1192
	movq	16(%r10), %rbx
.L1187:
	cmpq	%rbx, %rax
	jbe	.L1193
.L1186:
	call	_ZNSt7__cxx1112basic_stringIcSt11char_traitsIcESaIcEE9_M_appendEPKcy
.L1188:
	leaq	16(%r12), %rdx
	movq	%rdx, (%r12)
	movq	(%rax), %rcx
	leaq	16(%rax), %rdx
	cmpq	%rdx, %rcx
	je	.L1194
	movq	%rcx, (%r12)
	movq	16(%rax), %rcx
	movq	%rcx, 16(%r12)
.L1190:
	movq	8(%rax), %rcx
	movq	%rdx, (%rax)
	movq	$0, 8(%rax)
	movq	%rcx, 8(%r12)
	movb	$0, 16(%rax)
	movq	%r12, %rax
	addq	$56, %rsp
	popq	%rbx
	popq	%r12
	ret
	.p2align 4,,10
	.p2align 3
.L1193:
	movq	%r11, 32(%rsp)
	xorl	%r8d, %r8d
	xorl	%edx, %edx
	movq	%r10, %rcx
	call	_ZNSt7__cxx1112basic_stringIcSt11char_traitsIcESaIcEE10_M_replaceEyyPKcy
	jmp	.L1188
	.p2align 4,,10
	.p2align 3
.L1194:
	vmovdqu	16(%rax), %xmm0
	vmovups	%xmm0, 16(%r12)
	jmp	.L1190
	.p2align 4,,10
	.p2align 3
.L1191:
	movl	$15, %ebx
	jmp	.L1185
	.p2align 4,,10
	.p2align 3
.L1192:
	movl	$15, %ebx
	jmp	.L1187
	.seh_endproc
	.section	.text$_ZNSt6vectorIN8pybind116detail13function_callESaIS2_EED1Ev,"x"
	.linkonce discard
	.align 2
	.p2align 4
	.globl	_ZNSt6vectorIN8pybind116detail13function_callESaIS2_EED1Ev
	.def	_ZNSt6vectorIN8pybind116detail13function_callESaIS2_EED1Ev;	.scl	2;	.type	32;	.endef
	.seh_proc	_ZNSt6vectorIN8pybind116detail13function_callESaIS2_EED1Ev
_ZNSt6vectorIN8pybind116detail13function_callESaIS2_EED1Ev:
.LFB13586:
	pushq	%r12
	.seh_pushreg	%r12
	pushq	%rsi
	.seh_pushreg	%rsi
	pushq	%rbx
	.seh_pushreg	%rbx
	subq	$32, %rsp
	.seh_stackalloc	32
	.seh_endprologue
	movq	8(%rcx), %rbx
	movq	(%rcx), %r12
	movq	%rcx, %rsi
	cmpq	%r12, %rbx
	je	.L1196
	.p2align 4,,10
	.p2align 3
.L1208:
	movq	80(%r12), %rcx
	testq	%rcx, %rcx
	je	.L1198
	decq	(%rcx)
	jne	.L1198
	movq	8(%rcx), %rax
	call	*48(%rax)
.L1198:
	movq	72(%r12), %rcx
	testq	%rcx, %rcx
	je	.L1201
	decq	(%rcx)
	jne	.L1201
	movq	8(%rcx), %rax
	call	*48(%rax)
.L1201:
	movq	32(%r12), %rcx
	testq	%rcx, %rcx
	je	.L1203
	call	_ZdlPv
.L1203:
	movq	8(%r12), %rcx
	testq	%rcx, %rcx
	je	.L1205
	call	_ZdlPv
	addq	$104, %r12
	cmpq	%r12, %rbx
	jne	.L1208
	jmp	.L1206
	.p2align 4,,10
	.p2align 3
.L1205:
	addq	$104, %r12
	cmpq	%r12, %rbx
	jne	.L1208
.L1206:
	movq	(%rsi), %r12
.L1196:
	testq	%r12, %r12
	je	.L1195
	movq	%r12, %rcx
	addq	$32, %rsp
	popq	%rbx
	popq	%rsi
	popq	%r12
	jmp	_ZdlPv
	.p2align 4,,10
	.p2align 3
.L1195:
	addq	$32, %rsp
	popq	%rbx
	popq	%rsi
	popq	%r12
	ret
	.seh_handler	__gxx_personality_seh0, @unwind, @except
	.seh_handlerdata
.LLSDA13586:
	.byte	0xff
	.byte	0xff
	.byte	0x1
	.uleb128 .LLSDACSE13586-.LLSDACSB13586
.LLSDACSB13586:
.LLSDACSE13586:
	.section	.text$_ZNSt6vectorIN8pybind116detail13function_callESaIS2_EED1Ev,"x"
	.linkonce discard
	.seh_endproc
	.section .rdata,"dr"
.LC13:
	.ascii "vector::_M_realloc_insert\0"
	.section	.text$_ZNSt6vectorIPN8pybind116detail9type_infoESaIS3_EE17_M_realloc_insertIJRKS3_EEEvN9__gnu_cxx17__normal_iteratorIPS3_S5_EEDpOT_,"x"
	.linkonce discard
	.align 2
	.p2align 4
	.globl	_ZNSt6vectorIPN8pybind116detail9type_infoESaIS3_EE17_M_realloc_insertIJRKS3_EEEvN9__gnu_cxx17__normal_iteratorIPS3_S5_EEDpOT_
	.def	_ZNSt6vectorIPN8pybind116detail9type_infoESaIS3_EE17_M_realloc_insertIJRKS3_EEEvN9__gnu_cxx17__normal_iteratorIPS3_S5_EEDpOT_;	.scl	2;	.type	32;	.endef
	.seh_proc	_ZNSt6vectorIPN8pybind116detail9type_infoESaIS3_EE17_M_realloc_insertIJRKS3_EEEvN9__gnu_cxx17__normal_iteratorIPS3_S5_EEDpOT_
_ZNSt6vectorIPN8pybind116detail9type_infoESaIS3_EE17_M_realloc_insertIJRKS3_EEEvN9__gnu_cxx17__normal_iteratorIPS3_S5_EEDpOT_:
.LFB14211:
	pushq	%r15
	.seh_pushreg	%r15
	pushq	%r14
	.seh_pushreg	%r14
	pushq	%r13
	.seh_pushreg	%r13
	pushq	%r12
	.seh_pushreg	%r12
	pushq	%rbp
	.seh_pushreg	%rbp
	pushq	%rdi
	.seh_pushreg	%rdi
	pushq	%rsi
	.seh_pushreg	%rsi
	pushq	%rbx
	.seh_pushreg	%rbx
	subq	$56, %rsp
	.seh_stackalloc	56
	.seh_endprologue
	movq	8(%rcx), %rdi
	movq	(%rcx), %r13
	movq	%rdi, %rax
	subq	%r13, %rax
	movq	%rdx, %r12
	sarq	$3, %rax
	movq	%rcx, %rbx
	movq	%r8, %r15
	movabsq	$1152921504606846975, %rdx
	cmpq	%rdx, %rax
	je	.L1227
	movq	%r12, %r14
	subq	%r13, %r14
	testq	%rax, %rax
	je	.L1223
	movabsq	$9223372036854775800, %rbp
	leaq	(%rax,%rax), %rcx
	cmpq	%rcx, %rax
	jbe	.L1228
.L1215:
	movq	%rbp, %rcx
	call	_Znwy
	movq	%rax, %rsi
	addq	%rax, %rbp
.L1222:
	movq	(%r15), %rax
	leaq	8(%rsi,%r14), %r9
	subq	%r12, %rdi
	leaq	(%r9,%rdi), %r15
	movq	%rax, (%rsi,%r14)
	testq	%r14, %r14
	jg	.L1229
	testq	%rdi, %rdi
	jg	.L1218
	testq	%r13, %r13
	jne	.L1221
.L1219:
	vmovq	%rsi, %xmm1
	movq	%rbp, 16(%rbx)
	vpinsrq	$1, %r15, %xmm1, %xmm0
	vmovups	%xmm0, (%rbx)
	addq	$56, %rsp
	popq	%rbx
	popq	%rsi
	popq	%rdi
	popq	%rbp
	popq	%r12
	popq	%r13
	popq	%r14
	popq	%r15
	ret
	.p2align 4,,10
	.p2align 3
.L1229:
	movq	%r14, %r8
	movq	%r13, %rdx
	movq	%rsi, %rcx
	movq	%r9, 40(%rsp)
	call	memmove
	testq	%rdi, %rdi
	movq	40(%rsp), %r9
	jg	.L1218
.L1221:
	movq	%r13, %rcx
	call	_ZdlPv
	jmp	.L1219
	.p2align 4,,10
	.p2align 3
.L1228:
	testq	%rcx, %rcx
	jne	.L1216
	xorl	%ebp, %ebp
	xorl	%esi, %esi
	jmp	.L1222
	.p2align 4,,10
	.p2align 3
.L1218:
	movq	%rdi, %r8
	movq	%r12, %rdx
	movq	%r9, %rcx
	call	memcpy
	testq	%r13, %r13
	je	.L1219
	jmp	.L1221
	.p2align 4,,10
	.p2align 3
.L1223:
	movl	$8, %ebp
	jmp	.L1215
.L1227:
	leaq	.LC13(%rip), %rcx
	call	_ZSt20__throw_length_errorPKc
.L1216:
	cmpq	%rdx, %rcx
	cmovbe	%rcx, %rdx
	movq	%rdx, %rbp
	salq	$3, %rbp
	jmp	.L1215
	.seh_endproc
	.section	.text$_ZNSt10_HashtableISt10type_indexSt4pairIKS0_PN8pybind116detail9type_infoEESaIS7_ENSt8__detail10_Select1stESt8equal_toIS0_ESt4hashIS0_ENS9_18_Mod_range_hashingENS9_20_Default_ranged_hashENS9_20_Prime_rehash_policyENS9_17_Hashtable_traitsILb0ELb0ELb1EEEE4findERS2_,"x"
	.linkonce discard
	.align 2
	.p2align 4
	.globl	_ZNSt10_HashtableISt10type_indexSt4pairIKS0_PN8pybind116detail9type_infoEESaIS7_ENSt8__detail10_Select1stESt8equal_toIS0_ESt4hashIS0_ENS9_18_Mod_range_hashingENS9_20_Default_ranged_hashENS9_20_Prime_rehash_policyENS9_17_Hashtable_traitsILb0ELb0ELb1EEEE4findERS2_
	.def	_ZNSt10_HashtableISt10type_indexSt4pairIKS0_PN8pybind116detail9type_infoEESaIS7_ENSt8__detail10_Select1stESt8equal_toIS0_ESt4hashIS0_ENS9_18_Mod_range_hashingENS9_20_Default_ranged_hashENS9_20_Prime_rehash_policyENS9_17_Hashtable_traitsILb0ELb0ELb1EEEE4findERS2_;	.scl	2;	.type	32;	.endef
	.seh_proc	_ZNSt10_HashtableISt10type_indexSt4pairIKS0_PN8pybind116detail9type_infoEESaIS7_ENSt8__detail10_Select1stESt8equal_toIS0_ESt4hashIS0_ENS9_18_Mod_range_hashingENS9_20_Default_ranged_hashENS9_20_Prime_rehash_policyENS9_17_Hashtable_traitsILb0ELb0ELb1EEEE4findERS2_
_ZNSt10_HashtableISt10type_indexSt4pairIKS0_PN8pybind116detail9type_infoEESaIS7_ENSt8__detail10_Select1stESt8equal_toIS0_ESt4hashIS0_ENS9_18_Mod_range_hashingENS9_20_Default_ranged_hashENS9_20_Prime_rehash_policyENS9_17_Hashtable_traitsILb0ELb0ELb1EEEE4findERS2_:
.LFB14215:
	pushq	%r14
	.seh_pushreg	%r14
	pushq	%r13
	.seh_pushreg	%r13
	pushq	%r12
	.seh_pushreg	%r12
	pushq	%rbp
	.seh_pushreg	%rbp
	pushq	%rdi
	.seh_pushreg	%rdi
	pushq	%rsi
	.seh_pushreg	%rsi
	pushq	%rbx
	.seh_pushreg	%rbx
	subq	$32, %rsp
	.seh_stackalloc	32
	.seh_endprologue
	movq	(%rdx), %rax
	movq	%rcx, %rbx
	movq	%rdx, %rdi
	movq	8(%rax), %r12
	xorl	%eax, %eax
	cmpb	$42, (%r12)
	sete	%al
	addq	%rax, %r12
	movq	%r12, %rcx
	call	strlen
	movq	%r12, %rcx
	movl	$3339675911, %r8d
	movq	%rax, %rdx
	call	_ZSt11_Hash_bytesPKvyy
	xorl	%edx, %edx
	divq	8(%rbx)
	movq	(%rbx), %rax
	movq	(%rax,%rdx,8), %r12
	movq	%rdx, %rbp
	testq	%r12, %r12
	je	.L1232
	movq	(%r12), %rsi
	movl	$3339675911, %r13d
	.p2align 4,,10
	.p2align 3
.L1235:
	movq	8(%rsi), %rdx
	movq	(%rdi), %rcx
	call	_ZNKSt9type_infoeqERKS_
	testb	%al, %al
	jne	.L1233
	movq	(%rsi), %rax
	testq	%rax, %rax
	je	.L1232
	movq	8(%rax), %rax
	movq	8(%rbx), %r14
	movq	8(%rax), %r12
	xorl	%eax, %eax
	cmpb	$42, (%r12)
	sete	%al
	addq	%rax, %r12
	movq	%r12, %rcx
	call	strlen
	movq	%r13, %r8
	movq	%r12, %rcx
	movq	%rax, %rdx
	call	_ZSt11_Hash_bytesPKvyy
	xorl	%edx, %edx
	divq	%r14
	cmpq	%rdx, %rbp
	jne	.L1232
	movq	%rsi, %r12
	movq	(%rsi), %rsi
	jmp	.L1235
	.p2align 4,,10
	.p2align 3
.L1232:
	xorl	%eax, %eax
	jmp	.L1242
	.p2align 4,,10
	.p2align 3
.L1233:
	movq	(%r12), %rax
	testq	%rax, %rax
	je	.L1232
.L1242:
	addq	$32, %rsp
	popq	%rbx
	popq	%rsi
	popq	%rdi
	popq	%rbp
	popq	%r12
	popq	%r13
	popq	%r14
	ret
	.seh_handler	__gxx_personality_seh0, @unwind, @except
	.seh_handlerdata
.LLSDA14215:
	.byte	0xff
	.byte	0xff
	.byte	0x1
	.uleb128 .LLSDACSE14215-.LLSDACSB14215
.LLSDACSB14215:
.LLSDACSE14215:
	.section	.text$_ZNSt10_HashtableISt10type_indexSt4pairIKS0_PN8pybind116detail9type_infoEESaIS7_ENSt8__detail10_Select1stESt8equal_toIS0_ESt4hashIS0_ENS9_18_Mod_range_hashingENS9_20_Default_ranged_hashENS9_20_Prime_rehash_policyENS9_17_Hashtable_traitsILb0ELb0ELb1EEEE4findERS2_,"x"
	.linkonce discard
	.seh_endproc
	.section	.text$_ZNSt13_Bvector_baseISaIbEE13_M_deallocateEv,"x"
	.linkonce discard
	.align 2
	.p2align 4
	.globl	_ZNSt13_Bvector_baseISaIbEE13_M_deallocateEv
	.def	_ZNSt13_Bvector_baseISaIbEE13_M_deallocateEv;	.scl	2;	.type	32;	.endef
	.seh_proc	_ZNSt13_Bvector_baseISaIbEE13_M_deallocateEv
_ZNSt13_Bvector_baseISaIbEE13_M_deallocateEv:
.LFB14298:
	pushq	%rbx
	.seh_pushreg	%rbx
	subq	$32, %rsp
	.seh_stackalloc	32
	.seh_endprologue
	movq	%rcx, %rbx
	movq	(%rcx), %rcx
	testq	%rcx, %rcx
	je	.L1251
	call	_ZdlPv
	movq	$0, 16(%rbx)
	movl	$0, 24(%rbx)
	movq	$0, (%rbx)
	movl	$0, 8(%rbx)
	movq	$0, 32(%rbx)
.L1251:
	addq	$32, %rsp
	popq	%rbx
	ret
	.seh_endproc
	.section .rdata,"dr"
.LC14:
	.ascii "vector<bool>::_M_insert_aux\0"
	.section	.text$_ZNSt6vectorIbSaIbEE13_M_insert_auxESt13_Bit_iteratorb,"x"
	.linkonce discard
	.align 2
	.p2align 4
	.globl	_ZNSt6vectorIbSaIbEE13_M_insert_auxESt13_Bit_iteratorb
	.def	_ZNSt6vectorIbSaIbEE13_M_insert_auxESt13_Bit_iteratorb;	.scl	2;	.type	32;	.endef
	.seh_proc	_ZNSt6vectorIbSaIbEE13_M_insert_auxESt13_Bit_iteratorb
_ZNSt6vectorIbSaIbEE13_M_insert_auxESt13_Bit_iteratorb:
.LFB14383:
	pushq	%r15
	.seh_pushreg	%r15
	pushq	%r14
	.seh_pushreg	%r14
	pushq	%r13
	.seh_pushreg	%r13
	pushq	%r12
	.seh_pushreg	%r12
	pushq	%rbp
	.seh_pushreg	%rbp
	pushq	%rdi
	.seh_pushreg	%rdi
	pushq	%rsi
	.seh_pushreg	%rsi
	pushq	%rbx
	.seh_pushreg	%rbx
	subq	$56, %rsp
	.seh_stackalloc	56
	.seh_endprologue
	movl	24(%rcx), %eax
	movq	(%rdx), %rbp
	movl	8(%rdx), %esi
	movq	%rax, %r10
	movl	%r8d, %r13d
	movq	%rcx, %rbx
	movq	16(%rcx), %r8
	cmpq	32(%rcx), %r8
	je	.L1253
	leaq	1(%rax), %rdx
	movq	%r8, %r12
	movl	%r10d, %r9d
	movl	$1, %r14d
	movq	%rdx, %rcx
	andl	$31, %edx
	sarq	$5, %rcx
	leaq	(%r8,%rcx,4), %r11
	movq	%r8, %rcx
	subq	%rbp, %rcx
	leaq	(%rax,%rcx,8), %rax
	movl	%esi, %ecx
	subq	%rcx, %rax
	testq	%rax, %rax
	jle	.L1263
	.p2align 4,,10
	.p2align 3
.L1255:
	testl	%r9d, %r9d
	je	.L1258
.L1314:
	decl	%r9d
	shlx	%r9d, %r14d, %r15d
	testl	%edx, %edx
	je	.L1260
.L1315:
	decl	%edx
	shlx	%edx, %r14d, %ecx
.L1261:
	movl	(%r11), %edi
	testl	%r15d, (%r12)
	je	.L1262
	orl	%edi, %ecx
	movl	%ecx, (%r11)
	decq	%rax
	jne	.L1255
.L1263:
	movl	$1, %eax
	shlx	%esi, %eax, %esi
	movl	0(%rbp), %eax
	andn	%eax, %esi, %edx
	orl	%eax, %esi
	testb	%r13b, %r13b
	cmove	%edx, %esi
	movl	%esi, 0(%rbp)
	cmpl	$31, %r10d
	je	.L1313
	incl	%r10d
	movl	%r10d, 24(%rbx)
.L1311:
	addq	$56, %rsp
	popq	%rbx
	popq	%rsi
	popq	%rdi
	popq	%rbp
	popq	%r12
	popq	%r13
	popq	%r14
	popq	%r15
	ret
	.p2align 4,,10
	.p2align 3
.L1262:
	andn	%edi, %ecx, %ecx
	movl	%ecx, (%r11)
	decq	%rax
	je	.L1263
	testl	%r9d, %r9d
	jne	.L1314
.L1258:
	subq	$4, %r12
	movl	$-2147483648, %r15d
	movl	$31, %r9d
	testl	%edx, %edx
	jne	.L1315
.L1260:
	subq	$4, %r11
	movl	$-2147483648, %ecx
	movl	$31, %edx
	jmp	.L1261
	.p2align 4,,10
	.p2align 3
.L1313:
	addq	$4, %r8
	movl	$0, 24(%rbx)
	movq	%r8, 16(%rbx)
	jmp	.L1311
	.p2align 4,,10
	.p2align 3
.L1253:
	subq	(%rcx), %r8
	movabsq	$9223372036854775776, %rcx
	leaq	(%rax,%r8,8), %rax
	cmpq	%rcx, %rax
	je	.L1316
	movl	$4, %r12d
	testq	%rax, %rax
	je	.L1270
	movabsq	$1152921504606846972, %r12
	leaq	(%rax,%rax), %rdx
	cmpq	%rdx, %rax
	ja	.L1270
	cmpq	%rcx, %rdx
	cmovbe	%rdx, %rcx
	movq	%rcx, %r12
	addq	$31, %r12
	shrq	$5, %r12
	salq	$2, %r12
.L1270:
	movq	%r12, %rcx
	movq	%rbp, %rdi
	call	_Znwy
	movq	(%rbx), %r15
	movq	%rax, %r14
	subq	%r15, %rdi
	cmpq	%r15, %rbp
	je	.L1272
	movq	%rdi, %r8
	movq	%r15, %rdx
	movq	%rax, %rcx
	call	memmove
.L1272:
	movl	%esi, %r8d
	leaq	(%r14,%rdi), %rcx
	movq	%r8, 40(%rsp)
	testq	%r8, %r8
	je	.L1273
	movq	%rbp, %r10
	xorl	%edx, %edx
	movl	$1, %r11d
	jmp	.L1279
	.p2align 4,,10
	.p2align 3
.L1318:
	leal	1(%rdx), %r9d
	leal	2(%rdx), %edi
	shlx	%r9d, %r11d, %eax
	movl	%r9d, %edx
	decq	%r8
	je	.L1317
.L1279:
	movl	(%rcx), %eax
	shlx	%edx, %r11d, %r9d
	movl	%r9d, %edi
	orl	%eax, %edi
	andn	%eax, %r9d, %eax
	testl	%r9d, (%r10)
	cmovne	%edi, %eax
	movl	%eax, (%rcx)
	cmpl	$31, %edx
	jne	.L1318
	addq	$4, %r10
	addq	$4, %rcx
	movl	$1, %eax
	xorl	%edx, %edx
	movl	$1, %edi
	decq	%r8
	jne	.L1279
.L1317:
	movq	%rcx, %r8
	cmpl	$31, %edx
	je	.L1319
.L1280:
	movl	(%rcx), %edx
	movl	%eax, %r9d
	orl	%edx, %r9d
	andn	%edx, %eax, %eax
	testb	%r13b, %r13b
	movl	24(%rbx), %edx
	cmovne	%r9d, %eax
	movl	%eax, (%rcx)
	movq	16(%rbx), %rax
	subq	%rbp, %rax
	leaq	(%rdx,%rax,8), %rdx
	subq	40(%rsp), %rdx
	testq	%rdx, %rdx
	jle	.L1283
	movl	$1, %r9d
	jmp	.L1290
	.p2align 4,,10
	.p2align 3
.L1288:
	incl	%edi
	decq	%rdx
	je	.L1283
.L1290:
	movl	(%r8), %ecx
	shlx	%edi, %r9d, %eax
	movl	%eax, %r10d
	shlx	%esi, %r9d, %r11d
	orl	%ecx, %r10d
	andn	%ecx, %eax, %eax
	testl	%r11d, 0(%rbp)
	cmovne	%r10d, %eax
	movl	%eax, (%r8)
	cmpl	$31, %esi
	je	.L1320
	incl	%esi
.L1287:
	cmpl	$31, %edi
	jne	.L1288
	addq	$4, %r8
	xorl	%edi, %edi
	decq	%rdx
	jne	.L1290
.L1283:
	testq	%r15, %r15
	je	.L1291
	movq	%r15, %rcx
	movq	%r8, 40(%rsp)
	call	_ZdlPv
	movq	$0, 16(%rbx)
	movq	40(%rsp), %r8
	movl	$0, 24(%rbx)
	movq	$0, (%rbx)
	movl	$0, 8(%rbx)
.L1291:
	addq	%r14, %r12
	movq	%r14, (%rbx)
	movq	%r12, 32(%rbx)
	movl	$0, 8(%rbx)
	movq	%r8, 16(%rbx)
	movl	%edi, 24(%rbx)
	jmp	.L1311
	.p2align 4,,10
	.p2align 3
.L1320:
	addq	$4, %rbp
	xorl	%esi, %esi
	jmp	.L1287
	.p2align 4,,10
	.p2align 3
.L1319:
	leaq	4(%rcx), %r8
	xorl	%edi, %edi
	jmp	.L1280
	.p2align 4,,10
	.p2align 3
.L1273:
	movq	%rcx, %r8
	movl	$1, %eax
	movl	$1, %edi
	jmp	.L1280
.L1316:
	leaq	.LC14(%rip), %rcx
	call	_ZSt20__throw_length_errorPKc
	nop
	.seh_endproc
	.section	.text$_ZNSt6vectorIN8pybind116handleESaIS1_EE17_M_realloc_insertIJRKS1_EEEvN9__gnu_cxx17__normal_iteratorIPS1_S3_EEDpOT_,"x"
	.linkonce discard
	.align 2
	.p2align 4
	.globl	_ZNSt6vectorIN8pybind116handleESaIS1_EE17_M_realloc_insertIJRKS1_EEEvN9__gnu_cxx17__normal_iteratorIPS1_S3_EEDpOT_
	.def	_ZNSt6vectorIN8pybind116handleESaIS1_EE17_M_realloc_insertIJRKS1_EEEvN9__gnu_cxx17__normal_iteratorIPS1_S3_EEDpOT_;	.scl	2;	.type	32;	.endef
	.seh_proc	_ZNSt6vectorIN8pybind116handleESaIS1_EE17_M_realloc_insertIJRKS1_EEEvN9__gnu_cxx17__normal_iteratorIPS1_S3_EEDpOT_
_ZNSt6vectorIN8pybind116handleESaIS1_EE17_M_realloc_insertIJRKS1_EEEvN9__gnu_cxx17__normal_iteratorIPS1_S3_EEDpOT_:
.LFB14387:
	pushq	%r15
	.seh_pushreg	%r15
	pushq	%r14
	.seh_pushreg	%r14
	pushq	%r13
	.seh_pushreg	%r13
	pushq	%r12
	.seh_pushreg	%r12
	pushq	%rbp
	.seh_pushreg	%rbp
	pushq	%rdi
	.seh_pushreg	%rdi
	pushq	%rsi
	.seh_pushreg	%rsi
	pushq	%rbx
	.seh_pushreg	%rbx
	subq	$56, %rsp
	.seh_stackalloc	56
	.seh_endprologue
	movq	8(%rcx), %r14
	movq	(%rcx), %r12
	movq	%r14, %rax
	subq	%r12, %rax
	movq	%rdx, %r13
	sarq	$3, %rax
	movq	%rcx, %rdi
	movq	%r8, %r15
	movabsq	$1152921504606846975, %rdx
	cmpq	%rdx, %rax
	je	.L1351
	movq	%r13, %r8
	subq	%r12, %r8
	testq	%rax, %rax
	je	.L1333
	movabsq	$9223372036854775800, %rbp
	leaq	(%rax,%rax), %rcx
	cmpq	%rcx, %rax
	jbe	.L1352
.L1323:
	movq	%rbp, %rcx
	movq	%r8, 40(%rsp)
	call	_Znwy
	movq	40(%rsp), %r8
	movq	%rax, %rbx
	addq	%rax, %rbp
	leaq	8(%rax), %rsi
.L1332:
	movq	(%r15), %rax
	movq	%rax, (%rbx,%r8)
	cmpq	%r12, %r13
	je	.L1325
	leaq	-8(%r13), %r8
	leaq	31(%rbx), %rax
	subq	%r12, %r8
	subq	%r12, %rax
	movq	%r8, %rcx
	shrq	$3, %rcx
	cmpq	$62, %rax
	jbe	.L1335
	movabsq	$2305843009213693948, %rax
	testq	%rax, %rcx
	je	.L1335
	incq	%rcx
	xorl	%eax, %eax
	movq	%rcx, %rdx
	shrq	$2, %rdx
	salq	$5, %rdx
	.p2align 4,,10
	.p2align 3
.L1327:
	vmovdqu	(%r12,%rax), %ymm1
	vmovdqu	%ymm1, (%rbx,%rax)
	addq	$32, %rax
	cmpq	%rdx, %rax
	jne	.L1327
	movq	%rcx, %rdx
	andq	$-4, %rdx
	leaq	0(,%rdx,8), %rax
	leaq	(%r12,%rax), %r9
	addq	%rbx, %rax
	cmpq	%rdx, %rcx
	je	.L1349
	movq	(%r9), %rdx
	movq	%rdx, (%rax)
	leaq	8(%r9), %rdx
	cmpq	%rdx, %r13
	je	.L1349
	movq	8(%r9), %rdx
	movq	%rdx, 8(%rax)
	leaq	16(%r9), %rdx
	cmpq	%rdx, %r13
	je	.L1349
	movq	16(%r9), %rdx
	movq	%rdx, 16(%rax)
	vzeroupper
.L1329:
	leaq	16(%rbx,%r8), %rsi
.L1325:
	cmpq	%r14, %r13
	je	.L1330
	subq	%r13, %r14
	movq	%rsi, %rcx
	movq	%r13, %rdx
	movq	%r14, %r8
	addq	%r14, %rsi
	call	memcpy
.L1330:
	testq	%r12, %r12
	je	.L1331
	movq	%r12, %rcx
	call	_ZdlPv
.L1331:
	vmovq	%rbx, %xmm2
	movq	%rbp, 16(%rdi)
	vpinsrq	$1, %rsi, %xmm2, %xmm0
	vmovups	%xmm0, (%rdi)
	addq	$56, %rsp
	popq	%rbx
	popq	%rsi
	popq	%rdi
	popq	%rbp
	popq	%r12
	popq	%r13
	popq	%r14
	popq	%r15
	ret
	.p2align 4,,10
	.p2align 3
.L1352:
	testq	%rcx, %rcx
	jne	.L1324
	movl	$8, %esi
	xorl	%ebp, %ebp
	xorl	%ebx, %ebx
	jmp	.L1332
	.p2align 4,,10
	.p2align 3
.L1349:
	vzeroupper
	jmp	.L1329
	.p2align 4,,10
	.p2align 3
.L1333:
	movl	$8, %ebp
	jmp	.L1323
	.p2align 4,,10
	.p2align 3
.L1335:
	movq	%rbx, %rdx
	movq	%r12, %rax
	.p2align 4,,10
	.p2align 3
.L1326:
	movq	(%rax), %rcx
	addq	$8, %rax
	addq	$8, %rdx
	movq	%rcx, -8(%rdx)
	cmpq	%rax, %r13
	jne	.L1326
	jmp	.L1329
.L1324:
	cmpq	%rdx, %rcx
	cmovbe	%rcx, %rdx
	movq	%rdx, %rbp
	salq	$3, %rbp
	jmp	.L1323
.L1351:
	leaq	.LC13(%rip), %rcx
	call	_ZSt20__throw_length_errorPKc
	nop
	.seh_endproc
	.section	.text$_ZNSt6vectorIP7_objectSaIS1_EE17_M_realloc_insertIJS1_EEEvN9__gnu_cxx17__normal_iteratorIPS1_S3_EEDpOT_,"x"
	.linkonce discard
	.align 2
	.p2align 4
	.globl	_ZNSt6vectorIP7_objectSaIS1_EE17_M_realloc_insertIJS1_EEEvN9__gnu_cxx17__normal_iteratorIPS1_S3_EEDpOT_
	.def	_ZNSt6vectorIP7_objectSaIS1_EE17_M_realloc_insertIJS1_EEEvN9__gnu_cxx17__normal_iteratorIPS1_S3_EEDpOT_;	.scl	2;	.type	32;	.endef
	.seh_proc	_ZNSt6vectorIP7_objectSaIS1_EE17_M_realloc_insertIJS1_EEEvN9__gnu_cxx17__normal_iteratorIPS1_S3_EEDpOT_
_ZNSt6vectorIP7_objectSaIS1_EE17_M_realloc_insertIJS1_EEEvN9__gnu_cxx17__normal_iteratorIPS1_S3_EEDpOT_:
.LFB14882:
	pushq	%r15
	.seh_pushreg	%r15
	pushq	%r14
	.seh_pushreg	%r14
	pushq	%r13
	.seh_pushreg	%r13
	pushq	%r12
	.seh_pushreg	%r12
	pushq	%rbp
	.seh_pushreg	%rbp
	pushq	%rdi
	.seh_pushreg	%rdi
	pushq	%rsi
	.seh_pushreg	%rsi
	pushq	%rbx
	.seh_pushreg	%rbx
	subq	$56, %rsp
	.seh_stackalloc	56
	.seh_endprologue
	movq	8(%rcx), %rdi
	movq	(%rcx), %r13
	movq	%rdi, %rax
	subq	%r13, %rax
	movq	%rdx, %r12
	sarq	$3, %rax
	movq	%rcx, %rbx
	movq	%r8, %r15
	movabsq	$1152921504606846975, %rdx
	cmpq	%rdx, %rax
	je	.L1367
	movq	%r12, %r14
	subq	%r13, %r14
	testq	%rax, %rax
	je	.L1363
	movabsq	$9223372036854775800, %rbp
	leaq	(%rax,%rax), %rcx
	cmpq	%rcx, %rax
	jbe	.L1368
.L1355:
	movq	%rbp, %rcx
	call	_Znwy
	movq	%rax, %rsi
	addq	%rax, %rbp
.L1362:
	movq	(%r15), %rax
	leaq	8(%rsi,%r14), %r9
	subq	%r12, %rdi
	leaq	(%r9,%rdi), %r15
	movq	%rax, (%rsi,%r14)
	testq	%r14, %r14
	jg	.L1369
	testq	%rdi, %rdi
	jg	.L1358
	testq	%r13, %r13
	jne	.L1361
.L1359:
	vmovq	%rsi, %xmm1
	movq	%rbp, 16(%rbx)
	vpinsrq	$1, %r15, %xmm1, %xmm0
	vmovups	%xmm0, (%rbx)
	addq	$56, %rsp
	popq	%rbx
	popq	%rsi
	popq	%rdi
	popq	%rbp
	popq	%r12
	popq	%r13
	popq	%r14
	popq	%r15
	ret
	.p2align 4,,10
	.p2align 3
.L1369:
	movq	%r14, %r8
	movq	%r13, %rdx
	movq	%rsi, %rcx
	movq	%r9, 40(%rsp)
	call	memmove
	testq	%rdi, %rdi
	movq	40(%rsp), %r9
	jg	.L1358
.L1361:
	movq	%r13, %rcx
	call	_ZdlPv
	jmp	.L1359
	.p2align 4,,10
	.p2align 3
.L1368:
	testq	%rcx, %rcx
	jne	.L1356
	xorl	%ebp, %ebp
	xorl	%esi, %esi
	jmp	.L1362
	.p2align 4,,10
	.p2align 3
.L1358:
	movq	%rdi, %r8
	movq	%r12, %rdx
	movq	%r9, %rcx
	call	memcpy
	testq	%r13, %r13
	je	.L1359
	jmp	.L1361
	.p2align 4,,10
	.p2align 3
.L1363:
	movl	$8, %ebp
	jmp	.L1355
.L1367:
	leaq	.LC13(%rip), %rcx
	call	_ZSt20__throw_length_errorPKc
.L1356:
	cmpq	%rdx, %rcx
	cmovbe	%rcx, %rdx
	movq	%rdx, %rbp
	salq	$3, %rbp
	jmp	.L1355
	.seh_endproc
	.section	.text$_ZNSt6vectorIP11_typeobjectSaIS1_EE17_M_realloc_insertIJS1_EEEvN9__gnu_cxx17__normal_iteratorIPS1_S3_EEDpOT_,"x"
	.linkonce discard
	.align 2
	.p2align 4
	.globl	_ZNSt6vectorIP11_typeobjectSaIS1_EE17_M_realloc_insertIJS1_EEEvN9__gnu_cxx17__normal_iteratorIPS1_S3_EEDpOT_
	.def	_ZNSt6vectorIP11_typeobjectSaIS1_EE17_M_realloc_insertIJS1_EEEvN9__gnu_cxx17__normal_iteratorIPS1_S3_EEDpOT_;	.scl	2;	.type	32;	.endef
	.seh_proc	_ZNSt6vectorIP11_typeobjectSaIS1_EE17_M_realloc_insertIJS1_EEEvN9__gnu_cxx17__normal_iteratorIPS1_S3_EEDpOT_
_ZNSt6vectorIP11_typeobjectSaIS1_EE17_M_realloc_insertIJS1_EEEvN9__gnu_cxx17__normal_iteratorIPS1_S3_EEDpOT_:
.LFB14896:
	pushq	%r15
	.seh_pushreg	%r15
	pushq	%r14
	.seh_pushreg	%r14
	pushq	%r13
	.seh_pushreg	%r13
	pushq	%r12
	.seh_pushreg	%r12
	pushq	%rbp
	.seh_pushreg	%rbp
	pushq	%rdi
	.seh_pushreg	%rdi
	pushq	%rsi
	.seh_pushreg	%rsi
	pushq	%rbx
	.seh_pushreg	%rbx
	subq	$56, %rsp
	.seh_stackalloc	56
	.seh_endprologue
	movq	8(%rcx), %rdi
	movq	(%rcx), %r13
	movq	%rdi, %rax
	subq	%r13, %rax
	movq	%rdx, %r12
	sarq	$3, %rax
	movq	%rcx, %rbx
	movq	%r8, %r15
	movabsq	$1152921504606846975, %rdx
	cmpq	%rdx, %rax
	je	.L1384
	movq	%r12, %r14
	subq	%r13, %r14
	testq	%rax, %rax
	je	.L1380
	movabsq	$9223372036854775800, %rbp
	leaq	(%rax,%rax), %rcx
	cmpq	%rcx, %rax
	jbe	.L1385
.L1372:
	movq	%rbp, %rcx
	call	_Znwy
	movq	%rax, %rsi
	addq	%rax, %rbp
.L1379:
	movq	(%r15), %rax
	leaq	8(%rsi,%r14), %r9
	subq	%r12, %rdi
	leaq	(%r9,%rdi), %r15
	movq	%rax, (%rsi,%r14)
	testq	%r14, %r14
	jg	.L1386
	testq	%rdi, %rdi
	jg	.L1375
	testq	%r13, %r13
	jne	.L1378
.L1376:
	vmovq	%rsi, %xmm1
	movq	%rbp, 16(%rbx)
	vpinsrq	$1, %r15, %xmm1, %xmm0
	vmovups	%xmm0, (%rbx)
	addq	$56, %rsp
	popq	%rbx
	popq	%rsi
	popq	%rdi
	popq	%rbp
	popq	%r12
	popq	%r13
	popq	%r14
	popq	%r15
	ret
	.p2align 4,,10
	.p2align 3
.L1386:
	movq	%r14, %r8
	movq	%r13, %rdx
	movq	%rsi, %rcx
	movq	%r9, 40(%rsp)
	call	memmove
	testq	%rdi, %rdi
	movq	40(%rsp), %r9
	jg	.L1375
.L1378:
	movq	%r13, %rcx
	call	_ZdlPv
	jmp	.L1376
	.p2align 4,,10
	.p2align 3
.L1385:
	testq	%rcx, %rcx
	jne	.L1373
	xorl	%ebp, %ebp
	xorl	%esi, %esi
	jmp	.L1379
	.p2align 4,,10
	.p2align 3
.L1375:
	movq	%rdi, %r8
	movq	%r12, %rdx
	movq	%r9, %rcx
	call	memcpy
	testq	%r13, %r13
	je	.L1376
	jmp	.L1378
	.p2align 4,,10
	.p2align 3
.L1380:
	movl	$8, %ebp
	jmp	.L1372
.L1384:
	leaq	.LC13(%rip), %rcx
	call	_ZSt20__throw_length_errorPKc
.L1373:
	cmpq	%rdx, %rcx
	cmovbe	%rcx, %rdx
	movq	%rdx, %rbp
	salq	$3, %rbp
	jmp	.L1372
	.seh_endproc
	.section .rdata,"dr"
.LC15:
	.ascii "vector<bool>::_M_fill_insert\0"
	.section	.text$_ZNSt6vectorIbSaIbEE14_M_fill_insertESt13_Bit_iteratoryb,"x"
	.linkonce discard
	.align 2
	.p2align 4
	.globl	_ZNSt6vectorIbSaIbEE14_M_fill_insertESt13_Bit_iteratoryb
	.def	_ZNSt6vectorIbSaIbEE14_M_fill_insertESt13_Bit_iteratoryb;	.scl	2;	.type	32;	.endef
	.seh_proc	_ZNSt6vectorIbSaIbEE14_M_fill_insertESt13_Bit_iteratoryb
_ZNSt6vectorIbSaIbEE14_M_fill_insertESt13_Bit_iteratoryb:
.LFB15109:
	pushq	%r15
	.seh_pushreg	%r15
	pushq	%r14
	.seh_pushreg	%r14
	pushq	%r13
	.seh_pushreg	%r13
	pushq	%r12
	.seh_pushreg	%r12
	pushq	%rbp
	.seh_pushreg	%rbp
	pushq	%rdi
	.seh_pushreg	%rdi
	pushq	%rsi
	.seh_pushreg	%rsi
	pushq	%rbx
	.seh_pushreg	%rbx
	subq	$56, %rsp
	.seh_stackalloc	56
	.seh_endprologue
	movl	%r9d, 32(%rsp)
	movq	%rcx, %rbx
	movq	%r8, %rsi
	testq	%r8, %r8
	je	.L1464
	movq	(%rcx), %rax
	movq	16(%rcx), %r11
	movq	32(%rbx), %r14
	movq	(%rdx), %r12
	movl	8(%rdx), %edi
	movl	24(%rcx), %edx
	movq	%r11, %rcx
	subq	%rax, %r14
	subq	%rax, %rcx
	movq	%r14, %rax
	leaq	(%rdx,%rcx,8), %rcx
	movq	%rdx, %r8
	salq	$3, %rax
	subq	%rcx, %rax
	cmpq	%rsi, %rax
	jb	.L1389
	leaq	(%rsi,%rdx), %rax
	testq	%rax, %rax
	leaq	31(%rax), %rcx
	cmovns	%rax, %rcx
	sarq	$5, %rcx
	leaq	(%r11,%rcx,4), %r15
	movq	%rax, %rcx
	sarq	$63, %rcx
	movq	%r15, %r10
	shrq	$59, %rcx
	addq	%rcx, %rax
	andl	$31, %eax
	subq	%rcx, %rax
	movq	%rax, %rcx
	jns	.L1391
	leaq	32(%rax), %rcx
	leaq	-4(%r15), %r10
.L1391:
	movq	%r11, %r9
	movl	%edi, %r14d
	subq	%r12, %r9
	movq	%r14, 40(%rsp)
	leaq	(%rdx,%r9,8), %rdx
	subq	%r14, %rdx
	movl	$1, %r14d
	testq	%rdx, %rdx
	jle	.L1400
	.p2align 4,,10
	.p2align 3
.L1392:
	testl	%r8d, %r8d
	je	.L1395
.L1474:
	decl	%r8d
	shlx	%r8d, %r14d, %r13d
	testl	%ecx, %ecx
	je	.L1397
.L1475:
	decl	%ecx
	shlx	%ecx, %r14d, %r9d
.L1398:
	movl	(%r10), %ebp
	testl	%r13d, (%r11)
	je	.L1399
	orl	%ebp, %r9d
	movl	%r9d, (%r10)
	decq	%rdx
	jne	.L1392
.L1400:
	movq	40(%rsp), %rdx
	addq	%rsi, %rdx
	leaq	31(%rdx), %rcx
	cmovns	%rdx, %rcx
	sarq	$5, %rcx
	leaq	(%r12,%rcx,4), %r14
	movq	%rdx, %rcx
	sarq	$63, %rcx
	shrq	$59, %rcx
	leaq	(%rdx,%rcx), %r13
	andl	$31, %r13d
	subq	%rcx, %r13
	jns	.L1394
	addq	$32, %r13
	subq	$4, %r14
.L1394:
	movl	%r13d, %ebp
	cmpq	%r12, %r14
	je	.L1402
	testl	%edi, %edi
	jne	.L1470
	movq	%r14, %r8
	subq	%r12, %r8
	cmpb	$0, 32(%rsp)
	je	.L1406
.L1405:
	movl	$-1, %edx
	movq	%r12, %rcx
	call	memset
	testq	%r13, %r13
	je	.L1465
	movl	$32, %eax
	subl	%ebp, %eax
	movl	%eax, %edx
	movl	$-1, %eax
	shrx	%edx, %eax, %eax
	orl	%eax, (%r14)
.L1465:
	movl	24(%rbx), %r8d
	movq	16(%rbx), %rdx
	addq	%r8, %rsi
	leaq	31(%rsi), %rax
	cmovns	%rsi, %rax
	sarq	$5, %rax
	leaq	(%rdx,%rax,4), %r15
	movq	%rsi, %rdx
	sarq	$63, %rdx
	shrq	$59, %rdx
	leaq	(%rsi,%rdx), %rax
	andl	$31, %eax
	subq	%rdx, %rax
.L1408:
	testq	%rax, %rax
	jns	.L1466
	addq	$32, %rax
	subq	$4, %r15
.L1466:
	movq	%r15, 16(%rbx)
	movl	%eax, 24(%rbx)
.L1464:
	addq	$56, %rsp
	popq	%rbx
	popq	%rsi
	popq	%rdi
	popq	%rbp
	popq	%r12
	popq	%r13
	popq	%r14
	popq	%r15
	ret
	.p2align 4,,10
	.p2align 3
.L1389:
	movabsq	$9223372036854775776, %rax
	movq	%rax, %rdx
	subq	%rcx, %rdx
	cmpq	%rdx, %rsi
	ja	.L1471
	cmpq	%rcx, %rsi
	movq	%rcx, %rdx
	cmovnb	%rsi, %rdx
	addq	%rdx, %rcx
	jc	.L1415
	cmpq	%rax, %rcx
	cmova	%rax, %rcx
	addq	$31, %rcx
	shrq	$5, %rcx
	leaq	0(,%rcx,4), %rax
	movq	%rax, 40(%rsp)
	movq	%rax, %rcx
.L1416:
	call	_Znwy
	movq	(%rbx), %r14
	movq	%r12, %r13
	movq	%rax, %rbp
	subq	%r14, %r13
	cmpq	%r12, %r14
	je	.L1418
	movq	%r13, %r8
	movq	%r14, %rdx
	movq	%rax, %rcx
	call	memmove
.L1418:
	leaq	0(%rbp,%r13), %rcx
	movl	%edi, %r13d
	testq	%r13, %r13
	je	.L1447
	movq	%r12, %r10
	movq	%r13, %r9
	xorl	%edx, %edx
	movl	$1, %r15d
	jmp	.L1424
	.p2align 4,,10
	.p2align 3
.L1422:
	incl	%edx
	decq	%r9
	je	.L1472
.L1424:
	movl	(%rcx), %eax
	shlx	%edx, %r15d, %r8d
	movl	%eax, %r11d
	andn	%eax, %r8d, %eax
	orl	%r8d, %r11d
	testl	%r8d, (%r10)
	cmovne	%r11d, %eax
	movl	%eax, (%rcx)
	cmpl	$31, %edx
	jne	.L1422
	addq	$4, %r10
	addq	$4, %rcx
	xorl	%edx, %edx
	decq	%r9
	jne	.L1424
.L1472:
	movl	%edx, %r8d
.L1419:
	addq	%rsi, %r8
	leaq	31(%r8), %rax
	cmovns	%r8, %rax
	sarq	$5, %rax
	leaq	(%rcx,%rax,4), %rsi
	movq	%r8, %rax
	sarq	$63, %rax
	shrq	$59, %rax
	leaq	(%r8,%rax), %r9
	andl	$31, %r9d
	subq	%rax, %r9
	jns	.L1425
	addq	$32, %r9
	subq	$4, %rsi
.L1425:
	movl	%r9d, %r15d
	cmpq	%rcx, %rsi
	je	.L1426
	testl	%edx, %edx
	je	.L1427
	leaq	4(%rcx), %r10
	movq	%rsi, %r8
	movl	$-1, %eax
	subq	%r10, %r8
	cmpb	$0, 32(%rsp)
	shlx	%edx, %eax, %edx
	movl	(%rcx), %eax
	je	.L1428
	orl	%eax, %edx
	movl	%edx, (%rcx)
	movq	%r10, %rcx
.L1429:
	movl	$-1, %edx
	movq	%r9, 32(%rsp)
	call	memset
	movq	32(%rsp), %r9
	testq	%r9, %r9
	jne	.L1431
.L1468:
	movq	(%rbx), %r14
.L1432:
	movq	16(%rbx), %rax
	movl	24(%rbx), %edx
	subq	%r12, %rax
	leaq	(%rdx,%rax,8), %rdx
	subq	%r13, %rdx
	testq	%rdx, %rdx
	jle	.L1435
	movl	$1, %r8d
	jmp	.L1442
	.p2align 4,,10
	.p2align 3
.L1438:
	incl	%edi
	cmpl	$31, %r15d
	je	.L1473
.L1440:
	incl	%r15d
	decq	%rdx
	je	.L1435
.L1442:
	movl	(%rsi), %ecx
	shlx	%r15d, %r8d, %eax
	shlx	%edi, %r8d, %r10d
	movl	%ecx, %r9d
	orl	%eax, %r9d
	andn	%ecx, %eax, %eax
	testl	%r10d, (%r12)
	cmovne	%r9d, %eax
	movl	%eax, (%rsi)
	cmpl	$31, %edi
	jne	.L1438
	addq	$4, %r12
	xorl	%edi, %edi
	cmpl	$31, %r15d
	jne	.L1440
.L1473:
	addq	$4, %rsi
	xorl	%r15d, %r15d
	decq	%rdx
	jne	.L1442
.L1435:
	testq	%r14, %r14
	je	.L1443
	movq	%r14, %rcx
	call	_ZdlPv
	movq	$0, 16(%rbx)
	movl	$0, 24(%rbx)
	movq	$0, (%rbx)
	movl	$0, 8(%rbx)
.L1443:
	movq	40(%rsp), %rax
	movq	%rbp, (%rbx)
	movl	$0, 8(%rbx)
	addq	%rbp, %rax
	movq	%rsi, 16(%rbx)
	movq	%rax, 32(%rbx)
	movl	%r15d, 24(%rbx)
	jmp	.L1464
	.p2align 4,,10
	.p2align 3
.L1399:
	andn	%ebp, %r9d, %r9d
	movl	%r9d, (%r10)
	decq	%rdx
	je	.L1400
	testl	%r8d, %r8d
	jne	.L1474
.L1395:
	subq	$4, %r11
	movl	$-2147483648, %r13d
	movl	$31, %r8d
	testl	%ecx, %ecx
	jne	.L1475
.L1397:
	subq	$4, %r10
	movl	$-2147483648, %r9d
	movl	$31, %ecx
	jmp	.L1398
	.p2align 4,,10
	.p2align 3
.L1470:
	leaq	4(%r12), %rdx
	movq	%r14, %r8
	movl	$-1, %eax
	subq	%rdx, %r8
	cmpb	$0, 32(%rsp)
	shlx	%edi, %eax, %edi
	movl	(%r12), %eax
	je	.L1404
	orl	%eax, %edi
	movl	%edi, (%r12)
	movq	%rdx, %r12
	jmp	.L1405
	.p2align 4,,10
	.p2align 3
.L1404:
	andn	%eax, %edi, %edi
	movl	%edi, (%r12)
	movq	%rdx, %r12
.L1406:
	xorl	%edx, %edx
	movq	%r12, %rcx
	call	memset
	testq	%r13, %r13
	je	.L1465
	movl	$32, %eax
	subl	%ebp, %eax
	movl	%eax, %edx
	movl	$-1, %eax
	shrx	%edx, %eax, %eax
	notl	%eax
	andl	%eax, (%r14)
	jmp	.L1465
	.p2align 4,,10
	.p2align 3
.L1402:
	cmpl	%edi, %r13d
	je	.L1408
	movl	$32, %edx
	movl	$-1, %ecx
	subl	%r13d, %edx
	shlx	%edi, %ecx, %edi
	shrx	%edx, %ecx, %edx
	andl	%edx, %edi
	movl	(%r14), %edx
	andn	%edx, %edi, %ecx
	orl	%edx, %edi
	cmpb	$0, 32(%rsp)
	cmove	%ecx, %edi
	movl	%edi, (%r14)
	jmp	.L1408
	.p2align 4,,10
	.p2align 3
.L1427:
	movq	%rsi, %r8
	subq	%rcx, %r8
	cmpb	$0, 32(%rsp)
	jne	.L1429
.L1430:
	xorl	%edx, %edx
	movq	%r9, 32(%rsp)
	call	memset
	movq	32(%rsp), %r9
	testq	%r9, %r9
	je	.L1468
	movl	$32, %eax
	subl	%r15d, %eax
	movl	%eax, %edx
	movl	$-1, %eax
	shrx	%edx, %eax, %eax
	notl	%eax
	andl	%eax, (%rsi)
	jmp	.L1468
	.p2align 4,,10
	.p2align 3
.L1426:
	cmpl	%edx, %r9d
	je	.L1432
	movl	$32, %eax
	movl	$-1, %ecx
	subl	%r9d, %eax
	shlx	%edx, %ecx, %edx
	shrx	%eax, %ecx, %eax
	andl	%eax, %edx
	movl	(%rsi), %eax
	andn	%eax, %edx, %ecx
	orl	%eax, %edx
	cmpb	$0, 32(%rsp)
	movl	%ecx, %eax
	cmovne	%edx, %eax
	movl	%eax, (%rsi)
	jmp	.L1432
	.p2align 4,,10
	.p2align 3
.L1431:
	movl	$32, %eax
	subl	%r15d, %eax
	movl	%eax, %edx
	movl	$-1, %eax
	shrx	%edx, %eax, %eax
	orl	%eax, (%rsi)
	jmp	.L1468
	.p2align 4,,10
	.p2align 3
.L1428:
	andn	%eax, %edx, %edx
	movl	%edx, (%rcx)
	movq	%r10, %rcx
	jmp	.L1430
	.p2align 4,,10
	.p2align 3
.L1447:
	xorl	%r8d, %r8d
	xorl	%edx, %edx
	jmp	.L1419
.L1471:
	leaq	.LC15(%rip), %rcx
	call	_ZSt20__throw_length_errorPKc
.L1415:
	movabsq	$1152921504606846972, %rax
	movq	%rax, 40(%rsp)
	movq	%rax, %rcx
	jmp	.L1416
	.seh_endproc
	.section	.text$_ZNSt6vectorIN8pybind116detail13function_callESaIS2_EE17_M_realloc_insertIJS2_EEEvN9__gnu_cxx17__normal_iteratorIPS2_S4_EEDpOT_,"x"
	.linkonce discard
	.align 2
	.p2align 4
	.globl	_ZNSt6vectorIN8pybind116detail13function_callESaIS2_EE17_M_realloc_insertIJS2_EEEvN9__gnu_cxx17__normal_iteratorIPS2_S4_EEDpOT_
	.def	_ZNSt6vectorIN8pybind116detail13function_callESaIS2_EE17_M_realloc_insertIJS2_EEEvN9__gnu_cxx17__normal_iteratorIPS2_S4_EEDpOT_;	.scl	2;	.type	32;	.endef
	.seh_proc	_ZNSt6vectorIN8pybind116detail13function_callESaIS2_EE17_M_realloc_insertIJS2_EEEvN9__gnu_cxx17__normal_iteratorIPS2_S4_EEDpOT_
_ZNSt6vectorIN8pybind116detail13function_callESaIS2_EE17_M_realloc_insertIJS2_EEEvN9__gnu_cxx17__normal_iteratorIPS2_S4_EEDpOT_:
.LFB15112:
	pushq	%r15
	.seh_pushreg	%r15
	pushq	%r14
	.seh_pushreg	%r14
	pushq	%r13
	.seh_pushreg	%r13
	pushq	%r12
	.seh_pushreg	%r12
	pushq	%rbp
	.seh_pushreg	%rbp
	pushq	%rdi
	.seh_pushreg	%rdi
	pushq	%rsi
	.seh_pushreg	%rsi
	pushq	%rbx
	.seh_pushreg	%rbx
	subq	$72, %rsp
	.seh_stackalloc	72
	vmovaps	%xmm6, 48(%rsp)
	.seh_savexmm	%xmm6, 48
	.seh_endprologue
	movq	8(%rcx), %r14
	movq	(%rcx), %r12
	movq	%rdx, %rsi
	movq	%rcx, %rbp
	movabsq	$5675921253449092805, %rdx
	movq	%r8, %r15
	movabsq	$88686269585142075, %rcx
	movq	%r14, %rax
	subq	%r12, %rax
	sarq	$3, %rax
	imulq	%rdx, %rax
	cmpq	%rcx, %rax
	jne	.L1477
	leaq	.LC13(%rip), %rcx
.LEHB36:
	call	_ZSt20__throw_length_errorPKc
.LEHE36:
	.p2align 4,,10
	.p2align 3
.L1477:
	movq	%rsi, %rdx
	subq	%r12, %rdx
	testq	%rax, %rax
	je	.L1500
	movabsq	$9223372036854775800, %r13
	leaq	(%rax,%rax), %r8
	cmpq	%r8, %rax
	ja	.L1478
	testq	%r8, %r8
	jne	.L1479
	movl	$104, %ebx
	xorl	%r13d, %r13d
	xorl	%edi, %edi
.L1499:
	leaq	(%rdi,%rdx), %rax
	movq	64(%r15), %rdx
	vmovdqu	(%r15), %ymm6
	vpxor	%xmm0, %xmm0, %xmm0
	movq	$0, 24(%r15)
	movq	%rdx, 64(%rax)
	movq	72(%r15), %rdx
	vmovdqu	%ymm6, (%rax)
	vmovdqu	32(%r15), %xmm6
	movq	%rdx, 72(%rax)
	movq	80(%r15), %rdx
	vmovups	%xmm6, 32(%rax)
	vmovdqu	48(%r15), %xmm6
	movq	%rdx, 80(%rax)
	movq	88(%r15), %rdx
	movq	$0, 16(%r15)
	movq	%rdx, 88(%rax)
	movq	96(%r15), %rdx
	movq	$0, 8(%r15)
	movq	$0, 48(%r15)
	movl	$0, 56(%r15)
	movq	$0, 32(%r15)
	movl	$0, 40(%r15)
	movq	$0, 80(%r15)
	movq	%rdx, 96(%rax)
	vmovups	%xmm6, 48(%rax)
	vmovups	%xmm0, 64(%r15)
	cmpq	%r12, %rsi
	je	.L1480
	movq	%rdi, %r15
	movq	%r12, %rbx
	vmovdqa	%xmm0, %xmm6
	.p2align 4,,10
	.p2align 3
.L1492:
	movq	(%rbx), %rax
	vmovdqu	32(%rbx), %xmm1
	movq	%rax, (%r15)
	movq	8(%rbx), %rax
	movq	%rax, 8(%r15)
	movq	16(%rbx), %rax
	movq	%rax, 16(%r15)
	movq	24(%rbx), %rax
	movq	%rax, 24(%r15)
	movq	$0, 24(%rbx)
	vmovups	%xmm6, 8(%rbx)
	vmovups	%xmm1, 32(%r15)
	vmovdqu	48(%rbx), %xmm2
	vmovups	%xmm2, 48(%r15)
	movq	64(%rbx), %rax
	movq	%rax, 64(%r15)
	movq	72(%rbx), %rax
	movq	$0, 48(%rbx)
	movl	$0, 56(%rbx)
	movq	$0, 32(%rbx)
	movl	$0, 40(%rbx)
	movq	$0, 64(%rbx)
	movq	%rax, 72(%r15)
	movq	80(%rbx), %rax
	movq	$0, 72(%rbx)
	movq	%rax, 80(%r15)
	movq	88(%rbx), %rax
	movq	$0, 80(%rbx)
	movq	%rax, 88(%r15)
	movq	96(%rbx), %rax
	movq	%rax, 96(%r15)
	movq	80(%rbx), %rcx
	testq	%rcx, %rcx
	je	.L1482
	decq	(%rcx)
	jne	.L1482
	movq	8(%rcx), %rax
	vzeroupper
	call	*48(%rax)
.L1482:
	movq	72(%rbx), %rcx
	testq	%rcx, %rcx
	je	.L1485
	decq	(%rcx)
	jne	.L1485
	movq	8(%rcx), %rax
	vzeroupper
	call	*48(%rax)
.L1485:
	movq	32(%rbx), %rcx
	testq	%rcx, %rcx
	je	.L1487
	vzeroupper
	call	_ZdlPv
.L1487:
	movq	8(%rbx), %rcx
	testq	%rcx, %rcx
	je	.L1489
	vzeroupper
	call	_ZdlPv
	addq	$104, %rbx
	addq	$104, %r15
	cmpq	%rbx, %rsi
	jne	.L1492
	jmp	.L1490
	.p2align 4,,10
	.p2align 3
.L1489:
	addq	$104, %rbx
	addq	$104, %r15
	cmpq	%rbx, %rsi
	jne	.L1492
.L1490:
	movabsq	$1064235235021704901, %rax
	leaq	-104(%rsi), %rbx
	subq	%r12, %rbx
	shrq	$3, %rbx
	imulq	%rax, %rbx
	movabsq	$2305843009213693951, %rax
	andq	%rax, %rbx
	addq	$2, %rbx
	imulq	$104, %rbx, %rbx
	addq	%rdi, %rbx
.L1480:
	cmpq	%r14, %rsi
	je	.L1493
	movq	%rsi, %rax
	movq	%rbx, %rdx
	.p2align 4,,10
	.p2align 3
.L1497:
	movq	64(%rax), %rcx
	vmovdqu	(%rax), %ymm3
	movq	$0, 64(%rax)
	addq	$104, %rax
	vmovdqu	-72(%rax), %xmm4
	vmovdqu	-56(%rax), %xmm5
	movq	$0, -80(%rax)
	addq	$104, %rdx
	movq	%rcx, -40(%rdx)
	movq	-16(%rax), %rcx
	vmovdqu	-32(%rax), %xmm0
	vmovdqu	%ymm3, -104(%rdx)
	movq	%rcx, -16(%rdx)
	movq	-8(%rax), %rcx
	movq	$0, -88(%rax)
	movq	$0, -96(%rax)
	vmovups	%xmm4, -72(%rdx)
	vmovups	%xmm5, -56(%rdx)
	movq	$0, -56(%rax)
	movl	$0, -48(%rax)
	movq	$0, -72(%rax)
	movl	$0, -64(%rax)
	vmovups	%xmm0, -32(%rdx)
	movq	%rcx, -8(%rdx)
	cmpq	%r14, %rax
	jne	.L1497
	movabsq	$1064235235021704901, %rdx
	subq	%rsi, %rax
	subq	$104, %rax
	shrq	$3, %rax
	imulq	%rdx, %rax
	movabsq	$2305843009213693951, %rdx
	andq	%rdx, %rax
	incq	%rax
	imulq	$104, %rax, %rax
	addq	%rax, %rbx
.L1493:
	testq	%r12, %r12
	je	.L1509
	movq	%r12, %rcx
	vzeroupper
	call	_ZdlPv
	jmp	.L1498
	.p2align 4,,10
	.p2align 3
.L1509:
	vzeroupper
.L1498:
	vmovq	%rdi, %xmm6
	movq	%r13, 16(%rbp)
	vpinsrq	$1, %rbx, %xmm6, %xmm0
	vmovups	%xmm0, 0(%rbp)
	jmp	.L1508
.L1479:
	cmpq	%rcx, %r8
	cmovbe	%r8, %rcx
	imulq	$104, %rcx, %r13
	jmp	.L1478
	.p2align 4,,10
	.p2align 3
.L1500:
	movl	$104, %r13d
.L1478:
	movq	%r13, %rcx
	movq	%rdx, 40(%rsp)
.LEHB37:
	call	_Znwy
.LEHE37:
	movq	40(%rsp), %rdx
	movq	%rax, %rdi
	addq	%rax, %r13
	leaq	104(%rax), %rbx
	jmp	.L1499
	.p2align 4,,10
	.p2align 3
.L1508:
	vmovaps	48(%rsp), %xmm6
	addq	$72, %rsp
	popq	%rbx
	popq	%rsi
	popq	%rdi
	popq	%rbp
	popq	%r12
	popq	%r13
	popq	%r14
	popq	%r15
	ret
	.seh_handler	__gxx_personality_seh0, @unwind, @except
	.seh_handlerdata
.LLSDA15112:
	.byte	0xff
	.byte	0xff
	.byte	0x1
	.uleb128 .LLSDACSE15112-.LLSDACSB15112
.LLSDACSB15112:
	.uleb128 .LEHB36-.LFB15112
	.uleb128 .LEHE36-.LEHB36
	.uleb128 0
	.uleb128 0
	.uleb128 .LEHB37-.LFB15112
	.uleb128 .LEHE37-.LEHB37
	.uleb128 0
	.uleb128 0
.LLSDACSE15112:
	.section	.text$_ZNSt6vectorIN8pybind116detail13function_callESaIS2_EE17_M_realloc_insertIJS2_EEEvN9__gnu_cxx17__normal_iteratorIPS2_S4_EEDpOT_,"x"
	.linkonce discard
	.seh_endproc
	.section .rdata,"dr"
.LC16:
	.ascii "utf-8\0"
	.align 8
.LC17:
	.ascii "Unable to cast Python instance of type \0"
.LC18:
	.ascii " to C++ type '\0"
.LC19:
	.ascii "'\0"
	.section	.text$_ZN8pybind116detail9load_typeINSt7__cxx1112basic_stringIcSt11char_traitsIcESaIcEEEvEERNS0_11type_casterIT_T0_EESC_RKNS_6handleE,"x"
	.linkonce discard
	.p2align 4
	.globl	_ZN8pybind116detail9load_typeINSt7__cxx1112basic_stringIcSt11char_traitsIcESaIcEEEvEERNS0_11type_casterIT_T0_EESC_RKNS_6handleE
	.def	_ZN8pybind116detail9load_typeINSt7__cxx1112basic_stringIcSt11char_traitsIcESaIcEEEvEERNS0_11type_casterIT_T0_EESC_RKNS_6handleE;	.scl	2;	.type	32;	.endef
	.seh_proc	_ZN8pybind116detail9load_typeINSt7__cxx1112basic_stringIcSt11char_traitsIcESaIcEEEvEERNS0_11type_casterIT_T0_EESC_RKNS_6handleE
_ZN8pybind116detail9load_typeINSt7__cxx1112basic_stringIcSt11char_traitsIcESaIcEEEvEERNS0_11type_casterIT_T0_EESC_RKNS_6handleE:
.LFB15554:
	pushq	%r14
	.seh_pushreg	%r14
	pushq	%r13
	.seh_pushreg	%r13
	pushq	%r12
	.seh_pushreg	%r12
	pushq	%rsi
	.seh_pushreg	%rsi
	pushq	%rbx
	.seh_pushreg	%rbx
	subq	$256, %rsp
	.seh_stackalloc	256
	.seh_endprologue
	movq	%rcx, %r12
	movq	(%rdx), %rcx
	movq	%rdx, %rbx
	testq	%rcx, %rcx
	je	.L1526
	movq	8(%rcx), %rax
	movl	168(%rax), %eax
	testl	$268435456, %eax
	jne	.L1512
	testl	$134217728, %eax
	je	.L1526
	movq	%rcx, 40(%rsp)
.LEHB38:
	call	*__imp_PyString_AsString(%rip)
	movq	40(%rsp), %rcx
	testq	%rax, %rax
	movq	%rax, %r13
	je	.L1526
	call	*__imp_PyString_Size(%rip)
	leaq	240(%rsp), %rsi
	leaq	224(%rsp), %rcx
	movq	%rsi, 224(%rsp)
	movq	%rax, %rbx
	movq	%rax, 192(%rsp)
	cmpq	$15, %rax
	jbe	.L1514
	leaq	192(%rsp), %rdx
	xorl	%r8d, %r8d
	call	_ZNSt7__cxx1112basic_stringIcSt11char_traitsIcESaIcEE9_M_createERyy
	movq	%rax, 224(%rsp)
	movq	%rax, %rcx
	movq	192(%rsp), %rax
	movq	%rax, 240(%rsp)
	jmp	.L1515
	.p2align 4,,10
	.p2align 3
.L1514:
	cmpq	$1, %rax
	jne	.L1516
	movzbl	0(%r13), %eax
	movb	%al, 240(%rsp)
	movq	%rsi, %rax
	jmp	.L1517
	.p2align 4,,10
	.p2align 3
.L1516:
	testq	%rax, %rax
	je	.L1573
	movq	%rsi, %rcx
	.p2align 4,,10
	.p2align 3
.L1515:
	movq	%rbx, %r8
	movq	%r13, %rdx
	call	memcpy
	movq	192(%rsp), %rbx
	movq	224(%rsp), %rax
	jmp	.L1517
	.p2align 4,,10
	.p2align 3
.L1573:
	movq	%rsi, %rax
.L1517:
	movq	%rbx, 232(%rsp)
	movb	$0, (%rax,%rbx)
	movq	224(%rsp), %rdx
	movq	(%r12), %rcx
	cmpq	%rsi, %rdx
	jne	.L1518
	movq	232(%rsp), %r8
	testq	%r8, %r8
	je	.L1519
	cmpq	$1, %r8
	jne	.L1520
	movzbl	240(%rsp), %eax
	movb	%al, (%rcx)
	movq	232(%rsp), %r8
	movq	(%r12), %rcx
	jmp	.L1519
.L1520:
	movq	%rsi, %rdx
	call	memcpy
	movq	232(%rsp), %r8
	movq	(%r12), %rcx
.L1519:
	movq	%r8, 8(%r12)
	movb	$0, (%rcx,%r8)
	movq	224(%rsp), %rcx
	jmp	.L1521
	.p2align 4,,10
	.p2align 3
.L1518:
	leaq	16(%r12), %r8
	movq	240(%rsp), %r9
	movq	232(%rsp), %rax
	cmpq	%r8, %rcx
	jne	.L1522
	vmovq	%rax, %xmm4
	movq	%rdx, (%r12)
	vpinsrq	$1, %r9, %xmm4, %xmm0
	vmovups	%xmm0, 8(%r12)
	jmp	.L1523
	.p2align 4,,10
	.p2align 3
.L1522:
	vmovq	%rax, %xmm3
	movq	16(%r12), %r8
	movq	%rdx, (%r12)
	vpinsrq	$1, %r9, %xmm3, %xmm0
	vmovups	%xmm0, 8(%r12)
	testq	%rcx, %rcx
	je	.L1523
	movq	%rcx, 224(%rsp)
	movq	%r8, 240(%rsp)
	jmp	.L1521
	.p2align 4,,10
	.p2align 3
.L1523:
	movq	%rsi, 224(%rsp)
	leaq	240(%rsp), %rsi
	movq	%rsi, %rcx
.L1521:
	movq	$0, 232(%rsp)
	movb	$0, (%rcx)
	movq	224(%rsp), %rcx
	cmpq	%rsi, %rcx
	je	.L1594
	call	_ZdlPv
	jmp	.L1594
	.p2align 4,,10
	.p2align 3
.L1512:
	xorl	%r8d, %r8d
	leaq	.LC16(%rip), %rdx
	call	*__imp_PyUnicodeUCS2_AsEncodedString(%rip)
.LEHE38:
	movq	%rax, %r13
	testq	%rax, %rax
	jne	.L1527
.LEHB39:
	call	*__imp_PyErr_Clear(%rip)
.LEHE39:
	jmp	.L1526
	.p2align 4,,10
	.p2align 3
.L1527:
	movq	%rax, %rcx
.LEHB40:
	call	*__imp_PyString_AsString(%rip)
	movq	%rax, %r14
	movq	%r13, %rcx
	call	*__imp_PyString_Size(%rip)
	movq	%r14, %rdx
	leaq	240(%rsp), %rsi
	movq	%rax, %rbx
	addq	%rax, %rdx
	movq	%rsi, 224(%rsp)
	je	.L1528
	testq	%r14, %r14
	jne	.L1528
	leaq	.LC8(%rip), %rcx
	call	_ZSt19__throw_logic_errorPKc
	.p2align 4,,10
	.p2align 3
.L1528:
	movq	%rbx, 192(%rsp)
	cmpq	$15, %rbx
	jbe	.L1529
	leaq	192(%rsp), %rdx
	leaq	224(%rsp), %rcx
	xorl	%r8d, %r8d
	call	_ZNSt7__cxx1112basic_stringIcSt11char_traitsIcESaIcEE9_M_createERyy
.LEHE40:
	movq	%rax, 224(%rsp)
	movq	%rax, %rcx
	movq	192(%rsp), %rax
	movq	%rax, 240(%rsp)
	jmp	.L1530
	.p2align 4,,10
	.p2align 3
.L1529:
	cmpq	$1, %rbx
	jne	.L1531
	movzbl	(%r14), %edx
	movb	%dl, 240(%rsp)
	movq	%rsi, %rdx
	jmp	.L1532
	.p2align 4,,10
	.p2align 3
.L1531:
	testq	%rbx, %rbx
	je	.L1574
	movq	%rsi, %rcx
	.p2align 4,,10
	.p2align 3
.L1530:
	movq	%r14, %rdx
	movq	%rbx, %r8
	call	memcpy
	movq	192(%rsp), %rax
	movq	224(%rsp), %rdx
	jmp	.L1532
	.p2align 4,,10
	.p2align 3
.L1574:
	movq	%rsi, %rdx
.L1532:
	movq	%rax, 232(%rsp)
	movb	$0, (%rdx,%rax)
	movq	224(%rsp), %rdx
	movq	(%r12), %rcx
